
run-1_Appli.elf:     file format elf32-littlearm

Sections:
Idx Name          Size      VMA       LMA       File off  Algn
  0 .AI_AXIFLEXMEM 00000000  34000000  34000000  00011220  2**0
                  CONTENTS
  1 .AI_AXISRAM1  00000000  34000000  34000000  00011220  2**0
                  CONTENTS
  2 .AI_AXISRAM2  00000000  00000000  00000000  00011220  2**0
                  CONTENTS
  3 .AI_AXISRAM3  00000000  00000000  00000000  00011220  2**0
                  CONTENTS
  4 .AI_AXISRAM4  00000000  00000000  00000000  00011220  2**0
                  CONTENTS
  5 .AI_AXISRAM5  00000000  00000000  00000000  00011220  2**0
                  CONTENTS
  6 .AI_AXISRAM6  00000000  00000000  00000000  00011220  2**0
                  CONTENTS
  7 .AI_XSPI1     00000000  00000000  00000000  00011220  2**0
                  CONTENTS
  8 .AI_XSPI2     00000000  70180000  70180000  00011220  2**0
                  CONTENTS
  9 .AI_EXTFLASH  00000000  70180000  70180000  00011220  2**0
                  CONTENTS
 10 .isr_vector   0000034c  70100400  70100400  00000400  2**0
                  CONTENTS, ALLOC, LOAD, READONLY, DATA
 11 .text         0000c038  70100750  70100750  00000750  2**3
                  CONTENTS, ALLOC, LOAD, READONLY, CODE
 12 .rodata       00003948  7010c7c0  7010c7c0  0000c7c0  2**6
                  CONTENTS, ALLOC, LOAD, READONLY, DATA
 13 .ARM.extab    00000000  70110108  70110108  00011220  2**0
                  CONTENTS, READONLY
 14 .ARM          00000008  70110108  70110108  00010108  2**2
                  CONTENTS, ALLOC, LOAD, READONLY, DATA
 15 .preinit_array 00000000  70110110  70110110  00011220  2**0
                  CONTENTS, ALLOC, LOAD, DATA
 16 .init_array   00000004  70110110  70110110  00010110  2**2
                  CONTENTS, ALLOC, LOAD, READONLY, DATA
 17 .fini_array   00000004  70110114  70110114  00010114  2**2
                  CONTENTS, ALLOC, LOAD, READONLY, DATA
 18 .data         000000e4  34000000  70110118  00011000  2**2
                  CONTENTS, ALLOC, LOAD, DATA
 19 .noncacheable 00000004  340000e4  340000e4  000110e4  2**0
                  ALLOC
 20 .gnu.sgstubs  00000020  70110200  70110200  00011200  2**5
                  CONTENTS, ALLOC, LOAD, READONLY, CODE
 21 .bss          0000188c  34000100  34000100  00000100  2**6
                  ALLOC
 22 ._user_heap_stack 00002804  3400198c  3400198c  00000100  2**0
                  ALLOC
 23 .ARM.attributes 0000003a  00000000  00000000  00011220  2**0
                  CONTENTS, READONLY
 24 .comment      00000043  00000000  00000000  0001125a  2**0
                  CONTENTS, READONLY
 25 .debug_frame  00000b9c  00000000  00000000  000112a0  2**2
                  CONTENTS, READONLY, DEBUGGING, OCTETS

Disassembly of section .text:

70100750 <__do_global_dtors_aux>:
70100750:	b510      	push	{r4, lr}
70100752:	4c05      	ldr	r4, [pc, #20]	@ (70100768 <__do_global_dtors_aux+0x18>)
70100754:	7823      	ldrb	r3, [r4, #0]
70100756:	b933      	cbnz	r3, 70100766 <__do_global_dtors_aux+0x16>
70100758:	4b04      	ldr	r3, [pc, #16]	@ (7010076c <__do_global_dtors_aux+0x1c>)
7010075a:	b113      	cbz	r3, 70100762 <__do_global_dtors_aux+0x12>
7010075c:	4804      	ldr	r0, [pc, #16]	@ (70100770 <__do_global_dtors_aux+0x20>)
7010075e:	f3af 8000 	nop.w
70100762:	2301      	movs	r3, #1
70100764:	7023      	strb	r3, [r4, #0]
70100766:	bd10      	pop	{r4, pc}
70100768:	34000100 	.word	0x34000100
7010076c:	00000000 	.word	0x00000000
70100770:	7010c770 	.word	0x7010c770

70100774 <frame_dummy>:
70100774:	b508      	push	{r3, lr}
70100776:	4b03      	ldr	r3, [pc, #12]	@ (70100784 <frame_dummy+0x10>)
70100778:	b11b      	cbz	r3, 70100782 <frame_dummy+0xe>
7010077a:	4903      	ldr	r1, [pc, #12]	@ (70100788 <frame_dummy+0x14>)
7010077c:	4803      	ldr	r0, [pc, #12]	@ (7010078c <frame_dummy+0x18>)
7010077e:	f3af 8000 	nop.w
70100782:	bd08      	pop	{r3, pc}
70100784:	00000000 	.word	0x00000000
70100788:	34000104 	.word	0x34000104
7010078c:	7010c770 	.word	0x7010c770

70100790 <strlen>:
70100790:	4603      	mov	r3, r0
70100792:	f813 2b01 	ldrb.w	r2, [r3], #1
70100796:	2a00      	cmp	r2, #0
70100798:	d1fb      	bne.n	70100792 <strlen+0x2>
7010079a:	1a18      	subs	r0, r3, r0
7010079c:	3801      	subs	r0, #1
7010079e:	4770      	bx	lr

701007a0 <__aeabi_frsub>:
701007a0:	f080 4000 	eor.w	r0, r0, #2147483648	@ 0x80000000
701007a4:	e002      	b.n	701007ac <__addsf3>
701007a6:	bf00      	nop

701007a8 <__aeabi_fsub>:
701007a8:	f081 4100 	eor.w	r1, r1, #2147483648	@ 0x80000000

701007ac <__addsf3>:
701007ac:	0042      	lsls	r2, r0, #1
701007ae:	bf1f      	itttt	ne
701007b0:	ea5f 0341 	movsne.w	r3, r1, lsl #1
701007b4:	ea92 0f03 	teqne	r2, r3
701007b8:	ea7f 6c22 	mvnsne.w	ip, r2, asr #24
701007bc:	ea7f 6c23 	mvnsne.w	ip, r3, asr #24
701007c0:	d06a      	beq.n	70100898 <__addsf3+0xec>
701007c2:	ea4f 6212 	mov.w	r2, r2, lsr #24
701007c6:	ebd2 6313 	rsbs	r3, r2, r3, lsr #24
701007ca:	bfc1      	itttt	gt
701007cc:	18d2      	addgt	r2, r2, r3
701007ce:	4041      	eorgt	r1, r0
701007d0:	4048      	eorgt	r0, r1
701007d2:	4041      	eorgt	r1, r0
701007d4:	bfb8      	it	lt
701007d6:	425b      	neglt	r3, r3
701007d8:	2b19      	cmp	r3, #25
701007da:	bf88      	it	hi
701007dc:	4770      	bxhi	lr
701007de:	f010 4f00 	tst.w	r0, #2147483648	@ 0x80000000
701007e2:	f440 0000 	orr.w	r0, r0, #8388608	@ 0x800000
701007e6:	f020 407f 	bic.w	r0, r0, #4278190080	@ 0xff000000
701007ea:	bf18      	it	ne
701007ec:	4240      	negne	r0, r0
701007ee:	f011 4f00 	tst.w	r1, #2147483648	@ 0x80000000
701007f2:	f441 0100 	orr.w	r1, r1, #8388608	@ 0x800000
701007f6:	f021 417f 	bic.w	r1, r1, #4278190080	@ 0xff000000
701007fa:	bf18      	it	ne
701007fc:	4249      	negne	r1, r1
701007fe:	ea92 0f03 	teq	r2, r3
70100802:	d03f      	beq.n	70100884 <__addsf3+0xd8>
70100804:	f1a2 0201 	sub.w	r2, r2, #1
70100808:	fa41 fc03 	asr.w	ip, r1, r3
7010080c:	eb10 000c 	adds.w	r0, r0, ip
70100810:	f1c3 0320 	rsb	r3, r3, #32
70100814:	fa01 f103 	lsl.w	r1, r1, r3
70100818:	f000 4300 	and.w	r3, r0, #2147483648	@ 0x80000000
7010081c:	d502      	bpl.n	70100824 <__addsf3+0x78>
7010081e:	4249      	negs	r1, r1
70100820:	eb60 0040 	sbc.w	r0, r0, r0, lsl #1
70100824:	f5b0 0f00 	cmp.w	r0, #8388608	@ 0x800000
70100828:	d313      	bcc.n	70100852 <__addsf3+0xa6>
7010082a:	f1b0 7f80 	cmp.w	r0, #16777216	@ 0x1000000
7010082e:	d306      	bcc.n	7010083e <__addsf3+0x92>
70100830:	0840      	lsrs	r0, r0, #1
70100832:	ea4f 0131 	mov.w	r1, r1, rrx
70100836:	f102 0201 	add.w	r2, r2, #1
7010083a:	2afe      	cmp	r2, #254	@ 0xfe
7010083c:	d251      	bcs.n	701008e2 <__addsf3+0x136>
7010083e:	f1b1 4f00 	cmp.w	r1, #2147483648	@ 0x80000000
70100842:	eb40 50c2 	adc.w	r0, r0, r2, lsl #23
70100846:	bf08      	it	eq
70100848:	f020 0001 	biceq.w	r0, r0, #1
7010084c:	ea40 0003 	orr.w	r0, r0, r3
70100850:	4770      	bx	lr
70100852:	0049      	lsls	r1, r1, #1
70100854:	eb40 0000 	adc.w	r0, r0, r0
70100858:	3a01      	subs	r2, #1
7010085a:	bf28      	it	cs
7010085c:	f5b0 0f00 	cmpcs.w	r0, #8388608	@ 0x800000
70100860:	d2ed      	bcs.n	7010083e <__addsf3+0x92>
70100862:	fab0 fc80 	clz	ip, r0
70100866:	f1ac 0c08 	sub.w	ip, ip, #8
7010086a:	ebb2 020c 	subs.w	r2, r2, ip
7010086e:	fa00 f00c 	lsl.w	r0, r0, ip
70100872:	bfaa      	itet	ge
70100874:	eb00 50c2 	addge.w	r0, r0, r2, lsl #23
70100878:	4252      	neglt	r2, r2
7010087a:	4318      	orrge	r0, r3
7010087c:	bfbc      	itt	lt
7010087e:	40d0      	lsrlt	r0, r2
70100880:	4318      	orrlt	r0, r3
70100882:	4770      	bx	lr
70100884:	f092 0f00 	teq	r2, #0
70100888:	f481 0100 	eor.w	r1, r1, #8388608	@ 0x800000
7010088c:	bf06      	itte	eq
7010088e:	f480 0000 	eoreq.w	r0, r0, #8388608	@ 0x800000
70100892:	3201      	addeq	r2, #1
70100894:	3b01      	subne	r3, #1
70100896:	e7b5      	b.n	70100804 <__addsf3+0x58>
70100898:	ea4f 0341 	mov.w	r3, r1, lsl #1
7010089c:	ea7f 6c22 	mvns.w	ip, r2, asr #24
701008a0:	bf18      	it	ne
701008a2:	ea7f 6c23 	mvnsne.w	ip, r3, asr #24
701008a6:	d021      	beq.n	701008ec <__addsf3+0x140>
701008a8:	ea92 0f03 	teq	r2, r3
701008ac:	d004      	beq.n	701008b8 <__addsf3+0x10c>
701008ae:	f092 0f00 	teq	r2, #0
701008b2:	bf08      	it	eq
701008b4:	4608      	moveq	r0, r1
701008b6:	4770      	bx	lr
701008b8:	ea90 0f01 	teq	r0, r1
701008bc:	bf1c      	itt	ne
701008be:	2000      	movne	r0, #0
701008c0:	4770      	bxne	lr
701008c2:	f012 4f7f 	tst.w	r2, #4278190080	@ 0xff000000
701008c6:	d104      	bne.n	701008d2 <__addsf3+0x126>
701008c8:	0040      	lsls	r0, r0, #1
701008ca:	bf28      	it	cs
701008cc:	f040 4000 	orrcs.w	r0, r0, #2147483648	@ 0x80000000
701008d0:	4770      	bx	lr
701008d2:	f112 7200 	adds.w	r2, r2, #33554432	@ 0x2000000
701008d6:	bf3c      	itt	cc
701008d8:	f500 0000 	addcc.w	r0, r0, #8388608	@ 0x800000
701008dc:	4770      	bxcc	lr
701008de:	f000 4300 	and.w	r3, r0, #2147483648	@ 0x80000000
701008e2:	f043 40fe 	orr.w	r0, r3, #2130706432	@ 0x7f000000
701008e6:	f440 0000 	orr.w	r0, r0, #8388608	@ 0x800000
701008ea:	4770      	bx	lr
701008ec:	ea7f 6222 	mvns.w	r2, r2, asr #24
701008f0:	bf16      	itet	ne
701008f2:	4608      	movne	r0, r1
701008f4:	ea7f 6323 	mvnseq.w	r3, r3, asr #24
701008f8:	4601      	movne	r1, r0
701008fa:	0242      	lsls	r2, r0, #9
701008fc:	bf06      	itte	eq
701008fe:	ea5f 2341 	movseq.w	r3, r1, lsl #9
70100902:	ea90 0f01 	teqeq	r0, r1
70100906:	f440 0080 	orrne.w	r0, r0, #4194304	@ 0x400000
7010090a:	4770      	bx	lr

7010090c <__aeabi_ui2f>:
7010090c:	f04f 0300 	mov.w	r3, #0
70100910:	e004      	b.n	7010091c <__aeabi_i2f+0x8>
70100912:	bf00      	nop

70100914 <__aeabi_i2f>:
70100914:	f010 4300 	ands.w	r3, r0, #2147483648	@ 0x80000000
70100918:	bf48      	it	mi
7010091a:	4240      	negmi	r0, r0
7010091c:	ea5f 0c00 	movs.w	ip, r0
70100920:	bf08      	it	eq
70100922:	4770      	bxeq	lr
70100924:	f043 4396 	orr.w	r3, r3, #1258291200	@ 0x4b000000
70100928:	4601      	mov	r1, r0
7010092a:	f04f 0000 	mov.w	r0, #0
7010092e:	e01c      	b.n	7010096a <__aeabi_l2f+0x2a>

70100930 <__aeabi_ul2f>:
70100930:	ea50 0201 	orrs.w	r2, r0, r1
70100934:	bf08      	it	eq
70100936:	4770      	bxeq	lr
70100938:	f04f 0300 	mov.w	r3, #0
7010093c:	e00a      	b.n	70100954 <__aeabi_l2f+0x14>
7010093e:	bf00      	nop

70100940 <__aeabi_l2f>:
70100940:	ea50 0201 	orrs.w	r2, r0, r1
70100944:	bf08      	it	eq
70100946:	4770      	bxeq	lr
70100948:	f011 4300 	ands.w	r3, r1, #2147483648	@ 0x80000000
7010094c:	d502      	bpl.n	70100954 <__aeabi_l2f+0x14>
7010094e:	4240      	negs	r0, r0
70100950:	eb61 0141 	sbc.w	r1, r1, r1, lsl #1
70100954:	ea5f 0c01 	movs.w	ip, r1
70100958:	bf02      	ittt	eq
7010095a:	4684      	moveq	ip, r0
7010095c:	4601      	moveq	r1, r0
7010095e:	2000      	moveq	r0, #0
70100960:	f043 43b6 	orr.w	r3, r3, #1526726656	@ 0x5b000000
70100964:	bf08      	it	eq
70100966:	f1a3 5380 	subeq.w	r3, r3, #268435456	@ 0x10000000
7010096a:	f5a3 0300 	sub.w	r3, r3, #8388608	@ 0x800000
7010096e:	fabc f28c 	clz	r2, ip
70100972:	3a08      	subs	r2, #8
70100974:	eba3 53c2 	sub.w	r3, r3, r2, lsl #23
70100978:	db10      	blt.n	7010099c <__aeabi_l2f+0x5c>
7010097a:	fa01 fc02 	lsl.w	ip, r1, r2
7010097e:	4463      	add	r3, ip
70100980:	fa00 fc02 	lsl.w	ip, r0, r2
70100984:	f1c2 0220 	rsb	r2, r2, #32
70100988:	f1bc 4f00 	cmp.w	ip, #2147483648	@ 0x80000000
7010098c:	fa20 f202 	lsr.w	r2, r0, r2
70100990:	eb43 0002 	adc.w	r0, r3, r2
70100994:	bf08      	it	eq
70100996:	f020 0001 	biceq.w	r0, r0, #1
7010099a:	4770      	bx	lr
7010099c:	f102 0220 	add.w	r2, r2, #32
701009a0:	fa01 fc02 	lsl.w	ip, r1, r2
701009a4:	f1c2 0220 	rsb	r2, r2, #32
701009a8:	ea50 004c 	orrs.w	r0, r0, ip, lsl #1
701009ac:	fa21 f202 	lsr.w	r2, r1, r2
701009b0:	eb43 0002 	adc.w	r0, r3, r2
701009b4:	bf08      	it	eq
701009b6:	ea20 70dc 	biceq.w	r0, r0, ip, lsr #31
701009ba:	4770      	bx	lr

701009bc <__aeabi_uldivmod>:
701009bc:	b953      	cbnz	r3, 701009d4 <__aeabi_uldivmod+0x18>
701009be:	b94a      	cbnz	r2, 701009d4 <__aeabi_uldivmod+0x18>
701009c0:	2900      	cmp	r1, #0
701009c2:	bf08      	it	eq
701009c4:	2800      	cmpeq	r0, #0
701009c6:	bf1c      	itt	ne
701009c8:	f04f 31ff 	movne.w	r1, #4294967295
701009cc:	f04f 30ff 	movne.w	r0, #4294967295
701009d0:	f000 b9d4 	b.w	70100d7c <__aeabi_idiv0>
701009d4:	f1ad 0c08 	sub.w	ip, sp, #8
701009d8:	e96d ce04 	strd	ip, lr, [sp, #-16]!
701009dc:	f000 f828 	bl	70100a30 <__udivmoddi4>
701009e0:	f8dd e004 	ldr.w	lr, [sp, #4]
701009e4:	e9dd 2302 	ldrd	r2, r3, [sp, #8]
701009e8:	b004      	add	sp, #16
701009ea:	4770      	bx	lr
701009ec:	0000      	movs	r0, r0
	...

701009f0 <__aeabi_d2ulz>:
701009f0:	ed9f 6b0b 	vldr	d6, [pc, #44]	@ 70100a20 <__aeabi_d2ulz+0x30>
701009f4:	ec41 0b17 	vmov	d7, r0, r1
701009f8:	ed9f 5b0b 	vldr	d5, [pc, #44]	@ 70100a28 <__aeabi_d2ulz+0x38>
701009fc:	ee27 6b06 	vmul.f64	d6, d7, d6
70100a00:	eebc 6bc6 	vcvt.u32.f64	s12, d6
70100a04:	eeb8 4b46 	vcvt.f64.u32	d4, s12
70100a08:	ee16 1a10 	vmov	r1, s12
70100a0c:	eea4 7b45 	vfms.f64	d7, d4, d5
70100a10:	eefc 7bc7 	vcvt.u32.f64	s15, d7
70100a14:	ee17 0a90 	vmov	r0, s15
70100a18:	4770      	bx	lr
70100a1a:	bf00      	nop
70100a1c:	f3af 8000 	nop.w
70100a20:	00000000 	.word	0x00000000
70100a24:	3df00000 	.word	0x3df00000
70100a28:	00000000 	.word	0x00000000
70100a2c:	41f00000 	.word	0x41f00000

70100a30 <__udivmoddi4>:
70100a30:	e92d 4ff0 	stmdb	sp!, {r4, r5, r6, r7, r8, r9, sl, fp, lr}
70100a34:	468c      	mov	ip, r1
70100a36:	9e09      	ldr	r6, [sp, #36]	@ 0x24
70100a38:	4604      	mov	r4, r0
70100a3a:	460f      	mov	r7, r1
70100a3c:	2b00      	cmp	r3, #0
70100a3e:	d148      	bne.n	70100ad2 <__udivmoddi4+0xa2>
70100a40:	428a      	cmp	r2, r1
70100a42:	4615      	mov	r5, r2
70100a44:	d95e      	bls.n	70100b04 <__udivmoddi4+0xd4>
70100a46:	fab2 f382 	clz	r3, r2
70100a4a:	b13b      	cbz	r3, 70100a5c <__udivmoddi4+0x2c>
70100a4c:	f1c3 0220 	rsb	r2, r3, #32
70100a50:	409f      	lsls	r7, r3
70100a52:	409d      	lsls	r5, r3
70100a54:	409c      	lsls	r4, r3
70100a56:	fa20 f202 	lsr.w	r2, r0, r2
70100a5a:	4317      	orrs	r7, r2
70100a5c:	ea4f 4e15 	mov.w	lr, r5, lsr #16
70100a60:	fa1f fc85 	uxth.w	ip, r5
70100a64:	0c22      	lsrs	r2, r4, #16
70100a66:	fbb7 f1fe 	udiv	r1, r7, lr
70100a6a:	fb0e 7711 	mls	r7, lr, r1, r7
70100a6e:	fb01 f00c 	mul.w	r0, r1, ip
70100a72:	ea42 4207 	orr.w	r2, r2, r7, lsl #16
70100a76:	4290      	cmp	r0, r2
70100a78:	d907      	bls.n	70100a8a <__udivmoddi4+0x5a>
70100a7a:	18aa      	adds	r2, r5, r2
70100a7c:	f101 37ff 	add.w	r7, r1, #4294967295
70100a80:	d202      	bcs.n	70100a88 <__udivmoddi4+0x58>
70100a82:	4290      	cmp	r0, r2
70100a84:	f200 8158 	bhi.w	70100d38 <__udivmoddi4+0x308>
70100a88:	4639      	mov	r1, r7
70100a8a:	1a12      	subs	r2, r2, r0
70100a8c:	b2a4      	uxth	r4, r4
70100a8e:	fbb2 f0fe 	udiv	r0, r2, lr
70100a92:	fb0e 2210 	mls	r2, lr, r0, r2
70100a96:	fb00 fc0c 	mul.w	ip, r0, ip
70100a9a:	ea44 4402 	orr.w	r4, r4, r2, lsl #16
70100a9e:	45a4      	cmp	ip, r4
70100aa0:	d90b      	bls.n	70100aba <__udivmoddi4+0x8a>
70100aa2:	192c      	adds	r4, r5, r4
70100aa4:	f100 32ff 	add.w	r2, r0, #4294967295
70100aa8:	bf2c      	ite	cs
70100aaa:	2701      	movcs	r7, #1
70100aac:	2700      	movcc	r7, #0
70100aae:	45a4      	cmp	ip, r4
70100ab0:	d902      	bls.n	70100ab8 <__udivmoddi4+0x88>
70100ab2:	2f00      	cmp	r7, #0
70100ab4:	f000 8143 	beq.w	70100d3e <__udivmoddi4+0x30e>
70100ab8:	4610      	mov	r0, r2
70100aba:	ea40 4001 	orr.w	r0, r0, r1, lsl #16
70100abe:	eba4 040c 	sub.w	r4, r4, ip
70100ac2:	2100      	movs	r1, #0
70100ac4:	b11e      	cbz	r6, 70100ace <__udivmoddi4+0x9e>
70100ac6:	40dc      	lsrs	r4, r3
70100ac8:	2300      	movs	r3, #0
70100aca:	e9c6 4300 	strd	r4, r3, [r6]
70100ace:	e8bd 8ff0 	ldmia.w	sp!, {r4, r5, r6, r7, r8, r9, sl, fp, pc}
70100ad2:	428b      	cmp	r3, r1
70100ad4:	d906      	bls.n	70100ae4 <__udivmoddi4+0xb4>
70100ad6:	b10e      	cbz	r6, 70100adc <__udivmoddi4+0xac>
70100ad8:	e9c6 0100 	strd	r0, r1, [r6]
70100adc:	2100      	movs	r1, #0
70100ade:	4608      	mov	r0, r1
70100ae0:	e8bd 8ff0 	ldmia.w	sp!, {r4, r5, r6, r7, r8, r9, sl, fp, pc}
70100ae4:	fab3 f183 	clz	r1, r3
70100ae8:	2900      	cmp	r1, #0
70100aea:	d151      	bne.n	70100b90 <__udivmoddi4+0x160>
70100aec:	4563      	cmp	r3, ip
70100aee:	f0c0 8116 	bcc.w	70100d1e <__udivmoddi4+0x2ee>
70100af2:	4282      	cmp	r2, r0
70100af4:	f240 8113 	bls.w	70100d1e <__udivmoddi4+0x2ee>
70100af8:	4608      	mov	r0, r1
70100afa:	2e00      	cmp	r6, #0
70100afc:	d0e7      	beq.n	70100ace <__udivmoddi4+0x9e>
70100afe:	e9c6 4700 	strd	r4, r7, [r6]
70100b02:	e7e4      	b.n	70100ace <__udivmoddi4+0x9e>
70100b04:	2a00      	cmp	r2, #0
70100b06:	f000 80af 	beq.w	70100c68 <__udivmoddi4+0x238>
70100b0a:	fab2 f382 	clz	r3, r2
70100b0e:	2b00      	cmp	r3, #0
70100b10:	f040 80c2 	bne.w	70100c98 <__udivmoddi4+0x268>
70100b14:	1a8a      	subs	r2, r1, r2
70100b16:	ea4f 4e15 	mov.w	lr, r5, lsr #16
70100b1a:	b2af      	uxth	r7, r5
70100b1c:	2101      	movs	r1, #1
70100b1e:	0c20      	lsrs	r0, r4, #16
70100b20:	fbb2 fcfe 	udiv	ip, r2, lr
70100b24:	fb0e 221c 	mls	r2, lr, ip, r2
70100b28:	ea40 4202 	orr.w	r2, r0, r2, lsl #16
70100b2c:	fb07 f00c 	mul.w	r0, r7, ip
70100b30:	4290      	cmp	r0, r2
70100b32:	d90e      	bls.n	70100b52 <__udivmoddi4+0x122>
70100b34:	18aa      	adds	r2, r5, r2
70100b36:	f10c 38ff 	add.w	r8, ip, #4294967295
70100b3a:	bf2c      	ite	cs
70100b3c:	f04f 0901 	movcs.w	r9, #1
70100b40:	f04f 0900 	movcc.w	r9, #0
70100b44:	4290      	cmp	r0, r2
70100b46:	d903      	bls.n	70100b50 <__udivmoddi4+0x120>
70100b48:	f1b9 0f00 	cmp.w	r9, #0
70100b4c:	f000 80f0 	beq.w	70100d30 <__udivmoddi4+0x300>
70100b50:	46c4      	mov	ip, r8
70100b52:	1a12      	subs	r2, r2, r0
70100b54:	b2a4      	uxth	r4, r4
70100b56:	fbb2 f0fe 	udiv	r0, r2, lr
70100b5a:	fb0e 2210 	mls	r2, lr, r0, r2
70100b5e:	fb00 f707 	mul.w	r7, r0, r7
70100b62:	ea44 4402 	orr.w	r4, r4, r2, lsl #16
70100b66:	42a7      	cmp	r7, r4
70100b68:	d90e      	bls.n	70100b88 <__udivmoddi4+0x158>
70100b6a:	192c      	adds	r4, r5, r4
70100b6c:	f100 32ff 	add.w	r2, r0, #4294967295
70100b70:	bf2c      	ite	cs
70100b72:	f04f 0e01 	movcs.w	lr, #1
70100b76:	f04f 0e00 	movcc.w	lr, #0
70100b7a:	42a7      	cmp	r7, r4
70100b7c:	d903      	bls.n	70100b86 <__udivmoddi4+0x156>
70100b7e:	f1be 0f00 	cmp.w	lr, #0
70100b82:	f000 80d2 	beq.w	70100d2a <__udivmoddi4+0x2fa>
70100b86:	4610      	mov	r0, r2
70100b88:	1be4      	subs	r4, r4, r7
70100b8a:	ea40 400c 	orr.w	r0, r0, ip, lsl #16
70100b8e:	e799      	b.n	70100ac4 <__udivmoddi4+0x94>
70100b90:	f1c1 0520 	rsb	r5, r1, #32
70100b94:	408b      	lsls	r3, r1
70100b96:	fa0c f401 	lsl.w	r4, ip, r1
70100b9a:	fa00 f901 	lsl.w	r9, r0, r1
70100b9e:	fa22 f705 	lsr.w	r7, r2, r5
70100ba2:	fa2c fc05 	lsr.w	ip, ip, r5
70100ba6:	408a      	lsls	r2, r1
70100ba8:	431f      	orrs	r7, r3
70100baa:	fa20 f305 	lsr.w	r3, r0, r5
70100bae:	0c38      	lsrs	r0, r7, #16
70100bb0:	4323      	orrs	r3, r4
70100bb2:	fa1f fe87 	uxth.w	lr, r7
70100bb6:	0c1c      	lsrs	r4, r3, #16
70100bb8:	fbbc f8f0 	udiv	r8, ip, r0
70100bbc:	fb00 cc18 	mls	ip, r0, r8, ip
70100bc0:	ea44 440c 	orr.w	r4, r4, ip, lsl #16
70100bc4:	fb08 fc0e 	mul.w	ip, r8, lr
70100bc8:	45a4      	cmp	ip, r4
70100bca:	d90e      	bls.n	70100bea <__udivmoddi4+0x1ba>
70100bcc:	193c      	adds	r4, r7, r4
70100bce:	f108 3aff 	add.w	sl, r8, #4294967295
70100bd2:	bf2c      	ite	cs
70100bd4:	f04f 0b01 	movcs.w	fp, #1
70100bd8:	f04f 0b00 	movcc.w	fp, #0
70100bdc:	45a4      	cmp	ip, r4
70100bde:	d903      	bls.n	70100be8 <__udivmoddi4+0x1b8>
70100be0:	f1bb 0f00 	cmp.w	fp, #0
70100be4:	f000 80b8 	beq.w	70100d58 <__udivmoddi4+0x328>
70100be8:	46d0      	mov	r8, sl
70100bea:	eba4 040c 	sub.w	r4, r4, ip
70100bee:	fa1f fc83 	uxth.w	ip, r3
70100bf2:	fbb4 f3f0 	udiv	r3, r4, r0
70100bf6:	fb00 4413 	mls	r4, r0, r3, r4
70100bfa:	fb03 fe0e 	mul.w	lr, r3, lr
70100bfe:	ea4c 4404 	orr.w	r4, ip, r4, lsl #16
70100c02:	45a6      	cmp	lr, r4
70100c04:	d90e      	bls.n	70100c24 <__udivmoddi4+0x1f4>
70100c06:	193c      	adds	r4, r7, r4
70100c08:	f103 30ff 	add.w	r0, r3, #4294967295
70100c0c:	bf2c      	ite	cs
70100c0e:	f04f 0c01 	movcs.w	ip, #1
70100c12:	f04f 0c00 	movcc.w	ip, #0
70100c16:	45a6      	cmp	lr, r4
70100c18:	d903      	bls.n	70100c22 <__udivmoddi4+0x1f2>
70100c1a:	f1bc 0f00 	cmp.w	ip, #0
70100c1e:	f000 809f 	beq.w	70100d60 <__udivmoddi4+0x330>
70100c22:	4603      	mov	r3, r0
70100c24:	ea43 4008 	orr.w	r0, r3, r8, lsl #16
70100c28:	eba4 040e 	sub.w	r4, r4, lr
70100c2c:	fba0 ec02 	umull	lr, ip, r0, r2
70100c30:	4564      	cmp	r4, ip
70100c32:	4673      	mov	r3, lr
70100c34:	46e0      	mov	r8, ip
70100c36:	d302      	bcc.n	70100c3e <__udivmoddi4+0x20e>
70100c38:	d107      	bne.n	70100c4a <__udivmoddi4+0x21a>
70100c3a:	45f1      	cmp	r9, lr
70100c3c:	d205      	bcs.n	70100c4a <__udivmoddi4+0x21a>
70100c3e:	ebbe 0302 	subs.w	r3, lr, r2
70100c42:	eb6c 0c07 	sbc.w	ip, ip, r7
70100c46:	3801      	subs	r0, #1
70100c48:	46e0      	mov	r8, ip
70100c4a:	b15e      	cbz	r6, 70100c64 <__udivmoddi4+0x234>
70100c4c:	ebb9 0203 	subs.w	r2, r9, r3
70100c50:	eb64 0408 	sbc.w	r4, r4, r8
70100c54:	fa04 f505 	lsl.w	r5, r4, r5
70100c58:	fa22 f301 	lsr.w	r3, r2, r1
70100c5c:	40cc      	lsrs	r4, r1
70100c5e:	431d      	orrs	r5, r3
70100c60:	e9c6 5400 	strd	r5, r4, [r6]
70100c64:	2100      	movs	r1, #0
70100c66:	e732      	b.n	70100ace <__udivmoddi4+0x9e>
70100c68:	0842      	lsrs	r2, r0, #1
70100c6a:	462f      	mov	r7, r5
70100c6c:	084b      	lsrs	r3, r1, #1
70100c6e:	46ac      	mov	ip, r5
70100c70:	ea42 72c1 	orr.w	r2, r2, r1, lsl #31
70100c74:	46ae      	mov	lr, r5
70100c76:	07c4      	lsls	r4, r0, #31
70100c78:	0c11      	lsrs	r1, r2, #16
70100c7a:	b292      	uxth	r2, r2
70100c7c:	ea41 4103 	orr.w	r1, r1, r3, lsl #16
70100c80:	ea42 4201 	orr.w	r2, r2, r1, lsl #16
70100c84:	fbb1 f1f5 	udiv	r1, r1, r5
70100c88:	fbb3 f0f5 	udiv	r0, r3, r5
70100c8c:	231f      	movs	r3, #31
70100c8e:	eba2 020c 	sub.w	r2, r2, ip
70100c92:	ea41 4100 	orr.w	r1, r1, r0, lsl #16
70100c96:	e742      	b.n	70100b1e <__udivmoddi4+0xee>
70100c98:	409d      	lsls	r5, r3
70100c9a:	f1c3 0220 	rsb	r2, r3, #32
70100c9e:	4099      	lsls	r1, r3
70100ca0:	409c      	lsls	r4, r3
70100ca2:	fa2c fc02 	lsr.w	ip, ip, r2
70100ca6:	ea4f 4e15 	mov.w	lr, r5, lsr #16
70100caa:	fa20 f202 	lsr.w	r2, r0, r2
70100cae:	b2af      	uxth	r7, r5
70100cb0:	fbbc f8fe 	udiv	r8, ip, lr
70100cb4:	430a      	orrs	r2, r1
70100cb6:	fb0e cc18 	mls	ip, lr, r8, ip
70100cba:	0c11      	lsrs	r1, r2, #16
70100cbc:	ea41 410c 	orr.w	r1, r1, ip, lsl #16
70100cc0:	fb08 fc07 	mul.w	ip, r8, r7
70100cc4:	458c      	cmp	ip, r1
70100cc6:	d950      	bls.n	70100d6a <__udivmoddi4+0x33a>
70100cc8:	1869      	adds	r1, r5, r1
70100cca:	f108 30ff 	add.w	r0, r8, #4294967295
70100cce:	bf2c      	ite	cs
70100cd0:	f04f 0901 	movcs.w	r9, #1
70100cd4:	f04f 0900 	movcc.w	r9, #0
70100cd8:	458c      	cmp	ip, r1
70100cda:	d902      	bls.n	70100ce2 <__udivmoddi4+0x2b2>
70100cdc:	f1b9 0f00 	cmp.w	r9, #0
70100ce0:	d030      	beq.n	70100d44 <__udivmoddi4+0x314>
70100ce2:	eba1 010c 	sub.w	r1, r1, ip
70100ce6:	fbb1 f8fe 	udiv	r8, r1, lr
70100cea:	fb08 fc07 	mul.w	ip, r8, r7
70100cee:	fb0e 1118 	mls	r1, lr, r8, r1
70100cf2:	b292      	uxth	r2, r2
70100cf4:	ea42 4201 	orr.w	r2, r2, r1, lsl #16
70100cf8:	4562      	cmp	r2, ip
70100cfa:	d234      	bcs.n	70100d66 <__udivmoddi4+0x336>
70100cfc:	18aa      	adds	r2, r5, r2
70100cfe:	f108 31ff 	add.w	r1, r8, #4294967295
70100d02:	bf2c      	ite	cs
70100d04:	f04f 0901 	movcs.w	r9, #1
70100d08:	f04f 0900 	movcc.w	r9, #0
70100d0c:	4562      	cmp	r2, ip
70100d0e:	d2be      	bcs.n	70100c8e <__udivmoddi4+0x25e>
70100d10:	f1b9 0f00 	cmp.w	r9, #0
70100d14:	d1bb      	bne.n	70100c8e <__udivmoddi4+0x25e>
70100d16:	f1a8 0102 	sub.w	r1, r8, #2
70100d1a:	442a      	add	r2, r5
70100d1c:	e7b7      	b.n	70100c8e <__udivmoddi4+0x25e>
70100d1e:	1a84      	subs	r4, r0, r2
70100d20:	eb6c 0203 	sbc.w	r2, ip, r3
70100d24:	2001      	movs	r0, #1
70100d26:	4617      	mov	r7, r2
70100d28:	e6e7      	b.n	70100afa <__udivmoddi4+0xca>
70100d2a:	442c      	add	r4, r5
70100d2c:	3802      	subs	r0, #2
70100d2e:	e72b      	b.n	70100b88 <__udivmoddi4+0x158>
70100d30:	f1ac 0c02 	sub.w	ip, ip, #2
70100d34:	442a      	add	r2, r5
70100d36:	e70c      	b.n	70100b52 <__udivmoddi4+0x122>
70100d38:	3902      	subs	r1, #2
70100d3a:	442a      	add	r2, r5
70100d3c:	e6a5      	b.n	70100a8a <__udivmoddi4+0x5a>
70100d3e:	442c      	add	r4, r5
70100d40:	3802      	subs	r0, #2
70100d42:	e6ba      	b.n	70100aba <__udivmoddi4+0x8a>
70100d44:	eba5 0c0c 	sub.w	ip, r5, ip
70100d48:	f1a8 0002 	sub.w	r0, r8, #2
70100d4c:	4461      	add	r1, ip
70100d4e:	fbb1 f8fe 	udiv	r8, r1, lr
70100d52:	fb08 fc07 	mul.w	ip, r8, r7
70100d56:	e7ca      	b.n	70100cee <__udivmoddi4+0x2be>
70100d58:	f1a8 0802 	sub.w	r8, r8, #2
70100d5c:	443c      	add	r4, r7
70100d5e:	e744      	b.n	70100bea <__udivmoddi4+0x1ba>
70100d60:	3b02      	subs	r3, #2
70100d62:	443c      	add	r4, r7
70100d64:	e75e      	b.n	70100c24 <__udivmoddi4+0x1f4>
70100d66:	4641      	mov	r1, r8
70100d68:	e791      	b.n	70100c8e <__udivmoddi4+0x25e>
70100d6a:	eba1 010c 	sub.w	r1, r1, ip
70100d6e:	4640      	mov	r0, r8
70100d70:	fbb1 f8fe 	udiv	r8, r1, lr
70100d74:	fb08 fc07 	mul.w	ip, r8, r7
70100d78:	e7b9      	b.n	70100cee <__udivmoddi4+0x2be>
70100d7a:	bf00      	nop

70100d7c <__aeabi_idiv0>:
70100d7c:	4770      	bx	lr
70100d7e:	bf00      	nop

70100d80 <STM32CubeAI_Studio_AI_Init>:
70100d80:	b508      	push	{r3, lr}
70100d82:	f000 fcc5 	bl	70101710 <MX_USART1_UART_Init>
70100d86:	f000 fa81 	bl	7010128c <aiPreInitialize>
70100d8a:	e8bd 4008 	ldmia.w	sp!, {r3, lr}
70100d8e:	f008 bc91 	b.w	701096b4 <aiValidationInit>

70100d92 <STM32CubeAI_Studio_AI_Process>:
70100d92:	f008 bccf 	b.w	70109734 <aiValidationProcess>
	...

70100d98 <_ec_blob_cache_start_func_1>:
70100d98:	4901      	ldr	r1, [pc, #4]	@ (70100da0 <_ec_blob_cache_start_func_1+0x8>)
70100d9a:	4802      	ldr	r0, [pc, #8]	@ (70100da4 <_ec_blob_cache_start_func_1+0xc>)
70100d9c:	f007 b9de 	b.w	7010815c <mcu_cache_invalidate_range>
70100da0:	342e0020 	.word	0x342e0020
70100da4:	342e0000 	.word	0x342e0000

70100da8 <LL_ATON_WeightEncryption_Info_network>:
70100da8:	4800      	ldr	r0, [pc, #0]	@ (70100dac <LL_ATON_WeightEncryption_Info_network+0x4>)
70100daa:	4770      	bx	lr
70100dac:	7010e880 	.word	0x7010e880

70100db0 <LL_ATON_BlobEncryption_Info_network>:
70100db0:	4800      	ldr	r0, [pc, #0]	@ (70100db4 <LL_ATON_BlobEncryption_Info_network+0x4>)
70100db2:	4770      	bx	lr
70100db4:	7010e860 	.word	0x7010e860

70100db8 <LL_ATON_Set_User_Input_Buffer_network>:
70100db8:	2003      	movs	r0, #3
70100dba:	4770      	bx	lr

70100dbc <LL_ATON_Get_User_Input_Buffer_network>:
70100dbc:	2000      	movs	r0, #0
70100dbe:	4770      	bx	lr

70100dc0 <LL_ATON_Set_User_Output_Buffer_network>:
70100dc0:	2003      	movs	r0, #3
70100dc2:	4770      	bx	lr

70100dc4 <LL_ATON_Get_User_Output_Buffer_network>:
70100dc4:	2000      	movs	r0, #0
70100dc6:	4770      	bx	lr

70100dc8 <LL_ATON_EC_Network_Init_network>:
70100dc8:	b51f      	push	{r0, r1, r2, r3, r4, lr}
70100dca:	4912      	ldr	r1, [pc, #72]	@ (70100e14 <LL_ATON_EC_Network_Init_network+0x4c>)
70100dcc:	f5a1 603c 	sub.w	r0, r1, #3008	@ 0xbc0
70100dd0:	f000 f84e 	bl	70100e70 <npu_cache_clean_invalidate_range>
70100dd4:	f44f 733c 	mov.w	r3, #752	@ 0x2f0
70100dd8:	490f      	ldr	r1, [pc, #60]	@ (70100e18 <LL_ATON_EC_Network_Init_network+0x50>)
70100dda:	4810      	ldr	r0, [pc, #64]	@ (70100e1c <LL_ATON_EC_Network_Init_network+0x54>)
70100ddc:	aa02      	add	r2, sp, #8
70100dde:	9302      	str	r3, [sp, #8]
70100de0:	f005 fec8 	bl	70106b74 <ec_copy_blob>
70100de4:	b918      	cbnz	r0, 70100dee <LL_ATON_EC_Network_Init_network+0x26>
70100de6:	2400      	movs	r4, #0
70100de8:	4620      	mov	r0, r4
70100dea:	b004      	add	sp, #16
70100dec:	bd10      	pop	{r4, pc}
70100dee:	2200      	movs	r2, #0
70100df0:	ab03      	add	r3, sp, #12
70100df2:	9300      	str	r3, [sp, #0]
70100df4:	490a      	ldr	r1, [pc, #40]	@ (70100e20 <LL_ATON_EC_Network_Init_network+0x58>)
70100df6:	4b0b      	ldr	r3, [pc, #44]	@ (70100e24 <LL_ATON_EC_Network_Init_network+0x5c>)
70100df8:	4808      	ldr	r0, [pc, #32]	@ (70100e1c <LL_ATON_EC_Network_Init_network+0x54>)
70100dfa:	9203      	str	r2, [sp, #12]
70100dfc:	f005 fef4 	bl	70106be8 <ec_reloc>
70100e00:	4604      	mov	r4, r0
70100e02:	2800      	cmp	r0, #0
70100e04:	d0ef      	beq.n	70100de6 <LL_ATON_EC_Network_Init_network+0x1e>
70100e06:	4903      	ldr	r1, [pc, #12]	@ (70100e14 <LL_ATON_EC_Network_Init_network+0x4c>)
70100e08:	f5a1 603c 	sub.w	r0, r1, #3008	@ 0xbc0
70100e0c:	f007 f9d0 	bl	701081b0 <mcu_cache_clean_range>
70100e10:	e7ea      	b.n	70100de8 <LL_ATON_EC_Network_Init_network+0x20>
70100e12:	bf00      	nop
70100e14:	34000d00 	.word	0x34000d00
70100e18:	7010e8c0 	.word	0x7010e8c0
70100e1c:	34000140 	.word	0x34000140
70100e20:	7010e8d8 	.word	0x7010e8d8
70100e24:	7010f4c0 	.word	0x7010f4c0

70100e28 <LL_ATON_EC_Inference_Init_network>:
70100e28:	2001      	movs	r0, #1
70100e2a:	4770      	bx	lr

70100e2c <LL_ATON_EpochBlockItems_network>:
70100e2c:	4800      	ldr	r0, [pc, #0]	@ (70100e30 <LL_ATON_EpochBlockItems_network+0x4>)
70100e2e:	4770      	bx	lr
70100e30:	7010e800 	.word	0x7010e800

70100e34 <LL_ATON_Input_Buffers_Info_network>:
70100e34:	4800      	ldr	r0, [pc, #0]	@ (70100e38 <LL_ATON_Input_Buffers_Info_network+0x4>)
70100e36:	4770      	bx	lr
70100e38:	7010e78c 	.word	0x7010e78c

70100e3c <LL_ATON_Output_Buffers_Info_network>:
70100e3c:	4800      	ldr	r0, [pc, #0]	@ (70100e40 <LL_ATON_Output_Buffers_Info_network+0x4>)
70100e3e:	4770      	bx	lr
70100e40:	7010e6fc 	.word	0x7010e6fc

70100e44 <LL_ATON_Internal_Buffers_Info_network>:
70100e44:	2000      	movs	r0, #0
70100e46:	4770      	bx	lr

70100e48 <npu_cache_enable>:
70100e48:	4807      	ldr	r0, [pc, #28]	@ (70100e68 <npu_cache_enable+0x20>)
70100e4a:	b508      	push	{r3, lr}
70100e4c:	6802      	ldr	r2, [r0, #0]
70100e4e:	4b07      	ldr	r3, [pc, #28]	@ (70100e6c <npu_cache_enable+0x24>)
70100e50:	429a      	cmp	r2, r3
70100e52:	d002      	beq.n	70100e5a <npu_cache_enable+0x12>
70100e54:	6003      	str	r3, [r0, #0]
70100e56:	f000 ffb0 	bl	70101dba <HAL_CACHEAXI_Init>
70100e5a:	4803      	ldr	r0, [pc, #12]	@ (70100e68 <npu_cache_enable+0x20>)
70100e5c:	f000 ff8b 	bl	70101d76 <HAL_CACHEAXI_Enable>
70100e60:	2802      	cmp	r0, #2
70100e62:	d0fa      	beq.n	70100e5a <npu_cache_enable+0x12>
70100e64:	bd08      	pop	{r3, pc}
70100e66:	bf00      	nop
70100e68:	34000d00 	.word	0x34000d00
70100e6c:	580dfc00 	.word	0x580dfc00

70100e70 <npu_cache_clean_invalidate_range>:
70100e70:	4603      	mov	r3, r0
70100e72:	480a      	ldr	r0, [pc, #40]	@ (70100e9c <npu_cache_clean_invalidate_range+0x2c>)
70100e74:	b510      	push	{r4, lr}
70100e76:	4a0a      	ldr	r2, [pc, #40]	@ (70100ea0 <npu_cache_clean_invalidate_range+0x30>)
70100e78:	6804      	ldr	r4, [r0, #0]
70100e7a:	4294      	cmp	r4, r2
70100e7c:	d005      	beq.n	70100e8a <npu_cache_clean_invalidate_range+0x1a>
70100e7e:	215d      	movs	r1, #93	@ 0x5d
70100e80:	4b08      	ldr	r3, [pc, #32]	@ (70100ea4 <npu_cache_clean_invalidate_range+0x34>)
70100e82:	4a09      	ldr	r2, [pc, #36]	@ (70100ea8 <npu_cache_clean_invalidate_range+0x38>)
70100e84:	4809      	ldr	r0, [pc, #36]	@ (70100eac <npu_cache_clean_invalidate_range+0x3c>)
70100e86:	f00a fa4d 	bl	7010b324 <__assert_func>
70100e8a:	428b      	cmp	r3, r1
70100e8c:	d205      	bcs.n	70100e9a <npu_cache_clean_invalidate_range+0x2a>
70100e8e:	e8bd 4010 	ldmia.w	sp!, {r4, lr}
70100e92:	1aca      	subs	r2, r1, r3
70100e94:	4619      	mov	r1, r3
70100e96:	f000 bfa2 	b.w	70101dde <HAL_CACHEAXI_CleanInvalidByAddr>
70100e9a:	bd10      	pop	{r4, pc}
70100e9c:	34000d00 	.word	0x34000d00
70100ea0:	580dfc00 	.word	0x580dfc00
70100ea4:	7010d306 	.word	0x7010d306
70100ea8:	7010f8e0 	.word	0x7010f8e0
70100eac:	7010d327 	.word	0x7010d327

70100eb0 <LL_MEM_EnableClockLowPower>:
70100eb0:	4b04      	ldr	r3, [pc, #16]	@ (70100ec4 <LL_MEM_EnableClockLowPower+0x14>)
70100eb2:	b082      	sub	sp, #8
70100eb4:	f8c3 0a8c 	str.w	r0, [r3, #2700]	@ 0xa8c
70100eb8:	f8d3 328c 	ldr.w	r3, [r3, #652]	@ 0x28c
70100ebc:	9301      	str	r3, [sp, #4]
70100ebe:	9b01      	ldr	r3, [sp, #4]
70100ec0:	b002      	add	sp, #8
70100ec2:	4770      	bx	lr
70100ec4:	56028000 	.word	0x56028000

70100ec8 <LL_AHB5_GRP1_EnableClockLowPower>:
70100ec8:	4b04      	ldr	r3, [pc, #16]	@ (70100edc <LL_AHB5_GRP1_EnableClockLowPower+0x14>)
70100eca:	b082      	sub	sp, #8
70100ecc:	f8c3 0aa0 	str.w	r0, [r3, #2720]	@ 0xaa0
70100ed0:	f8d3 32a0 	ldr.w	r3, [r3, #672]	@ 0x2a0
70100ed4:	9301      	str	r3, [sp, #4]
70100ed6:	9b01      	ldr	r3, [sp, #4]
70100ed8:	b002      	add	sp, #8
70100eda:	4770      	bx	lr
70100edc:	56028000 	.word	0x56028000

70100ee0 <Set_RISAF_Default>:
70100ee0:	2300      	movs	r3, #0
70100ee2:	b570      	push	{r4, r5, r6, lr}
70100ee4:	b088      	sub	sp, #32
70100ee6:	9306      	str	r3, [sp, #24]
70100ee8:	4b5e      	ldr	r3, [pc, #376]	@ (70101064 <Set_RISAF_Default+0x184>)
70100eea:	4604      	mov	r4, r0
70100eec:	4298      	cmp	r0, r3
70100eee:	f000 80a1 	beq.w	70101034 <Set_RISAF_Default+0x154>
70100ef2:	f103 4370 	add.w	r3, r3, #4026531840	@ 0xf0000000
70100ef6:	4298      	cmp	r0, r3
70100ef8:	f000 809c 	beq.w	70101034 <Set_RISAF_Default+0x154>
70100efc:	f103 2310 	add.w	r3, r3, #268439552	@ 0x10001000
70100f00:	4298      	cmp	r0, r3
70100f02:	f000 809a 	beq.w	7010103a <Set_RISAF_Default+0x15a>
70100f06:	f103 4370 	add.w	r3, r3, #4026531840	@ 0xf0000000
70100f0a:	4298      	cmp	r0, r3
70100f0c:	f000 8095 	beq.w	7010103a <Set_RISAF_Default+0x15a>
70100f10:	f103 2310 	add.w	r3, r3, #268439552	@ 0x10001000
70100f14:	4298      	cmp	r0, r3
70100f16:	f000 8090 	beq.w	7010103a <Set_RISAF_Default+0x15a>
70100f1a:	f103 4370 	add.w	r3, r3, #4026531840	@ 0xf0000000
70100f1e:	4298      	cmp	r0, r3
70100f20:	f000 808b 	beq.w	7010103a <Set_RISAF_Default+0x15a>
70100f24:	f103 2310 	add.w	r3, r3, #268439552	@ 0x10001000
70100f28:	4298      	cmp	r0, r3
70100f2a:	f000 8088 	beq.w	7010103e <Set_RISAF_Default+0x15e>
70100f2e:	f103 4370 	add.w	r3, r3, #4026531840	@ 0xf0000000
70100f32:	4298      	cmp	r0, r3
70100f34:	f000 8083 	beq.w	7010103e <Set_RISAF_Default+0x15e>
70100f38:	f103 2310 	add.w	r3, r3, #268439552	@ 0x10001000
70100f3c:	4298      	cmp	r0, r3
70100f3e:	d07e      	beq.n	7010103e <Set_RISAF_Default+0x15e>
70100f40:	f103 4370 	add.w	r3, r3, #4026531840	@ 0xf0000000
70100f44:	4298      	cmp	r0, r3
70100f46:	d07a      	beq.n	7010103e <Set_RISAF_Default+0x15e>
70100f48:	f103 2310 	add.w	r3, r3, #268439552	@ 0x10001000
70100f4c:	4298      	cmp	r0, r3
70100f4e:	d076      	beq.n	7010103e <Set_RISAF_Default+0x15e>
70100f50:	f103 4370 	add.w	r3, r3, #4026531840	@ 0xf0000000
70100f54:	4298      	cmp	r0, r3
70100f56:	d072      	beq.n	7010103e <Set_RISAF_Default+0x15e>
70100f58:	f103 2310 	add.w	r3, r3, #268439552	@ 0x10001000
70100f5c:	4298      	cmp	r0, r3
70100f5e:	d071      	beq.n	70101044 <Set_RISAF_Default+0x164>
70100f60:	f103 4370 	add.w	r3, r3, #4026531840	@ 0xf0000000
70100f64:	4298      	cmp	r0, r3
70100f66:	d06d      	beq.n	70101044 <Set_RISAF_Default+0x164>
70100f68:	f103 2310 	add.w	r3, r3, #268439552	@ 0x10001000
70100f6c:	4298      	cmp	r0, r3
70100f6e:	d06b      	beq.n	70101048 <Set_RISAF_Default+0x168>
70100f70:	f103 4370 	add.w	r3, r3, #4026531840	@ 0xf0000000
70100f74:	4298      	cmp	r0, r3
70100f76:	d067      	beq.n	70101048 <Set_RISAF_Default+0x168>
70100f78:	f103 2310 	add.w	r3, r3, #268439552	@ 0x10001000
70100f7c:	4298      	cmp	r0, r3
70100f7e:	d065      	beq.n	7010104c <Set_RISAF_Default+0x16c>
70100f80:	f103 4370 	add.w	r3, r3, #4026531840	@ 0xf0000000
70100f84:	4298      	cmp	r0, r3
70100f86:	d061      	beq.n	7010104c <Set_RISAF_Default+0x16c>
70100f88:	4b37      	ldr	r3, [pc, #220]	@ (70101068 <Set_RISAF_Default+0x188>)
70100f8a:	4298      	cmp	r0, r3
70100f8c:	d060      	beq.n	70101050 <Set_RISAF_Default+0x170>
70100f8e:	f103 4370 	add.w	r3, r3, #4026531840	@ 0xf0000000
70100f92:	4298      	cmp	r0, r3
70100f94:	d05c      	beq.n	70101050 <Set_RISAF_Default+0x170>
70100f96:	f103 2310 	add.w	r3, r3, #268439552	@ 0x10001000
70100f9a:	4298      	cmp	r0, r3
70100f9c:	d058      	beq.n	70101050 <Set_RISAF_Default+0x170>
70100f9e:	f103 4370 	add.w	r3, r3, #4026531840	@ 0xf0000000
70100fa2:	4298      	cmp	r0, r3
70100fa4:	d054      	beq.n	70101050 <Set_RISAF_Default+0x170>
70100fa6:	f103 2310 	add.w	r3, r3, #268439552	@ 0x10001000
70100faa:	4298      	cmp	r0, r3
70100fac:	d050      	beq.n	70101050 <Set_RISAF_Default+0x170>
70100fae:	f103 4370 	add.w	r3, r3, #4026531840	@ 0xf0000000
70100fb2:	4298      	cmp	r0, r3
70100fb4:	d04c      	beq.n	70101050 <Set_RISAF_Default+0x170>
70100fb6:	f103 2310 	add.w	r3, r3, #268439552	@ 0x10001000
70100fba:	4298      	cmp	r0, r3
70100fbc:	d048      	beq.n	70101050 <Set_RISAF_Default+0x170>
70100fbe:	f103 4370 	add.w	r3, r3, #4026531840	@ 0xf0000000
70100fc2:	4298      	cmp	r0, r3
70100fc4:	d044      	beq.n	70101050 <Set_RISAF_Default+0x170>
70100fc6:	f103 2310 	add.w	r3, r3, #268439552	@ 0x10001000
70100fca:	4298      	cmp	r0, r3
70100fcc:	d046      	beq.n	7010105c <Set_RISAF_Default+0x17c>
70100fce:	f103 4370 	add.w	r3, r3, #4026531840	@ 0xf0000000
70100fd2:	4298      	cmp	r0, r3
70100fd4:	d042      	beq.n	7010105c <Set_RISAF_Default+0x17c>
70100fd6:	f103 2310 	add.w	r3, r3, #268439552	@ 0x10001000
70100fda:	4298      	cmp	r0, r3
70100fdc:	d03b      	beq.n	70101056 <Set_RISAF_Default+0x176>
70100fde:	f103 4370 	add.w	r3, r3, #4026531840	@ 0xf0000000
70100fe2:	4298      	cmp	r0, r3
70100fe4:	d037      	beq.n	70101056 <Set_RISAF_Default+0x176>
70100fe6:	f103 2310 	add.w	r3, r3, #268439552	@ 0x10001000
70100fea:	4298      	cmp	r0, r3
70100fec:	d033      	beq.n	70101056 <Set_RISAF_Default+0x176>
70100fee:	f103 4370 	add.w	r3, r3, #4026531840	@ 0xf0000000
70100ff2:	4298      	cmp	r0, r3
70100ff4:	d02f      	beq.n	70101056 <Set_RISAF_Default+0x176>
70100ff6:	f103 2310 	add.w	r3, r3, #268439552	@ 0x10001000
70100ffa:	4298      	cmp	r0, r3
70100ffc:	d02e      	beq.n	7010105c <Set_RISAF_Default+0x17c>
70100ffe:	f103 4370 	add.w	r3, r3, #4026531840	@ 0xf0000000
70101002:	4298      	cmp	r0, r3
70101004:	d02a      	beq.n	7010105c <Set_RISAF_Default+0x17c>
70101006:	2300      	movs	r3, #0
70101008:	2600      	movs	r6, #0
7010100a:	2501      	movs	r5, #1
7010100c:	9307      	str	r3, [sp, #28]
7010100e:	23ff      	movs	r3, #255	@ 0xff
70101010:	4631      	mov	r1, r6
70101012:	4620      	mov	r0, r4
70101014:	aa01      	add	r2, sp, #4
70101016:	e9cd 6303 	strd	r6, r3, [sp, #12]
7010101a:	9305      	str	r3, [sp, #20]
7010101c:	9501      	str	r5, [sp, #4]
7010101e:	9502      	str	r5, [sp, #8]
70101020:	f004 fd31 	bl	70105a86 <HAL_RIF_RISAF_ConfigBaseRegion>
70101024:	4629      	mov	r1, r5
70101026:	4620      	mov	r0, r4
70101028:	aa01      	add	r2, sp, #4
7010102a:	9602      	str	r6, [sp, #8]
7010102c:	f004 fd2b 	bl	70105a86 <HAL_RIF_RISAF_ConfigBaseRegion>
70101030:	b008      	add	sp, #32
70101032:	bd70      	pop	{r4, r5, r6, pc}
70101034:	f06f 4340 	mvn.w	r3, #3221225472	@ 0xc0000000
70101038:	e7e6      	b.n	70101008 <Set_RISAF_Default+0x128>
7010103a:	4b0c      	ldr	r3, [pc, #48]	@ (7010106c <Set_RISAF_Default+0x18c>)
7010103c:	e7e4      	b.n	70101008 <Set_RISAF_Default+0x128>
7010103e:	f04f 33ff 	mov.w	r3, #4294967295
70101042:	e7e1      	b.n	70101008 <Set_RISAF_Default+0x128>
70101044:	4b0a      	ldr	r3, [pc, #40]	@ (70101070 <Set_RISAF_Default+0x190>)
70101046:	e7df      	b.n	70101008 <Set_RISAF_Default+0x128>
70101048:	4b0a      	ldr	r3, [pc, #40]	@ (70101074 <Set_RISAF_Default+0x194>)
7010104a:	e7dd      	b.n	70101008 <Set_RISAF_Default+0x128>
7010104c:	4b0a      	ldr	r3, [pc, #40]	@ (70101078 <Set_RISAF_Default+0x198>)
7010104e:	e7db      	b.n	70101008 <Set_RISAF_Default+0x128>
70101050:	f06f 4370 	mvn.w	r3, #4026531840	@ 0xf0000000
70101054:	e7d8      	b.n	70101008 <Set_RISAF_Default+0x128>
70101056:	f641 73ff 	movw	r3, #8191	@ 0x1fff
7010105a:	e7d5      	b.n	70101008 <Set_RISAF_Default+0x128>
7010105c:	f640 73ff 	movw	r3, #4095	@ 0xfff
70101060:	e7d2      	b.n	70101008 <Set_RISAF_Default+0x128>
70101062:	bf00      	nop
70101064:	54026000 	.word	0x54026000
70101068:	54030000 	.word	0x54030000
7010106c:	000fffff 	.word	0x000fffff
70101070:	0007ffff 	.word	0x0007ffff
70101074:	0003ffff 	.word	0x0003ffff
70101078:	0001ffff 	.word	0x0001ffff

7010107c <Set_CLK_Sleep_Mode>:
7010107c:	b510      	push	{r4, lr}
7010107e:	2401      	movs	r4, #1
70101080:	2108      	movs	r1, #8
70101082:	4a2b      	ldr	r2, [pc, #172]	@ (70101130 <Set_CLK_Sleep_Mode+0xb4>)
70101084:	b086      	sub	sp, #24
70101086:	f8c2 4a88 	str.w	r4, [r2, #2696]	@ 0xa88
7010108a:	f8d2 3288 	ldr.w	r3, [r2, #648]	@ 0x288
7010108e:	2080      	movs	r0, #128	@ 0x80
70101090:	9305      	str	r3, [sp, #20]
70101092:	9b05      	ldr	r3, [sp, #20]
70101094:	f8c2 1a88 	str.w	r1, [r2, #2696]	@ 0xa88
70101098:	f8d2 3288 	ldr.w	r3, [r2, #648]	@ 0x288
7010109c:	9304      	str	r3, [sp, #16]
7010109e:	9b04      	ldr	r3, [sp, #16]
701010a0:	f7ff ff06 	bl	70100eb0 <LL_MEM_EnableClockLowPower>
701010a4:	f44f 7080 	mov.w	r0, #256	@ 0x100
701010a8:	f7ff ff02 	bl	70100eb0 <LL_MEM_EnableClockLowPower>
701010ac:	4620      	mov	r0, r4
701010ae:	f7ff feff 	bl	70100eb0 <LL_MEM_EnableClockLowPower>
701010b2:	2002      	movs	r0, #2
701010b4:	f7ff fefc 	bl	70100eb0 <LL_MEM_EnableClockLowPower>
701010b8:	2004      	movs	r0, #4
701010ba:	f7ff fef9 	bl	70100eb0 <LL_MEM_EnableClockLowPower>
701010be:	4608      	mov	r0, r1
701010c0:	f7ff fef6 	bl	70100eb0 <LL_MEM_EnableClockLowPower>
701010c4:	f44f 7000 	mov.w	r0, #512	@ 0x200
701010c8:	f7ff fef2 	bl	70100eb0 <LL_MEM_EnableClockLowPower>
701010cc:	f44f 6080 	mov.w	r0, #1024	@ 0x400
701010d0:	f7ff feee 	bl	70100eb0 <LL_MEM_EnableClockLowPower>
701010d4:	f44f 7300 	mov.w	r3, #512	@ 0x200
701010d8:	f8c2 3a98 	str.w	r3, [r2, #2712]	@ 0xa98
701010dc:	f8d2 3298 	ldr.w	r3, [r2, #664]	@ 0x298
701010e0:	9303      	str	r3, [sp, #12]
701010e2:	9b03      	ldr	r3, [sp, #12]
701010e4:	f44f 4380 	mov.w	r3, #16384	@ 0x4000
701010e8:	f8c2 3a98 	str.w	r3, [r2, #2712]	@ 0xa98
701010ec:	f8d2 3298 	ldr.w	r3, [r2, #664]	@ 0x298
701010f0:	9302      	str	r3, [sp, #8]
701010f2:	9b02      	ldr	r3, [sp, #8]
701010f4:	f8c2 0a98 	str.w	r0, [r2, #2712]	@ 0xa98
701010f8:	f8d2 3298 	ldr.w	r3, [r2, #664]	@ 0x298
701010fc:	2020      	movs	r0, #32
701010fe:	9301      	str	r3, [sp, #4]
70101100:	9b01      	ldr	r3, [sp, #4]
70101102:	f7ff fee1 	bl	70100ec8 <LL_AHB5_GRP1_EnableClockLowPower>
70101106:	f44f 5080 	mov.w	r0, #4096	@ 0x1000
7010110a:	f7ff fedd 	bl	70100ec8 <LL_AHB5_GRP1_EnableClockLowPower>
7010110e:	f04f 4080 	mov.w	r0, #1073741824	@ 0x40000000
70101112:	f7ff fed9 	bl	70100ec8 <LL_AHB5_GRP1_EnableClockLowPower>
70101116:	f04f 4000 	mov.w	r0, #2147483648	@ 0x80000000
7010111a:	f7ff fed5 	bl	70100ec8 <LL_AHB5_GRP1_EnableClockLowPower>
7010111e:	2310      	movs	r3, #16
70101120:	f8c2 3aac 	str.w	r3, [r2, #2732]	@ 0xaac
70101124:	f8d2 32ac 	ldr.w	r3, [r2, #684]	@ 0x2ac
70101128:	9300      	str	r3, [sp, #0]
7010112a:	9b00      	ldr	r3, [sp, #0]
7010112c:	b006      	add	sp, #24
7010112e:	bd10      	pop	{r4, pc}
70101130:	56028000 	.word	0x56028000

70101134 <NPU_Config>:
70101134:	b51f      	push	{r0, r1, r2, r3, r4, lr}
70101136:	f04f 4200 	mov.w	r2, #2147483648	@ 0x80000000
7010113a:	4b14      	ldr	r3, [pc, #80]	@ (7010118c <NPU_Config+0x58>)
7010113c:	2403      	movs	r4, #3
7010113e:	f8c3 2a60 	str.w	r2, [r3, #2656]	@ 0xa60
70101142:	f8d3 1260 	ldr.w	r1, [r3, #608]	@ 0x260
70101146:	9101      	str	r1, [sp, #4]
70101148:	9901      	ldr	r1, [sp, #4]
7010114a:	f503 5180 	add.w	r1, r3, #4096	@ 0x1000
7010114e:	f8c3 2a20 	str.w	r2, [r3, #2592]	@ 0xa20
70101152:	f8c1 2220 	str.w	r2, [r1, #544]	@ 0x220
70101156:	f04f 4280 	mov.w	r2, #1073741824	@ 0x40000000
7010115a:	f8c3 2a60 	str.w	r2, [r3, #2656]	@ 0xa60
7010115e:	f8d3 0260 	ldr.w	r0, [r3, #608]	@ 0x260
70101162:	9000      	str	r0, [sp, #0]
70101164:	9800      	ldr	r0, [sp, #0]
70101166:	f8c3 2a20 	str.w	r2, [r3, #2592]	@ 0xa20
7010116a:	f8c1 2220 	str.w	r2, [r1, #544]	@ 0x220
7010116e:	f7ff fe6b 	bl	70100e48 <npu_cache_enable>
70101172:	2302      	movs	r3, #2
70101174:	a902      	add	r1, sp, #8
70101176:	2001      	movs	r0, #1
70101178:	e9cd 3402 	strd	r3, r4, [sp, #8]
7010117c:	f004 fc44 	bl	70105a08 <HAL_RIF_RIMC_ConfigMasterAttributes>
70101180:	4621      	mov	r1, r4
70101182:	4803      	ldr	r0, [pc, #12]	@ (70101190 <NPU_Config+0x5c>)
70101184:	f004 fc56 	bl	70105a34 <HAL_RIF_RISC_SetSlaveSecureAttributes>
70101188:	b004      	add	sp, #16
7010118a:	bd10      	pop	{r4, pc}
7010118c:	56028000 	.word	0x56028000
70101190:	3000000a 	.word	0x3000000a

70101194 <RISAF_Config>:
70101194:	b508      	push	{r3, lr}
70101196:	480e      	ldr	r0, [pc, #56]	@ (701011d0 <RISAF_Config+0x3c>)
70101198:	f7ff fea2 	bl	70100ee0 <Set_RISAF_Default>
7010119c:	480d      	ldr	r0, [pc, #52]	@ (701011d4 <RISAF_Config+0x40>)
7010119e:	f7ff fe9f 	bl	70100ee0 <Set_RISAF_Default>
701011a2:	480d      	ldr	r0, [pc, #52]	@ (701011d8 <RISAF_Config+0x44>)
701011a4:	f7ff fe9c 	bl	70100ee0 <Set_RISAF_Default>
701011a8:	480c      	ldr	r0, [pc, #48]	@ (701011dc <RISAF_Config+0x48>)
701011aa:	f7ff fe99 	bl	70100ee0 <Set_RISAF_Default>
701011ae:	480c      	ldr	r0, [pc, #48]	@ (701011e0 <RISAF_Config+0x4c>)
701011b0:	f7ff fe96 	bl	70100ee0 <Set_RISAF_Default>
701011b4:	480b      	ldr	r0, [pc, #44]	@ (701011e4 <RISAF_Config+0x50>)
701011b6:	f7ff fe93 	bl	70100ee0 <Set_RISAF_Default>
701011ba:	480b      	ldr	r0, [pc, #44]	@ (701011e8 <RISAF_Config+0x54>)
701011bc:	f7ff fe90 	bl	70100ee0 <Set_RISAF_Default>
701011c0:	480a      	ldr	r0, [pc, #40]	@ (701011ec <RISAF_Config+0x58>)
701011c2:	f7ff fe8d 	bl	70100ee0 <Set_RISAF_Default>
701011c6:	e8bd 4008 	ldmia.w	sp!, {r3, lr}
701011ca:	4809      	ldr	r0, [pc, #36]	@ (701011f0 <RISAF_Config+0x5c>)
701011cc:	f7ff be88 	b.w	70100ee0 <Set_RISAF_Default>
701011d0:	54027000 	.word	0x54027000
701011d4:	54028000 	.word	0x54028000
701011d8:	54029000 	.word	0x54029000
701011dc:	5402a000 	.word	0x5402a000
701011e0:	5402b000 	.word	0x5402b000
701011e4:	5402c000 	.word	0x5402c000
701011e8:	5402d000 	.word	0x5402d000
701011ec:	54034000 	.word	0x54034000
701011f0:	54031000 	.word	0x54031000

701011f4 <SystemInit_POST>:
701011f4:	b507      	push	{r0, r1, r2, lr}
701011f6:	2201      	movs	r2, #1
701011f8:	4b20      	ldr	r3, [pc, #128]	@ (7010127c <SystemInit_POST+0x88>)
701011fa:	f8c3 2a78 	str.w	r2, [r3, #2680]	@ 0xa78
701011fe:	f8d3 2278 	ldr.w	r2, [r3, #632]	@ 0x278
70101202:	9201      	str	r2, [sp, #4]
70101204:	9a01      	ldr	r2, [sp, #4]
70101206:	f44f 2200 	mov.w	r2, #524288	@ 0x80000
7010120a:	f8c3 2a5c 	str.w	r2, [r3, #2652]	@ 0xa5c
7010120e:	f8d3 225c 	ldr.w	r2, [r3, #604]	@ 0x25c
70101212:	9200      	str	r2, [sp, #0]
70101214:	9a00      	ldr	r2, [sp, #0]
70101216:	f8d3 224c 	ldr.w	r2, [r3, #588]	@ 0x24c
7010121a:	f042 020f 	orr.w	r2, r2, #15
7010121e:	f8c3 224c 	str.w	r2, [r3, #588]	@ 0x24c
70101222:	f8d3 224c 	ldr.w	r2, [r3, #588]	@ 0x24c
70101226:	f442 6280 	orr.w	r2, r2, #1024	@ 0x400
7010122a:	f8c3 224c 	str.w	r2, [r3, #588]	@ 0x24c
7010122e:	4a14      	ldr	r2, [pc, #80]	@ (70101280 <SystemInit_POST+0x8c>)
70101230:	f8d2 3080 	ldr.w	r3, [r2, #128]	@ 0x80
70101234:	f423 1380 	bic.w	r3, r3, #1048576	@ 0x100000
70101238:	f8c2 3080 	str.w	r3, [r2, #128]	@ 0x80
7010123c:	4b11      	ldr	r3, [pc, #68]	@ (70101284 <SystemInit_POST+0x90>)
7010123e:	681a      	ldr	r2, [r3, #0]
70101240:	f422 1280 	bic.w	r2, r2, #1048576	@ 0x100000
70101244:	601a      	str	r2, [r3, #0]
70101246:	f8d3 2080 	ldr.w	r2, [r3, #128]	@ 0x80
7010124a:	f422 1280 	bic.w	r2, r2, #1048576	@ 0x100000
7010124e:	f8c3 2080 	str.w	r2, [r3, #128]	@ 0x80
70101252:	f8d3 2100 	ldr.w	r2, [r3, #256]	@ 0x100
70101256:	f422 1280 	bic.w	r2, r2, #1048576	@ 0x100000
7010125a:	f8c3 2100 	str.w	r2, [r3, #256]	@ 0x100
7010125e:	f8d3 2180 	ldr.w	r2, [r3, #384]	@ 0x180
70101262:	f422 1280 	bic.w	r2, r2, #1048576	@ 0x100000
70101266:	f8c3 2180 	str.w	r2, [r3, #384]	@ 0x180
7010126a:	f7ff ff07 	bl	7010107c <Set_CLK_Sleep_Mode>
7010126e:	4a06      	ldr	r2, [pc, #24]	@ (70101288 <SystemInit_POST+0x94>)
70101270:	6813      	ldr	r3, [r2, #0]
70101272:	f443 5340 	orr.w	r3, r3, #12288	@ 0x3000
70101276:	6013      	str	r3, [r2, #0]
70101278:	b003      	add	sp, #12
7010127a:	bd00      	pop	{pc}
7010127c:	56028000 	.word	0x56028000
70101280:	52023000 	.word	0x52023000
70101284:	52023100 	.word	0x52023100
70101288:	e001e000 	.word	0xe001e000

7010128c <aiPreInitialize>:
7010128c:	b508      	push	{r3, lr}
7010128e:	f7ff ffb1 	bl	701011f4 <SystemInit_POST>
70101292:	f7ff ff4f 	bl	70101134 <NPU_Config>
70101296:	e8bd 4008 	ldmia.w	sp!, {r3, lr}
7010129a:	f7ff bf7b 	b.w	70101194 <RISAF_Config>

7010129e <__ll_aton_stai_check_context_network_handle.constprop.0>:
7010129e:	b140      	cbz	r0, 701012b2 <__ll_aton_stai_check_context_network_handle.constprop.0+0x14>
701012a0:	6803      	ldr	r3, [r0, #0]
701012a2:	b94b      	cbnz	r3, 701012b8 <__ll_aton_stai_check_context_network_handle.constprop.0+0x1a>
701012a4:	6bc3      	ldr	r3, [r0, #60]	@ 0x3c
701012a6:	f5b3 3f00 	cmp.w	r3, #131072	@ 0x20000
701012aa:	bf3c      	itt	cc
701012ac:	f44f 3340 	movcc.w	r3, #196608	@ 0x30000
701012b0:	63c3      	strcc	r3, [r0, #60]	@ 0x3c
701012b2:	f44f 3040 	mov.w	r0, #196608	@ 0x30000
701012b6:	4770      	bx	lr
701012b8:	2000      	movs	r0, #0
701012ba:	600b      	str	r3, [r1, #0]
701012bc:	4770      	bx	lr
	...

701012c0 <stai_network_init>:
701012c0:	b510      	push	{r4, lr}
701012c2:	b140      	cbz	r0, 701012d6 <stai_network_init+0x16>
701012c4:	6804      	ldr	r4, [r0, #0]
701012c6:	b14c      	cbz	r4, 701012dc <stai_network_init+0x1c>
701012c8:	6bc2      	ldr	r2, [r0, #60]	@ 0x3c
701012ca:	f5b2 3f00 	cmp.w	r2, #131072	@ 0x20000
701012ce:	bf3c      	itt	cc
701012d0:	f44f 3240 	movcc.w	r2, #196608	@ 0x30000
701012d4:	63c2      	strcc	r2, [r0, #60]	@ 0x3c
701012d6:	f44f 3040 	mov.w	r0, #196608	@ 0x30000
701012da:	bd10      	pop	{r4, pc}
701012dc:	4a03      	ldr	r2, [pc, #12]	@ (701012ec <stai_network_init+0x2c>)
701012de:	e9c0 440e 	strd	r4, r4, [r0, #56]	@ 0x38
701012e2:	6002      	str	r2, [r0, #0]
701012e4:	f006 fe8c 	bl	70108000 <__ll_aton_stai_init_network_instance>
701012e8:	4620      	mov	r0, r4
701012ea:	e7f6      	b.n	701012da <stai_network_init+0x1a>
701012ec:	7010f904 	.word	0x7010f904

701012f0 <stai_network_deinit>:
701012f0:	2300      	movs	r3, #0
701012f2:	b537      	push	{r0, r1, r2, r4, r5, lr}
701012f4:	a901      	add	r1, sp, #4
701012f6:	4604      	mov	r4, r0
701012f8:	9301      	str	r3, [sp, #4]
701012fa:	f7ff ffd0 	bl	7010129e <__ll_aton_stai_check_context_network_handle.constprop.0>
701012fe:	f5b0 3f00 	cmp.w	r0, #131072	@ 0x20000
70101302:	d20b      	bcs.n	7010131c <stai_network_deinit+0x2c>
70101304:	4b16      	ldr	r3, [pc, #88]	@ (70101360 <stai_network_deinit+0x70>)
70101306:	9a01      	ldr	r2, [sp, #4]
70101308:	429a      	cmp	r2, r3
7010130a:	d00b      	beq.n	70101324 <stai_network_deinit+0x34>
7010130c:	b134      	cbz	r4, 7010131c <stai_network_deinit+0x2c>
7010130e:	6be3      	ldr	r3, [r4, #60]	@ 0x3c
70101310:	f5b3 3f00 	cmp.w	r3, #131072	@ 0x20000
70101314:	bf3c      	itt	cc
70101316:	f44f 3340 	movcc.w	r3, #196608	@ 0x30000
7010131a:	63e3      	strcc	r3, [r4, #60]	@ 0x3c
7010131c:	f44f 3040 	mov.w	r0, #196608	@ 0x30000
70101320:	b003      	add	sp, #12
70101322:	bd30      	pop	{r4, r5, pc}
70101324:	6ba3      	ldr	r3, [r4, #56]	@ 0x38
70101326:	2b12      	cmp	r3, #18
70101328:	d00a      	beq.n	70101340 <stai_network_deinit+0x50>
7010132a:	b14b      	cbz	r3, 70101340 <stai_network_deinit+0x50>
7010132c:	6be3      	ldr	r3, [r4, #60]	@ 0x3c
7010132e:	f44f 20a0 	mov.w	r0, #327680	@ 0x50000
70101332:	f5b3 3f00 	cmp.w	r3, #131072	@ 0x20000
70101336:	bf3c      	itt	cc
70101338:	f44f 23a0 	movcc.w	r3, #327680	@ 0x50000
7010133c:	63e3      	strcc	r3, [r4, #60]	@ 0x3c
7010133e:	e7ef      	b.n	70101320 <stai_network_deinit+0x30>
70101340:	2500      	movs	r5, #0
70101342:	4620      	mov	r0, r4
70101344:	f006 fe5e 	bl	70108004 <__ll_aton_stai_deinit_network_instance>
70101348:	4620      	mov	r0, r4
7010134a:	4629      	mov	r1, r5
7010134c:	e9c4 550c 	strd	r5, r5, [r4, #48]	@ 0x30
70101350:	6025      	str	r5, [r4, #0]
70101352:	f006 fb27 	bl	701079a4 <LL_ATON_RT_SetNetworkCallback>
70101356:	4628      	mov	r0, r5
70101358:	e9c4 550e 	strd	r5, r5, [r4, #56]	@ 0x38
7010135c:	e7e0      	b.n	70101320 <stai_network_deinit+0x30>
7010135e:	bf00      	nop
70101360:	7010f904 	.word	0x7010f904

70101364 <stai_network_run>:
70101364:	2300      	movs	r3, #0
70101366:	b513      	push	{r0, r1, r4, lr}
70101368:	460c      	mov	r4, r1
7010136a:	a901      	add	r1, sp, #4
7010136c:	4602      	mov	r2, r0
7010136e:	9301      	str	r3, [sp, #4]
70101370:	f7ff ff95 	bl	7010129e <__ll_aton_stai_check_context_network_handle.constprop.0>
70101374:	f5b0 3f00 	cmp.w	r0, #131072	@ 0x20000
70101378:	d20b      	bcs.n	70101392 <stai_network_run+0x2e>
7010137a:	4b0b      	ldr	r3, [pc, #44]	@ (701013a8 <stai_network_run+0x44>)
7010137c:	9901      	ldr	r1, [sp, #4]
7010137e:	4299      	cmp	r1, r3
70101380:	d00b      	beq.n	7010139a <stai_network_run+0x36>
70101382:	b132      	cbz	r2, 70101392 <stai_network_run+0x2e>
70101384:	6bd3      	ldr	r3, [r2, #60]	@ 0x3c
70101386:	f5b3 3f00 	cmp.w	r3, #131072	@ 0x20000
7010138a:	d202      	bcs.n	70101392 <stai_network_run+0x2e>
7010138c:	f44f 3340 	mov.w	r3, #196608	@ 0x30000
70101390:	63d3      	str	r3, [r2, #60]	@ 0x3c
70101392:	f44f 3040 	mov.w	r0, #196608	@ 0x30000
70101396:	b002      	add	sp, #8
70101398:	bd10      	pop	{r4, pc}
7010139a:	4621      	mov	r1, r4
7010139c:	4610      	mov	r0, r2
7010139e:	b002      	add	sp, #8
701013a0:	e8bd 4010 	ldmia.w	sp!, {r4, lr}
701013a4:	f006 be62 	b.w	7010806c <__ll_aton_stai_run>
701013a8:	7010f904 	.word	0x7010f904

701013ac <stai_network_set_callback>:
701013ac:	b510      	push	{r4, lr}
701013ae:	b158      	cbz	r0, 701013c8 <stai_network_set_callback+0x1c>
701013b0:	6803      	ldr	r3, [r0, #0]
701013b2:	b163      	cbz	r3, 701013ce <stai_network_set_callback+0x22>
701013b4:	4c0a      	ldr	r4, [pc, #40]	@ (701013e0 <stai_network_set_callback+0x34>)
701013b6:	42a3      	cmp	r3, r4
701013b8:	d009      	beq.n	701013ce <stai_network_set_callback+0x22>
701013ba:	6bc3      	ldr	r3, [r0, #60]	@ 0x3c
701013bc:	f5b3 3f00 	cmp.w	r3, #131072	@ 0x20000
701013c0:	bf3c      	itt	cc
701013c2:	f44f 3340 	movcc.w	r3, #196608	@ 0x30000
701013c6:	63c3      	strcc	r3, [r0, #60]	@ 0x3c
701013c8:	f44f 3040 	mov.w	r0, #196608	@ 0x30000
701013cc:	bd10      	pop	{r4, pc}
701013ce:	e9c0 120c 	strd	r1, r2, [r0, #48]	@ 0x30
701013d2:	b101      	cbz	r1, 701013d6 <stai_network_set_callback+0x2a>
701013d4:	4903      	ldr	r1, [pc, #12]	@ (701013e4 <stai_network_set_callback+0x38>)
701013d6:	f006 fae5 	bl	701079a4 <LL_ATON_RT_SetNetworkCallback>
701013da:	2000      	movs	r0, #0
701013dc:	e7f6      	b.n	701013cc <stai_network_set_callback+0x20>
701013de:	bf00      	nop
701013e0:	7010f904 	.word	0x7010f904
701013e4:	70107f6d 	.word	0x70107f6d

701013e8 <stai_ext_network_run_continue>:
701013e8:	b513      	push	{r0, r1, r4, lr}
701013ea:	4604      	mov	r4, r0
701013ec:	b190      	cbz	r0, 70101414 <stai_ext_network_run_continue+0x2c>
701013ee:	2300      	movs	r3, #0
701013f0:	a901      	add	r1, sp, #4
701013f2:	9301      	str	r3, [sp, #4]
701013f4:	f7ff ff53 	bl	7010129e <__ll_aton_stai_check_context_network_handle.constprop.0>
701013f8:	f5b0 3f00 	cmp.w	r0, #131072	@ 0x20000
701013fc:	d20a      	bcs.n	70101414 <stai_ext_network_run_continue+0x2c>
701013fe:	4b12      	ldr	r3, [pc, #72]	@ (70101448 <stai_ext_network_run_continue+0x60>)
70101400:	9a01      	ldr	r2, [sp, #4]
70101402:	429a      	cmp	r2, r3
70101404:	d00a      	beq.n	7010141c <stai_ext_network_run_continue+0x34>
70101406:	6be3      	ldr	r3, [r4, #60]	@ 0x3c
70101408:	f5b3 3f00 	cmp.w	r3, #131072	@ 0x20000
7010140c:	bf3c      	itt	cc
7010140e:	f44f 3340 	movcc.w	r3, #196608	@ 0x30000
70101412:	63e3      	strcc	r3, [r4, #60]	@ 0x3c
70101414:	f44f 3040 	mov.w	r0, #196608	@ 0x30000
70101418:	b002      	add	sp, #8
7010141a:	bd10      	pop	{r4, pc}
7010141c:	6863      	ldr	r3, [r4, #4]
7010141e:	b93b      	cbnz	r3, 70101430 <stai_ext_network_run_continue+0x48>
70101420:	6be3      	ldr	r3, [r4, #60]	@ 0x3c
70101422:	480a      	ldr	r0, [pc, #40]	@ (7010144c <stai_ext_network_run_continue+0x64>)
70101424:	f5b3 3f00 	cmp.w	r3, #131072	@ 0x20000
70101428:	bf3c      	itt	cc
7010142a:	4b08      	ldrcc	r3, [pc, #32]	@ (7010144c <stai_ext_network_run_continue+0x64>)
7010142c:	63e3      	strcc	r3, [r4, #60]	@ 0x3c
7010142e:	e7f3      	b.n	70101418 <stai_ext_network_run_continue+0x30>
70101430:	4620      	mov	r0, r4
70101432:	f006 fb91 	bl	70107b58 <LL_ATON_RT_RunEpochBlock>
70101436:	4621      	mov	r1, r4
70101438:	f006 fde6 	bl	70108008 <__ll_aton_stai_set_execution_status>
7010143c:	4620      	mov	r0, r4
7010143e:	b002      	add	sp, #8
70101440:	e8bd 4010 	ldmia.w	sp!, {r4, lr}
70101444:	f006 bdec 	b.w	70108020 <__ll_aton_stai_get_execution_status>
70101448:	7010f904 	.word	0x7010f904
7010144c:	00020001 	.word	0x00020001

70101450 <stai_ext_network_new_inference>:
70101450:	f006 bde8 	b.w	70108024 <__ll_aton_stai_reset>

70101454 <LL_AHB4_GRP1_EnableClock>:
70101454:	4b04      	ldr	r3, [pc, #16]	@ (70101468 <LL_AHB4_GRP1_EnableClock+0x14>)
70101456:	b082      	sub	sp, #8
70101458:	f8c3 0a5c 	str.w	r0, [r3, #2652]	@ 0xa5c
7010145c:	f8d3 325c 	ldr.w	r3, [r3, #604]	@ 0x25c
70101460:	9301      	str	r3, [sp, #4]
70101462:	9b01      	ldr	r3, [sp, #4]
70101464:	b002      	add	sp, #8
70101466:	4770      	bx	lr
70101468:	56028000 	.word	0x56028000

7010146c <main>:
7010146c:	b5bf      	push	{r0, r1, r2, r3, r4, r5, r7, lr}
7010146e:	4b9c      	ldr	r3, [pc, #624]	@ (701016e0 <main+0x274>)
70101470:	695a      	ldr	r2, [r3, #20]
70101472:	f412 3200 	ands.w	r2, r2, #131072	@ 0x20000
70101476:	d111      	bne.n	7010149c <main+0x30>
70101478:	f3bf 8f4f 	dsb	sy
7010147c:	f3bf 8f6f 	isb	sy
70101480:	f8c3 2250 	str.w	r2, [r3, #592]	@ 0x250
70101484:	f3bf 8f4f 	dsb	sy
70101488:	f3bf 8f6f 	isb	sy
7010148c:	695a      	ldr	r2, [r3, #20]
7010148e:	f442 3200 	orr.w	r2, r2, #131072	@ 0x20000
70101492:	615a      	str	r2, [r3, #20]
70101494:	f3bf 8f4f 	dsb	sy
70101498:	f3bf 8f6f 	isb	sy
7010149c:	4a90      	ldr	r2, [pc, #576]	@ (701016e0 <main+0x274>)
7010149e:	6953      	ldr	r3, [r2, #20]
701014a0:	f413 3380 	ands.w	r3, r3, #65536	@ 0x10000
701014a4:	d128      	bne.n	701014f8 <main+0x8c>
701014a6:	f8c2 3084 	str.w	r3, [r2, #132]	@ 0x84
701014aa:	f3bf 8f4f 	dsb	sy
701014ae:	f643 74e0 	movw	r4, #16352	@ 0x3fe0
701014b2:	f8d2 3080 	ldr.w	r3, [r2, #128]	@ 0x80
701014b6:	f3c3 00c9 	ubfx	r0, r3, #3, #10
701014ba:	f3c3 334e 	ubfx	r3, r3, #13, #15
701014be:	015b      	lsls	r3, r3, #5
701014c0:	f100 0e01 	add.w	lr, r0, #1
701014c4:	4601      	mov	r1, r0
701014c6:	f04e e001 	dls	lr, lr
701014ca:	ea03 0604 	and.w	r6, r3, r4
701014ce:	ea46 7581 	orr.w	r5, r6, r1, lsl #30
701014d2:	f8c2 5260 	str.w	r5, [r2, #608]	@ 0x260
701014d6:	3901      	subs	r1, #1
701014d8:	f00f c807 	le	lr, 701014ce <main+0x62>
701014dc:	3b20      	subs	r3, #32
701014de:	f113 0f20 	cmn.w	r3, #32
701014e2:	d1ed      	bne.n	701014c0 <main+0x54>
701014e4:	f3bf 8f4f 	dsb	sy
701014e8:	6953      	ldr	r3, [r2, #20]
701014ea:	f443 3380 	orr.w	r3, r3, #65536	@ 0x10000
701014ee:	6153      	str	r3, [r2, #20]
701014f0:	f3bf 8f4f 	dsb	sy
701014f4:	f3bf 8f6f 	isb	sy
701014f8:	2400      	movs	r4, #0
701014fa:	f04f 0904 	mov.w	r9, #4
701014fe:	2501      	movs	r5, #1
70101500:	f44f 6880 	mov.w	r8, #1024	@ 0x400
70101504:	2620      	movs	r6, #32
70101506:	f000 fbb3 	bl	70101c70 <HAL_Init>
7010150a:	2214      	movs	r2, #20
7010150c:	2100      	movs	r1, #0
7010150e:	a801      	add	r0, sp, #4
70101510:	f00a fa98 	bl	7010ba44 <memset>
70101514:	2008      	movs	r0, #8
70101516:	f7ff ff9d 	bl	70101454 <LL_AHB4_GRP1_EnableClock>
7010151a:	2010      	movs	r0, #16
7010151c:	f7ff ff9a 	bl	70101454 <LL_AHB4_GRP1_EnableClock>
70101520:	f44f 4080 	mov.w	r0, #16384	@ 0x4000
70101524:	f7ff ff96 	bl	70101454 <LL_AHB4_GRP1_EnableClock>
70101528:	2001      	movs	r0, #1
7010152a:	f7ff ff93 	bl	70101454 <LL_AHB4_GRP1_EnableClock>
7010152e:	f44f 5000 	mov.w	r0, #8192	@ 0x2000
70101532:	f7ff ff8f 	bl	70101454 <LL_AHB4_GRP1_EnableClock>
70101536:	2200      	movs	r2, #0
70101538:	f44f 6180 	mov.w	r1, #1024	@ 0x400
7010153c:	4869      	ldr	r0, [pc, #420]	@ (701016e4 <main+0x278>)
7010153e:	f000 fd95 	bl	7010206c <HAL_GPIO_WritePin>
70101542:	2200      	movs	r2, #0
70101544:	2120      	movs	r1, #32
70101546:	4868      	ldr	r0, [pc, #416]	@ (701016e8 <main+0x27c>)
70101548:	f000 fd90 	bl	7010206c <HAL_GPIO_WritePin>
7010154c:	2200      	movs	r2, #0
7010154e:	21a0      	movs	r1, #160	@ 0xa0
70101550:	4866      	ldr	r0, [pc, #408]	@ (701016ec <main+0x280>)
70101552:	f000 fd8b 	bl	7010206c <HAL_GPIO_WritePin>
70101556:	2200      	movs	r2, #0
70101558:	2180      	movs	r1, #128	@ 0x80
7010155a:	4865      	ldr	r0, [pc, #404]	@ (701016f0 <main+0x284>)
7010155c:	f000 fd86 	bl	7010206c <HAL_GPIO_WritePin>
70101560:	4860      	ldr	r0, [pc, #384]	@ (701016e4 <main+0x278>)
70101562:	a901      	add	r1, sp, #4
70101564:	e9cd 8501 	strd	r8, r5, [sp, #4]
70101568:	e9cd 4403 	strd	r4, r4, [sp, #12]
7010156c:	f000 fc9a 	bl	70101ea4 <HAL_GPIO_Init>
70101570:	485c      	ldr	r0, [pc, #368]	@ (701016e4 <main+0x278>)
70101572:	eb0d 0109 	add.w	r1, sp, r9
70101576:	e9cd 9401 	strd	r9, r4, [sp, #4]
7010157a:	9403      	str	r4, [sp, #12]
7010157c:	f000 fc92 	bl	70101ea4 <HAL_GPIO_Init>
70101580:	4859      	ldr	r0, [pc, #356]	@ (701016e8 <main+0x27c>)
70101582:	eb0d 0109 	add.w	r1, sp, r9
70101586:	e9cd 6501 	strd	r6, r5, [sp, #4]
7010158a:	e9cd 4403 	strd	r4, r4, [sp, #12]
7010158e:	f000 fc89 	bl	70101ea4 <HAL_GPIO_Init>
70101592:	23a0      	movs	r3, #160	@ 0xa0
70101594:	2780      	movs	r7, #128	@ 0x80
70101596:	4855      	ldr	r0, [pc, #340]	@ (701016ec <main+0x280>)
70101598:	eb0d 0109 	add.w	r1, sp, r9
7010159c:	e9cd 3501 	strd	r3, r5, [sp, #4]
701015a0:	e9cd 4403 	strd	r4, r4, [sp, #12]
701015a4:	f000 fc7e 	bl	70101ea4 <HAL_GPIO_Init>
701015a8:	4851      	ldr	r0, [pc, #324]	@ (701016f0 <main+0x284>)
701015aa:	eb0d 0109 	add.w	r1, sp, r9
701015ae:	e9cd 7501 	strd	r7, r5, [sp, #4]
701015b2:	e9cd 4403 	strd	r4, r4, [sp, #12]
701015b6:	f000 fc75 	bl	70101ea4 <HAL_GPIO_Init>
701015ba:	4a4e      	ldr	r2, [pc, #312]	@ (701016f4 <main+0x288>)
701015bc:	4b4e      	ldr	r3, [pc, #312]	@ (701016f8 <main+0x28c>)
701015be:	4610      	mov	r0, r2
701015c0:	6013      	str	r3, [r2, #0]
701015c2:	f000 fbfa 	bl	70101dba <HAL_CACHEAXI_Init>
701015c6:	b108      	cbz	r0, 701015cc <main+0x160>
701015c8:	b672      	cpsid	i
701015ca:	e7fe      	b.n	701015ca <main+0x15e>
701015cc:	f44f 7400 	mov.w	r4, #512	@ 0x200
701015d0:	f04f 0a02 	mov.w	sl, #2
701015d4:	4b49      	ldr	r3, [pc, #292]	@ (701016fc <main+0x290>)
701015d6:	2006      	movs	r0, #6
701015d8:	f8c3 4a58 	str.w	r4, [r3, #2648]	@ 0xa58
701015dc:	f8d3 3258 	ldr.w	r3, [r3, #600]	@ 0x258
701015e0:	a901      	add	r1, sp, #4
701015e2:	9300      	str	r3, [sp, #0]
701015e4:	9b00      	ldr	r3, [sp, #0]
701015e6:	e9cd a501 	strd	sl, r5, [sp, #4]
701015ea:	f004 fa0d 	bl	70105a08 <HAL_RIF_RIMC_ConfigMasterAttributes>
701015ee:	f240 3201 	movw	r2, #769	@ 0x301
701015f2:	4631      	mov	r1, r6
701015f4:	483d      	ldr	r0, [pc, #244]	@ (701016ec <main+0x280>)
701015f6:	f000 fd3e 	bl	70102076 <HAL_GPIO_ConfigPinAttributes>
701015fa:	f240 3201 	movw	r2, #769	@ 0x301
701015fe:	4639      	mov	r1, r7
70101600:	483a      	ldr	r0, [pc, #232]	@ (701016ec <main+0x280>)
70101602:	f000 fd38 	bl	70102076 <HAL_GPIO_ConfigPinAttributes>
70101606:	f240 3201 	movw	r2, #769	@ 0x301
7010160a:	4641      	mov	r1, r8
7010160c:	4837      	ldr	r0, [pc, #220]	@ (701016ec <main+0x280>)
7010160e:	f000 fd32 	bl	70102076 <HAL_GPIO_ConfigPinAttributes>
70101612:	f240 3201 	movw	r2, #769	@ 0x301
70101616:	f44f 6100 	mov.w	r1, #2048	@ 0x800
7010161a:	4834      	ldr	r0, [pc, #208]	@ (701016ec <main+0x280>)
7010161c:	f000 fd2b 	bl	70102076 <HAL_GPIO_ConfigPinAttributes>
70101620:	f240 3201 	movw	r2, #769	@ 0x301
70101624:	4629      	mov	r1, r5
70101626:	4836      	ldr	r0, [pc, #216]	@ (70101700 <main+0x294>)
70101628:	f000 fd25 	bl	70102076 <HAL_GPIO_ConfigPinAttributes>
7010162c:	f240 3201 	movw	r2, #769	@ 0x301
70101630:	2108      	movs	r1, #8
70101632:	4833      	ldr	r0, [pc, #204]	@ (70101700 <main+0x294>)
70101634:	f000 fd1f 	bl	70102076 <HAL_GPIO_ConfigPinAttributes>
70101638:	f240 3201 	movw	r2, #769	@ 0x301
7010163c:	2140      	movs	r1, #64	@ 0x40
7010163e:	4830      	ldr	r0, [pc, #192]	@ (70101700 <main+0x294>)
70101640:	f000 fd19 	bl	70102076 <HAL_GPIO_ConfigPinAttributes>
70101644:	f240 3201 	movw	r2, #769	@ 0x301
70101648:	4639      	mov	r1, r7
7010164a:	482d      	ldr	r0, [pc, #180]	@ (70101700 <main+0x294>)
7010164c:	f000 fd13 	bl	70102076 <HAL_GPIO_ConfigPinAttributes>
70101650:	f240 3201 	movw	r2, #769	@ 0x301
70101654:	4641      	mov	r1, r8
70101656:	482a      	ldr	r0, [pc, #168]	@ (70101700 <main+0x294>)
70101658:	f000 fd0d 	bl	70102076 <HAL_GPIO_ConfigPinAttributes>
7010165c:	f240 3201 	movw	r2, #769	@ 0x301
70101660:	f44f 6100 	mov.w	r1, #2048	@ 0x800
70101664:	4826      	ldr	r0, [pc, #152]	@ (70101700 <main+0x294>)
70101666:	f000 fd06 	bl	70102076 <HAL_GPIO_ConfigPinAttributes>
7010166a:	f240 3201 	movw	r2, #769	@ 0x301
7010166e:	4651      	mov	r1, sl
70101670:	4824      	ldr	r0, [pc, #144]	@ (70101704 <main+0x298>)
70101672:	f000 fd00 	bl	70102076 <HAL_GPIO_ConfigPinAttributes>
70101676:	f240 3201 	movw	r2, #769	@ 0x301
7010167a:	4649      	mov	r1, r9
7010167c:	4819      	ldr	r0, [pc, #100]	@ (701016e4 <main+0x278>)
7010167e:	f000 fcfa 	bl	70102076 <HAL_GPIO_ConfigPinAttributes>
70101682:	f240 3201 	movw	r2, #769	@ 0x301
70101686:	4641      	mov	r1, r8
70101688:	4816      	ldr	r0, [pc, #88]	@ (701016e4 <main+0x278>)
7010168a:	f000 fcf4 	bl	70102076 <HAL_GPIO_ConfigPinAttributes>
7010168e:	f240 3201 	movw	r2, #769	@ 0x301
70101692:	2108      	movs	r1, #8
70101694:	481c      	ldr	r0, [pc, #112]	@ (70101708 <main+0x29c>)
70101696:	f000 fcee 	bl	70102076 <HAL_GPIO_ConfigPinAttributes>
7010169a:	f240 3201 	movw	r2, #769	@ 0x301
7010169e:	4631      	mov	r1, r6
701016a0:	4819      	ldr	r0, [pc, #100]	@ (70101708 <main+0x29c>)
701016a2:	f000 fce8 	bl	70102076 <HAL_GPIO_ConfigPinAttributes>
701016a6:	f240 3201 	movw	r2, #769	@ 0x301
701016aa:	2140      	movs	r1, #64	@ 0x40
701016ac:	4816      	ldr	r0, [pc, #88]	@ (70101708 <main+0x29c>)
701016ae:	f000 fce2 	bl	70102076 <HAL_GPIO_ConfigPinAttributes>
701016b2:	f240 3201 	movw	r2, #769	@ 0x301
701016b6:	4621      	mov	r1, r4
701016b8:	4814      	ldr	r0, [pc, #80]	@ (7010170c <main+0x2a0>)
701016ba:	f000 fcdc 	bl	70102076 <HAL_GPIO_ConfigPinAttributes>
701016be:	f240 3201 	movw	r2, #769	@ 0x301
701016c2:	4639      	mov	r1, r7
701016c4:	480a      	ldr	r0, [pc, #40]	@ (701016f0 <main+0x284>)
701016c6:	f000 fcd6 	bl	70102076 <HAL_GPIO_ConfigPinAttributes>
701016ca:	f240 3201 	movw	r2, #769	@ 0x301
701016ce:	4631      	mov	r1, r6
701016d0:	4805      	ldr	r0, [pc, #20]	@ (701016e8 <main+0x27c>)
701016d2:	f000 fcd0 	bl	70102076 <HAL_GPIO_ConfigPinAttributes>
701016d6:	f7ff fb53 	bl	70100d80 <STM32CubeAI_Studio_AI_Init>
701016da:	f7ff fb5a 	bl	70100d92 <STM32CubeAI_Studio_AI_Process>
701016de:	e7fc      	b.n	701016da <main+0x26e>
701016e0:	e000ed00 	.word	0xe000ed00
701016e4:	56020c00 	.word	0x56020c00
701016e8:	56023800 	.word	0x56023800
701016ec:	56020000 	.word	0x56020000
701016f0:	56023400 	.word	0x56023400
701016f4:	34000da0 	.word	0x34000da0
701016f8:	580dfc00 	.word	0x580dfc00
701016fc:	56028000 	.word	0x56028000
70101700:	56020400 	.word	0x56020400
70101704:	56020800 	.word	0x56020800
70101708:	56021000 	.word	0x56021000
7010170c:	56021c00 	.word	0x56021c00

70101710 <MX_USART1_UART_Init>:
70101710:	4916      	ldr	r1, [pc, #88]	@ (7010176c <MX_USART1_UART_Init+0x5c>)
70101712:	b508      	push	{r3, lr}
70101714:	4b16      	ldr	r3, [pc, #88]	@ (70101770 <MX_USART1_UART_Init+0x60>)
70101716:	f44f 32e1 	mov.w	r2, #115200	@ 0x1c200
7010171a:	600b      	str	r3, [r1, #0]
7010171c:	2300      	movs	r3, #0
7010171e:	e9c1 2301 	strd	r2, r3, [r1, #4]
70101722:	220c      	movs	r2, #12
70101724:	4608      	mov	r0, r1
70101726:	e9c1 3303 	strd	r3, r3, [r1, #12]
7010172a:	e9c1 2305 	strd	r2, r3, [r1, #20]
7010172e:	e9c1 3307 	strd	r3, r3, [r1, #28]
70101732:	e9c1 3309 	strd	r3, r3, [r1, #36]	@ 0x24
70101736:	f004 fcbc 	bl	701060b2 <HAL_UART_Init>
7010173a:	4601      	mov	r1, r0
7010173c:	b108      	cbz	r0, 70101742 <MX_USART1_UART_Init+0x32>
7010173e:	b672      	cpsid	i
70101740:	e7fe      	b.n	70101740 <MX_USART1_UART_Init+0x30>
70101742:	480a      	ldr	r0, [pc, #40]	@ (7010176c <MX_USART1_UART_Init+0x5c>)
70101744:	f004 fd23 	bl	7010618e <HAL_UARTEx_SetTxFifoThreshold>
70101748:	4601      	mov	r1, r0
7010174a:	b108      	cbz	r0, 70101750 <MX_USART1_UART_Init+0x40>
7010174c:	b672      	cpsid	i
7010174e:	e7fe      	b.n	7010174e <MX_USART1_UART_Init+0x3e>
70101750:	4806      	ldr	r0, [pc, #24]	@ (7010176c <MX_USART1_UART_Init+0x5c>)
70101752:	f004 fd3c 	bl	701061ce <HAL_UARTEx_SetRxFifoThreshold>
70101756:	b108      	cbz	r0, 7010175c <MX_USART1_UART_Init+0x4c>
70101758:	b672      	cpsid	i
7010175a:	e7fe      	b.n	7010175a <MX_USART1_UART_Init+0x4a>
7010175c:	4803      	ldr	r0, [pc, #12]	@ (7010176c <MX_USART1_UART_Init+0x5c>)
7010175e:	f004 fcfb 	bl	70106158 <HAL_UARTEx_DisableFifoMode>
70101762:	b108      	cbz	r0, 70101768 <MX_USART1_UART_Init+0x58>
70101764:	b672      	cpsid	i
70101766:	e7fe      	b.n	70101766 <MX_USART1_UART_Init+0x56>
70101768:	bd08      	pop	{r3, pc}
7010176a:	bf00      	nop
7010176c:	34000d0c 	.word	0x34000d0c
70101770:	52001000 	.word	0x52001000

70101774 <Error_Handler>:
70101774:	b672      	cpsid	i
70101776:	e7fe      	b.n	70101776 <Error_Handler+0x2>

70101778 <__acle_se_SECURE_RegisterCallback>:
70101778:	b2c0      	uxtb	r0, r0
7010177a:	ed6d cf81 	vstr	FPCXTNS, [sp, #-4]!
7010177e:	b111      	cbz	r1, 70101786 <__acle_se_SECURE_RegisterCallback+0xe>
70101780:	b140      	cbz	r0, 70101794 <__acle_se_SECURE_RegisterCallback+0x1c>
70101782:	2801      	cmp	r0, #1
70101784:	d009      	beq.n	7010179a <__acle_se_SECURE_RegisterCallback+0x22>
70101786:	ec9f 0a10 	vscclrm	{s0-s15, VPR}
7010178a:	e89f 900f 	clrm	{r0, r1, r2, r3, ip, APSR}
7010178e:	ecfd cf81 	vldr	FPCXTNS, [sp], #4
70101792:	4774      	bxns	lr
70101794:	4b02      	ldr	r3, [pc, #8]	@ (701017a0 <__acle_se_SECURE_RegisterCallback+0x28>)
70101796:	6019      	str	r1, [r3, #0]
70101798:	e7f5      	b.n	70101786 <__acle_se_SECURE_RegisterCallback+0xe>
7010179a:	4b02      	ldr	r3, [pc, #8]	@ (701017a4 <__acle_se_SECURE_RegisterCallback+0x2c>)
7010179c:	e7fb      	b.n	70101796 <__acle_se_SECURE_RegisterCallback+0x1e>
7010179e:	bf00      	nop
701017a0:	34000db0 	.word	0x34000db0
701017a4:	34000dac 	.word	0x34000dac

701017a8 <HAL_MspInit>:
701017a8:	b508      	push	{r3, lr}
701017aa:	f000 fc7d 	bl	701020a8 <HAL_PWREx_EnableVddIO2>
701017ae:	f000 fc83 	bl	701020b8 <HAL_PWREx_EnableVddIO3>
701017b2:	e8bd 4008 	ldmia.w	sp!, {r3, lr}
701017b6:	f000 bc87 	b.w	701020c8 <HAL_PWREx_EnableVddIO4>
	...

701017bc <HAL_CACHEAXI_MspInit>:
701017bc:	6802      	ldr	r2, [r0, #0]
701017be:	4b07      	ldr	r3, [pc, #28]	@ (701017dc <HAL_CACHEAXI_MspInit+0x20>)
701017c0:	b082      	sub	sp, #8
701017c2:	429a      	cmp	r2, r3
701017c4:	d108      	bne.n	701017d8 <HAL_CACHEAXI_MspInit+0x1c>
701017c6:	f04f 4280 	mov.w	r2, #1073741824	@ 0x40000000
701017ca:	4b05      	ldr	r3, [pc, #20]	@ (701017e0 <HAL_CACHEAXI_MspInit+0x24>)
701017cc:	f8c3 2a60 	str.w	r2, [r3, #2656]	@ 0xa60
701017d0:	f8d3 3260 	ldr.w	r3, [r3, #608]	@ 0x260
701017d4:	9301      	str	r3, [sp, #4]
701017d6:	9b01      	ldr	r3, [sp, #4]
701017d8:	b002      	add	sp, #8
701017da:	4770      	bx	lr
701017dc:	580dfc00 	.word	0x580dfc00
701017e0:	56028000 	.word	0x56028000

701017e4 <HAL_UART_MspInit>:
701017e4:	b570      	push	{r4, r5, r6, lr}
701017e6:	4604      	mov	r4, r0
701017e8:	b0ec      	sub	sp, #432	@ 0x1b0
701017ea:	2214      	movs	r2, #20
701017ec:	2100      	movs	r1, #0
701017ee:	a803      	add	r0, sp, #12
701017f0:	f00a f928 	bl	7010ba44 <memset>
701017f4:	f44f 72c8 	mov.w	r2, #400	@ 0x190
701017f8:	2100      	movs	r1, #0
701017fa:	a808      	add	r0, sp, #32
701017fc:	f00a f922 	bl	7010ba44 <memset>
70101800:	6822      	ldr	r2, [r4, #0]
70101802:	4b1c      	ldr	r3, [pc, #112]	@ (70101874 <HAL_UART_MspInit+0x90>)
70101804:	429a      	cmp	r2, r3
70101806:	d132      	bne.n	7010186e <HAL_UART_MspInit+0x8a>
70101808:	f44f 7380 	mov.w	r3, #256	@ 0x100
7010180c:	2200      	movs	r2, #0
7010180e:	e9cd 2308 	strd	r2, r3, [sp, #32]
70101812:	4b19      	ldr	r3, [pc, #100]	@ (70101878 <HAL_UART_MspInit+0x94>)
70101814:	a808      	add	r0, sp, #32
70101816:	935c      	str	r3, [sp, #368]	@ 0x170
70101818:	f000 fe52 	bl	701024c0 <HAL_RCCEx_PeriphCLKConfig>
7010181c:	b108      	cbz	r0, 70101822 <HAL_UART_MspInit+0x3e>
7010181e:	f7ff ffa9 	bl	70101774 <Error_Handler>
70101822:	2210      	movs	r2, #16
70101824:	4b15      	ldr	r3, [pc, #84]	@ (7010187c <HAL_UART_MspInit+0x98>)
70101826:	2602      	movs	r6, #2
70101828:	f8c3 2a6c 	str.w	r2, [r3, #2668]	@ 0xa6c
7010182c:	f8d3 026c 	ldr.w	r0, [r3, #620]	@ 0x26c
70101830:	2400      	movs	r4, #0
70101832:	9002      	str	r0, [sp, #8]
70101834:	9902      	ldr	r1, [sp, #8]
70101836:	f8c3 2a5c 	str.w	r2, [r3, #2652]	@ 0xa5c
7010183a:	f8d3 225c 	ldr.w	r2, [r3, #604]	@ 0x25c
7010183e:	2507      	movs	r5, #7
70101840:	9201      	str	r2, [sp, #4]
70101842:	9b01      	ldr	r3, [sp, #4]
70101844:	2320      	movs	r3, #32
70101846:	480e      	ldr	r0, [pc, #56]	@ (70101880 <HAL_UART_MspInit+0x9c>)
70101848:	a903      	add	r1, sp, #12
7010184a:	e9cd 3603 	strd	r3, r6, [sp, #12]
7010184e:	e9cd 4405 	strd	r4, r4, [sp, #20]
70101852:	9507      	str	r5, [sp, #28]
70101854:	f000 fb26 	bl	70101ea4 <HAL_GPIO_Init>
70101858:	2340      	movs	r3, #64	@ 0x40
7010185a:	e9cd 3603 	strd	r3, r6, [sp, #12]
7010185e:	2301      	movs	r3, #1
70101860:	4807      	ldr	r0, [pc, #28]	@ (70101880 <HAL_UART_MspInit+0x9c>)
70101862:	a903      	add	r1, sp, #12
70101864:	e9cd 3405 	strd	r3, r4, [sp, #20]
70101868:	9507      	str	r5, [sp, #28]
7010186a:	f000 fb1b 	bl	70101ea4 <HAL_GPIO_Init>
7010186e:	b06c      	add	sp, #432	@ 0x1b0
70101870:	bd70      	pop	{r4, r5, r6, pc}
70101872:	bf00      	nop
70101874:	52001000 	.word	0x52001000
70101878:	07060030 	.word	0x07060030
7010187c:	56028000 	.word	0x56028000
70101880:	56021000 	.word	0x56021000

70101884 <NMI_Handler>:
70101884:	e7fe      	b.n	70101884 <NMI_Handler>

70101886 <HardFault_Handler>:
70101886:	e7fe      	b.n	70101886 <HardFault_Handler>

70101888 <MemManage_Handler>:
70101888:	e7fe      	b.n	70101888 <MemManage_Handler>

7010188a <BusFault_Handler>:
7010188a:	e7fe      	b.n	7010188a <BusFault_Handler>

7010188c <UsageFault_Handler>:
7010188c:	e7fe      	b.n	7010188c <UsageFault_Handler>

7010188e <SecureFault_Handler>:
7010188e:	e7fe      	b.n	7010188e <SecureFault_Handler>

70101890 <SVC_Handler>:
70101890:	4770      	bx	lr

70101892 <DebugMon_Handler>:
70101892:	4770      	bx	lr

70101894 <PendSV_Handler>:
70101894:	4770      	bx	lr

70101896 <SysTick_Handler>:
70101896:	f000 b9fd 	b.w	70101c94 <HAL_IncTick>

7010189a <_getpid>:
7010189a:	2001      	movs	r0, #1
7010189c:	4770      	bx	lr

7010189e <_kill>:
7010189e:	b508      	push	{r3, lr}
701018a0:	f00a fb32 	bl	7010bf08 <__errno>
701018a4:	2316      	movs	r3, #22
701018a6:	6003      	str	r3, [r0, #0]
701018a8:	f04f 30ff 	mov.w	r0, #4294967295
701018ac:	bd08      	pop	{r3, pc}

701018ae <_exit>:
701018ae:	b508      	push	{r3, lr}
701018b0:	f00a fb2a 	bl	7010bf08 <__errno>
701018b4:	2316      	movs	r3, #22
701018b6:	6003      	str	r3, [r0, #0]
701018b8:	e7fe      	b.n	701018b8 <_exit+0xa>

701018ba <_read>:
701018ba:	b570      	push	{r4, r5, r6, lr}
701018bc:	460d      	mov	r5, r1
701018be:	4614      	mov	r4, r2
701018c0:	460e      	mov	r6, r1
701018c2:	1b73      	subs	r3, r6, r5
701018c4:	429c      	cmp	r4, r3
701018c6:	dc01      	bgt.n	701018cc <_read+0x12>
701018c8:	4620      	mov	r0, r4
701018ca:	bd70      	pop	{r4, r5, r6, pc}
701018cc:	f3af 8000 	nop.w
701018d0:	f806 0b01 	strb.w	r0, [r6], #1
701018d4:	e7f5      	b.n	701018c2 <_read+0x8>

701018d6 <_close>:
701018d6:	f04f 30ff 	mov.w	r0, #4294967295
701018da:	4770      	bx	lr

701018dc <_fstat>:
701018dc:	f44f 5300 	mov.w	r3, #8192	@ 0x2000
701018e0:	2000      	movs	r0, #0
701018e2:	604b      	str	r3, [r1, #4]
701018e4:	4770      	bx	lr

701018e6 <_isatty>:
701018e6:	2001      	movs	r0, #1
701018e8:	4770      	bx	lr

701018ea <_lseek>:
701018ea:	2000      	movs	r0, #0
701018ec:	4770      	bx	lr
	...

701018f0 <_sbrk>:
701018f0:	4a0a      	ldr	r2, [pc, #40]	@ (7010191c <_sbrk+0x2c>)
701018f2:	4603      	mov	r3, r0
701018f4:	6810      	ldr	r0, [r2, #0]
701018f6:	b510      	push	{r4, lr}
701018f8:	b908      	cbnz	r0, 701018fe <_sbrk+0xe>
701018fa:	4809      	ldr	r0, [pc, #36]	@ (70101920 <_sbrk+0x30>)
701018fc:	6010      	str	r0, [r2, #0]
701018fe:	4909      	ldr	r1, [pc, #36]	@ (70101924 <_sbrk+0x34>)
70101900:	4c09      	ldr	r4, [pc, #36]	@ (70101928 <_sbrk+0x38>)
70101902:	4403      	add	r3, r0
70101904:	1b09      	subs	r1, r1, r4
70101906:	428b      	cmp	r3, r1
70101908:	d906      	bls.n	70101918 <_sbrk+0x28>
7010190a:	f00a fafd 	bl	7010bf08 <__errno>
7010190e:	230c      	movs	r3, #12
70101910:	6003      	str	r3, [r0, #0]
70101912:	f04f 30ff 	mov.w	r0, #4294967295
70101916:	bd10      	pop	{r4, pc}
70101918:	6013      	str	r3, [r2, #0]
7010191a:	e7fc      	b.n	70101916 <_sbrk+0x26>
7010191c:	34000db4 	.word	0x34000db4
70101920:	34001990 	.word	0x34001990
70101924:	34100000 	.word	0x34100000
70101928:	00002000 	.word	0x00002000

7010192c <Reset_Handler>:
7010192c:	480f      	ldr	r0, [pc, #60]	@ (7010196c <LoopForever+0x4>)
7010192e:	f380 880a 	msr	MSPLIM, r0
70101932:	480f      	ldr	r0, [pc, #60]	@ (70101970 <LoopForever+0x8>)
70101934:	4685      	mov	sp, r0
70101936:	f000 f829 	bl	7010198c <SystemInit>
7010193a:	480e      	ldr	r0, [pc, #56]	@ (70101974 <LoopForever+0xc>)
7010193c:	490e      	ldr	r1, [pc, #56]	@ (70101978 <LoopForever+0x10>)
7010193e:	4a0f      	ldr	r2, [pc, #60]	@ (7010197c <LoopForever+0x14>)
70101940:	2300      	movs	r3, #0
70101942:	e002      	b.n	7010194a <LoopCopyDataInit>

70101944 <CopyDataInit>:
70101944:	58d4      	ldr	r4, [r2, r3]
70101946:	50c4      	str	r4, [r0, r3]
70101948:	3304      	adds	r3, #4

7010194a <LoopCopyDataInit>:
7010194a:	18c4      	adds	r4, r0, r3
7010194c:	428c      	cmp	r4, r1
7010194e:	d3f9      	bcc.n	70101944 <CopyDataInit>
70101950:	4a0b      	ldr	r2, [pc, #44]	@ (70101980 <LoopForever+0x18>)
70101952:	4c0c      	ldr	r4, [pc, #48]	@ (70101984 <LoopForever+0x1c>)
70101954:	2300      	movs	r3, #0
70101956:	e001      	b.n	7010195c <LoopFillZerobss>

70101958 <FillZerobss>:
70101958:	6013      	str	r3, [r2, #0]
7010195a:	3204      	adds	r2, #4

7010195c <LoopFillZerobss>:
7010195c:	42a2      	cmp	r2, r4
7010195e:	d3fb      	bcc.n	70101958 <FillZerobss>
70101960:	f00a fad8 	bl	7010bf14 <__libc_init_array>
70101964:	f7ff fd82 	bl	7010146c <main>

70101968 <LoopForever>:
70101968:	e7fe      	b.n	70101968 <LoopForever>
7010196a:	0000      	.short	0x0000
7010196c:	340fe000 	.word	0x340fe000
70101970:	34100000 	.word	0x34100000
70101974:	34000000 	.word	0x34000000
70101978:	340000e4 	.word	0x340000e4
7010197c:	70110118 	.word	0x70110118
70101980:	34000100 	.word	0x34000100
70101984:	3400198c 	.word	0x3400198c

70101988 <ADC1_2_IRQHandler>:
70101988:	e7fe      	b.n	70101988 <ADC1_2_IRQHandler>
	...

7010198c <SystemInit>:
7010198c:	491e      	ldr	r1, [pc, #120]	@ (70101a08 <SystemInit+0x7c>)
7010198e:	4a1f      	ldr	r2, [pc, #124]	@ (70101a0c <SystemInit+0x80>)
70101990:	f8d1 308c 	ldr.w	r3, [r1, #140]	@ 0x8c
70101994:	b510      	push	{r4, lr}
70101996:	f443 6340 	orr.w	r3, r3, #3072	@ 0xc00
7010199a:	f8c1 308c 	str.w	r3, [r1, #140]	@ 0x8c
7010199e:	6b53      	ldr	r3, [r2, #52]	@ 0x34
701019a0:	f023 53e0 	bic.w	r3, r3, #469762048	@ 0x1c000000
701019a4:	f043 5380 	orr.w	r3, r3, #268435456	@ 0x10000000
701019a8:	6353      	str	r3, [r2, #52]	@ 0x34
701019aa:	2200      	movs	r2, #0
701019ac:	4b18      	ldr	r3, [pc, #96]	@ (70101a10 <SystemInit+0x84>)
701019ae:	f8c3 2280 	str.w	r2, [r3, #640]	@ 0x280
701019b2:	f8c3 2284 	str.w	r2, [r3, #644]	@ 0x284
701019b6:	f8c3 2288 	str.w	r2, [r3, #648]	@ 0x288
701019ba:	f8c3 228c 	str.w	r2, [r3, #652]	@ 0x28c
701019be:	f8c3 2290 	str.w	r2, [r3, #656]	@ 0x290
701019c2:	f8c3 2294 	str.w	r2, [r3, #660]	@ 0x294
701019c6:	f8c3 2298 	str.w	r2, [r3, #664]	@ 0x298
701019ca:	2201      	movs	r2, #1
701019cc:	4b11      	ldr	r3, [pc, #68]	@ (70101a14 <SystemInit+0x88>)
701019ce:	608b      	str	r3, [r1, #8]
701019d0:	4b11      	ldr	r3, [pc, #68]	@ (70101a18 <SystemInit+0x8c>)
701019d2:	f8c3 2a78 	str.w	r2, [r3, #2680]	@ 0xa78
701019d6:	f8d3 0278 	ldr.w	r0, [r3, #632]	@ 0x278
701019da:	688c      	ldr	r4, [r1, #8]
701019dc:	480f      	ldr	r0, [pc, #60]	@ (70101a1c <SystemInit+0x90>)
701019de:	f503 5380 	add.w	r3, r3, #4096	@ 0x1000
701019e2:	6104      	str	r4, [r0, #16]
701019e4:	6900      	ldr	r0, [r0, #16]
701019e6:	f8c3 2278 	str.w	r2, [r3, #632]	@ 0x278
701019ea:	f8d1 3088 	ldr.w	r3, [r1, #136]	@ 0x88
701019ee:	4a0c      	ldr	r2, [pc, #48]	@ (70101a20 <SystemInit+0x94>)
701019f0:	f443 0370 	orr.w	r3, r3, #15728640	@ 0xf00000
701019f4:	f8c1 3088 	str.w	r3, [r1, #136]	@ 0x88
701019f8:	f8d2 3088 	ldr.w	r3, [r2, #136]	@ 0x88
701019fc:	f443 0370 	orr.w	r3, r3, #15728640	@ 0xf00000
70101a00:	f8c2 3088 	str.w	r3, [r2, #136]	@ 0x88
70101a04:	bd10      	pop	{r4, pc}
70101a06:	bf00      	nop
70101a08:	e000ed00 	.word	0xe000ed00
70101a0c:	e000ef00 	.word	0xe000ef00
70101a10:	e000e100 	.word	0xe000e100
70101a14:	70100400 	.word	0x70100400
70101a18:	56028000 	.word	0x56028000
70101a1c:	56008000 	.word	0x56008000
70101a20:	e002ed00 	.word	0xe002ed00

70101a24 <SystemCoreClockUpdate>:
70101a24:	4b6e      	ldr	r3, [pc, #440]	@ (70101be0 <SystemCoreClockUpdate+0x1bc>)
70101a26:	b5f0      	push	{r4, r5, r6, r7, lr}
70101a28:	6a1a      	ldr	r2, [r3, #32]
70101a2a:	f402 1240 	and.w	r2, r2, #3145728	@ 0x300000
70101a2e:	f5b2 1f00 	cmp.w	r2, #2097152	@ 0x200000
70101a32:	f000 80b9 	beq.w	70101ba8 <SystemCoreClockUpdate+0x184>
70101a36:	d806      	bhi.n	70101a46 <SystemCoreClockUpdate+0x22>
70101a38:	b962      	cbnz	r2, 70101a54 <SystemCoreClockUpdate+0x30>
70101a3a:	6c9a      	ldr	r2, [r3, #72]	@ 0x48
70101a3c:	4b69      	ldr	r3, [pc, #420]	@ (70101be4 <SystemCoreClockUpdate+0x1c0>)
70101a3e:	f3c2 12c1 	ubfx	r2, r2, #7, #2
70101a42:	40d3      	lsrs	r3, r2
70101a44:	e003      	b.n	70101a4e <SystemCoreClockUpdate+0x2a>
70101a46:	f5b2 1f40 	cmp.w	r2, #3145728	@ 0x300000
70101a4a:	d009      	beq.n	70101a60 <SystemCoreClockUpdate+0x3c>
70101a4c:	2300      	movs	r3, #0
70101a4e:	4a66      	ldr	r2, [pc, #408]	@ (70101be8 <SystemCoreClockUpdate+0x1c4>)
70101a50:	6013      	str	r3, [r2, #0]
70101a52:	bdf0      	pop	{r4, r5, r6, r7, pc}
70101a54:	6c5b      	ldr	r3, [r3, #68]	@ 0x44
70101a56:	059f      	lsls	r7, r3, #22
70101a58:	f100 80a8 	bmi.w	70101bac <SystemCoreClockUpdate+0x188>
70101a5c:	4b63      	ldr	r3, [pc, #396]	@ (70101bec <SystemCoreClockUpdate+0x1c8>)
70101a5e:	e7f6      	b.n	70101a4e <SystemCoreClockUpdate+0x2a>
70101a60:	f8d3 20c4 	ldr.w	r2, [r3, #196]	@ 0xc4
70101a64:	f002 5240 	and.w	r2, r2, #805306368	@ 0x30000000
70101a68:	f1b2 5f80 	cmp.w	r2, #268435456	@ 0x10000000
70101a6c:	d029      	beq.n	70101ac2 <SystemCoreClockUpdate+0x9e>
70101a6e:	f1b2 5f00 	cmp.w	r2, #536870912	@ 0x20000000
70101a72:	d035      	beq.n	70101ae0 <SystemCoreClockUpdate+0xbc>
70101a74:	2a00      	cmp	r2, #0
70101a76:	d142      	bne.n	70101afe <SystemCoreClockUpdate+0xda>
70101a78:	f8d3 1080 	ldr.w	r1, [r3, #128]	@ 0x80
70101a7c:	010e      	lsls	r6, r1, #4
70101a7e:	f001 40e0 	and.w	r0, r1, #1879048192	@ 0x70000000
70101a82:	f100 809a 	bmi.w	70101bba <SystemCoreClockUpdate+0x196>
70101a86:	f8d3 4084 	ldr.w	r4, [r3, #132]	@ 0x84
70101a8a:	f8d3 2088 	ldr.w	r2, [r3, #136]	@ 0x88
70101a8e:	f3c1 250b 	ubfx	r5, r1, #8, #12
70101a92:	f024 447f 	bic.w	r4, r4, #4278190080	@ 0xff000000
70101a96:	4607      	mov	r7, r0
70101a98:	f1b7 5f00 	cmp.w	r7, #536870912	@ 0x20000000
70101a9c:	f3c2 66c2 	ubfx	r6, r2, #27, #3
70101aa0:	f3c1 5005 	ubfx	r0, r1, #20, #6
70101aa4:	f3c2 6202 	ubfx	r2, r2, #24, #3
70101aa8:	d04e      	beq.n	70101b48 <SystemCoreClockUpdate+0x124>
70101aaa:	f200 8081 	bhi.w	70101bb0 <SystemCoreClockUpdate+0x18c>
70101aae:	2f00      	cmp	r7, #0
70101ab0:	d03a      	beq.n	70101b28 <SystemCoreClockUpdate+0x104>
70101ab2:	2700      	movs	r7, #0
70101ab4:	4b4a      	ldr	r3, [pc, #296]	@ (70101be0 <SystemCoreClockUpdate+0x1bc>)
70101ab6:	6c5b      	ldr	r3, [r3, #68]	@ 0x44
70101ab8:	059b      	lsls	r3, r3, #22
70101aba:	bf54      	ite	pl
70101abc:	4b4b      	ldrpl	r3, [pc, #300]	@ (70101bec <SystemCoreClockUpdate+0x1c8>)
70101abe:	4b4c      	ldrmi	r3, [pc, #304]	@ (70101bf0 <SystemCoreClockUpdate+0x1cc>)
70101ac0:	e038      	b.n	70101b34 <SystemCoreClockUpdate+0x110>
70101ac2:	f8d3 1090 	ldr.w	r1, [r3, #144]	@ 0x90
70101ac6:	010d      	lsls	r5, r1, #4
70101ac8:	f001 40e0 	and.w	r0, r1, #1879048192	@ 0x70000000
70101acc:	d475      	bmi.n	70101bba <SystemCoreClockUpdate+0x196>
70101ace:	f8d3 4094 	ldr.w	r4, [r3, #148]	@ 0x94
70101ad2:	f3c1 250b 	ubfx	r5, r1, #8, #12
70101ad6:	f8d3 2098 	ldr.w	r2, [r3, #152]	@ 0x98
70101ada:	f024 447f 	bic.w	r4, r4, #4278190080	@ 0xff000000
70101ade:	e7da      	b.n	70101a96 <SystemCoreClockUpdate+0x72>
70101ae0:	f8d3 10a0 	ldr.w	r1, [r3, #160]	@ 0xa0
70101ae4:	010c      	lsls	r4, r1, #4
70101ae6:	f001 40e0 	and.w	r0, r1, #1879048192	@ 0x70000000
70101aea:	d466      	bmi.n	70101bba <SystemCoreClockUpdate+0x196>
70101aec:	f8d3 40a4 	ldr.w	r4, [r3, #164]	@ 0xa4
70101af0:	f3c1 250b 	ubfx	r5, r1, #8, #12
70101af4:	f8d3 20a8 	ldr.w	r2, [r3, #168]	@ 0xa8
70101af8:	f024 447f 	bic.w	r4, r4, #4278190080	@ 0xff000000
70101afc:	e7cb      	b.n	70101a96 <SystemCoreClockUpdate+0x72>
70101afe:	f8d3 10b0 	ldr.w	r1, [r3, #176]	@ 0xb0
70101b02:	010a      	lsls	r2, r1, #4
70101b04:	f001 40e0 	and.w	r0, r1, #1879048192	@ 0x70000000
70101b08:	d457      	bmi.n	70101bba <SystemCoreClockUpdate+0x196>
70101b0a:	f8d3 40b4 	ldr.w	r4, [r3, #180]	@ 0xb4
70101b0e:	f3c1 250b 	ubfx	r5, r1, #8, #12
70101b12:	f8d3 20b8 	ldr.w	r2, [r3, #184]	@ 0xb8
70101b16:	f024 447f 	bic.w	r4, r4, #4278190080	@ 0xff000000
70101b1a:	e7bc      	b.n	70101a96 <SystemCoreClockUpdate+0x72>
70101b1c:	4602      	mov	r2, r0
70101b1e:	4606      	mov	r6, r0
70101b20:	4604      	mov	r4, r0
70101b22:	4605      	mov	r5, r0
70101b24:	f04f 6700 	mov.w	r7, #134217728	@ 0x8000000
70101b28:	4b2d      	ldr	r3, [pc, #180]	@ (70101be0 <SystemCoreClockUpdate+0x1bc>)
70101b2a:	6c99      	ldr	r1, [r3, #72]	@ 0x48
70101b2c:	4b2d      	ldr	r3, [pc, #180]	@ (70101be4 <SystemCoreClockUpdate+0x1c0>)
70101b2e:	f3c1 11c1 	ubfx	r1, r1, #7, #2
70101b32:	40cb      	lsrs	r3, r1
70101b34:	b14f      	cbz	r7, 70101b4a <SystemCoreClockUpdate+0x126>
70101b36:	4a2a      	ldr	r2, [pc, #168]	@ (70101be0 <SystemCoreClockUpdate+0x1bc>)
70101b38:	f8d2 20c4 	ldr.w	r2, [r2, #196]	@ 0xc4
70101b3c:	f3c2 4207 	ubfx	r2, r2, #16, #8
70101b40:	3201      	adds	r2, #1
70101b42:	fbb3 f3f2 	udiv	r3, r3, r2
70101b46:	e782      	b.n	70101a4e <SystemCoreClockUpdate+0x2a>
70101b48:	4b2a      	ldr	r3, [pc, #168]	@ (70101bf4 <SystemCoreClockUpdate+0x1d0>)
70101b4a:	ee07 4a10 	vmov	s14, r4
70101b4e:	eeb8 6ac7 	vcvt.f32.s32	s12, s14
70101b52:	ee07 5a10 	vmov	s14, r5
70101b56:	ee07 3a90 	vmov	s15, r3
70101b5a:	eddf 6a27 	vldr	s13, [pc, #156]	@ 70101bf8 <SystemCoreClockUpdate+0x1d4>
70101b5e:	eeb8 7ac7 	vcvt.f32.s32	s14, s14
70101b62:	eef8 7ae7 	vcvt.f32.s32	s15, s15
70101b66:	eea6 7a26 	vfma.f32	s14, s12, s13
70101b6a:	ee67 7a87 	vmul.f32	s15, s15, s14
70101b6e:	ee07 0a10 	vmov	s14, r0
70101b72:	eeb8 7ac7 	vcvt.f32.s32	s14, s14
70101b76:	eec7 6a87 	vdiv.f32	s13, s15, s14
70101b7a:	ee07 6a90 	vmov	s15, r6
70101b7e:	eeb8 7ae7 	vcvt.f32.s32	s14, s15
70101b82:	ee07 2a90 	vmov	s15, r2
70101b86:	eef8 7ae7 	vcvt.f32.s32	s15, s15
70101b8a:	ee27 7a27 	vmul.f32	s14, s14, s15
70101b8e:	eec6 7a87 	vdiv.f32	s15, s13, s14
70101b92:	eefc 7ae7 	vcvt.u32.f32	s15, s15
70101b96:	ee17 3a90 	vmov	r3, s15
70101b9a:	e7cc      	b.n	70101b36 <SystemCoreClockUpdate+0x112>
70101b9c:	2300      	movs	r3, #0
70101b9e:	e7d4      	b.n	70101b4a <SystemCoreClockUpdate+0x126>
70101ba0:	4b14      	ldr	r3, [pc, #80]	@ (70101bf4 <SystemCoreClockUpdate+0x1d0>)
70101ba2:	e7c8      	b.n	70101b36 <SystemCoreClockUpdate+0x112>
70101ba4:	2300      	movs	r3, #0
70101ba6:	e7c6      	b.n	70101b36 <SystemCoreClockUpdate+0x112>
70101ba8:	4b12      	ldr	r3, [pc, #72]	@ (70101bf4 <SystemCoreClockUpdate+0x1d0>)
70101baa:	e750      	b.n	70101a4e <SystemCoreClockUpdate+0x2a>
70101bac:	4b10      	ldr	r3, [pc, #64]	@ (70101bf0 <SystemCoreClockUpdate+0x1cc>)
70101bae:	e74e      	b.n	70101a4e <SystemCoreClockUpdate+0x2a>
70101bb0:	f1b7 5f40 	cmp.w	r7, #805306368	@ 0x30000000
70101bb4:	d1f2      	bne.n	70101b9c <SystemCoreClockUpdate+0x178>
70101bb6:	4b11      	ldr	r3, [pc, #68]	@ (70101bfc <SystemCoreClockUpdate+0x1d8>)
70101bb8:	e7c7      	b.n	70101b4a <SystemCoreClockUpdate+0x126>
70101bba:	f1b0 5f00 	cmp.w	r0, #536870912	@ 0x20000000
70101bbe:	d0ef      	beq.n	70101ba0 <SystemCoreClockUpdate+0x17c>
70101bc0:	d809      	bhi.n	70101bd6 <SystemCoreClockUpdate+0x1b2>
70101bc2:	2800      	cmp	r0, #0
70101bc4:	d0aa      	beq.n	70101b1c <SystemCoreClockUpdate+0xf8>
70101bc6:	2200      	movs	r2, #0
70101bc8:	f04f 6700 	mov.w	r7, #134217728	@ 0x8000000
70101bcc:	4616      	mov	r6, r2
70101bce:	4614      	mov	r4, r2
70101bd0:	4615      	mov	r5, r2
70101bd2:	4610      	mov	r0, r2
70101bd4:	e76e      	b.n	70101ab4 <SystemCoreClockUpdate+0x90>
70101bd6:	f1b0 5f40 	cmp.w	r0, #805306368	@ 0x30000000
70101bda:	d1e3      	bne.n	70101ba4 <SystemCoreClockUpdate+0x180>
70101bdc:	4b07      	ldr	r3, [pc, #28]	@ (70101bfc <SystemCoreClockUpdate+0x1d8>)
70101bde:	e7aa      	b.n	70101b36 <SystemCoreClockUpdate+0x112>
70101be0:	56028000 	.word	0x56028000
70101be4:	03d09000 	.word	0x03d09000
70101be8:	34000000 	.word	0x34000000
70101bec:	003d0900 	.word	0x003d0900
70101bf0:	00f42400 	.word	0x00f42400
70101bf4:	016e3600 	.word	0x016e3600
70101bf8:	33800000 	.word	0x33800000
70101bfc:	00bb8000 	.word	0x00bb8000

70101c00 <__acle_se_SECURE_SystemCoreClockUpdate>:
70101c00:	ed6d cf81 	vstr	FPCXTNS, [sp, #-4]!
70101c04:	b500      	push	{lr}
70101c06:	f7ff ff0d 	bl	70101a24 <SystemCoreClockUpdate>
70101c0a:	4b05      	ldr	r3, [pc, #20]	@ (70101c20 <__acle_se_SECURE_SystemCoreClockUpdate+0x20>)
70101c0c:	f85d eb04 	ldr.w	lr, [sp], #4
70101c10:	6818      	ldr	r0, [r3, #0]
70101c12:	ec9f 0a10 	vscclrm	{s0-s15, VPR}
70101c16:	e89f 900e 	clrm	{r1, r2, r3, ip, APSR}
70101c1a:	ecfd cf81 	vldr	FPCXTNS, [sp], #4
70101c1e:	4774      	bxns	lr
70101c20:	34000000 	.word	0x34000000

70101c24 <HAL_InitTick>:
70101c24:	b538      	push	{r3, r4, r5, lr}
70101c26:	4b0f      	ldr	r3, [pc, #60]	@ (70101c64 <HAL_InitTick+0x40>)
70101c28:	4605      	mov	r5, r0
70101c2a:	781a      	ldrb	r2, [r3, #0]
70101c2c:	b90a      	cbnz	r2, 70101c32 <HAL_InitTick+0xe>
70101c2e:	2001      	movs	r0, #1
70101c30:	bd38      	pop	{r3, r4, r5, pc}
70101c32:	f44f 737a 	mov.w	r3, #1000	@ 0x3e8
70101c36:	fbb3 f3f2 	udiv	r3, r3, r2
70101c3a:	4a0b      	ldr	r2, [pc, #44]	@ (70101c68 <HAL_InitTick+0x44>)
70101c3c:	6810      	ldr	r0, [r2, #0]
70101c3e:	fbb0 f0f3 	udiv	r0, r0, r3
70101c42:	f000 f91b 	bl	70101e7c <HAL_SYSTICK_Config>
70101c46:	4604      	mov	r4, r0
70101c48:	2800      	cmp	r0, #0
70101c4a:	d1f0      	bne.n	70101c2e <HAL_InitTick+0xa>
70101c4c:	2d0f      	cmp	r5, #15
70101c4e:	d8ee      	bhi.n	70101c2e <HAL_InitTick+0xa>
70101c50:	4602      	mov	r2, r0
70101c52:	4629      	mov	r1, r5
70101c54:	f04f 30ff 	mov.w	r0, #4294967295
70101c58:	f000 f8e0 	bl	70101e1c <HAL_NVIC_SetPriority>
70101c5c:	4b03      	ldr	r3, [pc, #12]	@ (70101c6c <HAL_InitTick+0x48>)
70101c5e:	4620      	mov	r0, r4
70101c60:	601d      	str	r5, [r3, #0]
70101c62:	e7e5      	b.n	70101c30 <HAL_InitTick+0xc>
70101c64:	34000004 	.word	0x34000004
70101c68:	34000000 	.word	0x34000000
70101c6c:	34000008 	.word	0x34000008

70101c70 <HAL_Init>:
70101c70:	b510      	push	{r4, lr}
70101c72:	2003      	movs	r0, #3
70101c74:	f000 f8c0 	bl	70101df8 <HAL_NVIC_SetPriorityGrouping>
70101c78:	f7ff fed4 	bl	70101a24 <SystemCoreClockUpdate>
70101c7c:	200f      	movs	r0, #15
70101c7e:	f7ff ffd1 	bl	70101c24 <HAL_InitTick>
70101c82:	4604      	mov	r4, r0
70101c84:	b918      	cbnz	r0, 70101c8e <HAL_Init+0x1e>
70101c86:	f7ff fd8f 	bl	701017a8 <HAL_MspInit>
70101c8a:	4620      	mov	r0, r4
70101c8c:	bd10      	pop	{r4, pc}
70101c8e:	2401      	movs	r4, #1
70101c90:	e7fb      	b.n	70101c8a <HAL_Init+0x1a>
	...

70101c94 <HAL_IncTick>:
70101c94:	4a03      	ldr	r2, [pc, #12]	@ (70101ca4 <HAL_IncTick+0x10>)
70101c96:	4b04      	ldr	r3, [pc, #16]	@ (70101ca8 <HAL_IncTick+0x14>)
70101c98:	6811      	ldr	r1, [r2, #0]
70101c9a:	781b      	ldrb	r3, [r3, #0]
70101c9c:	440b      	add	r3, r1
70101c9e:	6013      	str	r3, [r2, #0]
70101ca0:	4770      	bx	lr
70101ca2:	bf00      	nop
70101ca4:	34000db8 	.word	0x34000db8
70101ca8:	34000004 	.word	0x34000004

70101cac <HAL_GetTick>:
70101cac:	4b01      	ldr	r3, [pc, #4]	@ (70101cb4 <HAL_GetTick+0x8>)
70101cae:	6818      	ldr	r0, [r3, #0]
70101cb0:	4770      	bx	lr
70101cb2:	bf00      	nop
70101cb4:	34000db8 	.word	0x34000db8

70101cb8 <HAL_Delay>:
70101cb8:	b538      	push	{r3, r4, r5, lr}
70101cba:	4604      	mov	r4, r0
70101cbc:	f7ff fff6 	bl	70101cac <HAL_GetTick>
70101cc0:	4605      	mov	r5, r0
70101cc2:	1c63      	adds	r3, r4, #1
70101cc4:	bf1e      	ittt	ne
70101cc6:	4b04      	ldrne	r3, [pc, #16]	@ (70101cd8 <HAL_Delay+0x20>)
70101cc8:	781b      	ldrbne	r3, [r3, #0]
70101cca:	18e4      	addne	r4, r4, r3
70101ccc:	f7ff ffee 	bl	70101cac <HAL_GetTick>
70101cd0:	1b43      	subs	r3, r0, r5
70101cd2:	42a3      	cmp	r3, r4
70101cd4:	d3fa      	bcc.n	70101ccc <HAL_Delay+0x14>
70101cd6:	bd38      	pop	{r3, r4, r5, pc}
70101cd8:	34000004 	.word	0x34000004

70101cdc <HAL_GetHalVersion>:
70101cdc:	4800      	ldr	r0, [pc, #0]	@ (70101ce0 <HAL_GetHalVersion+0x4>)
70101cde:	4770      	bx	lr
70101ce0:	01030000 	.word	0x01030000

70101ce4 <CACHEAXI_CommandByAddr>:
70101ce4:	b538      	push	{r3, r4, r5, lr}
70101ce6:	6804      	ldr	r4, [r0, #0]
70101ce8:	4605      	mov	r5, r0
70101cea:	6860      	ldr	r0, [r4, #4]
70101cec:	f010 0009 	ands.w	r0, r0, #9
70101cf0:	d13f      	bne.n	70101d72 <CACHEAXI_CommandByAddr+0x8e>
70101cf2:	60a8      	str	r0, [r5, #8]
70101cf4:	2001      	movs	r0, #1
70101cf6:	7128      	strb	r0, [r5, #4]
70101cf8:	2012      	movs	r0, #18
70101cfa:	3b01      	subs	r3, #1
70101cfc:	60e0      	str	r0, [r4, #12]
70101cfe:	f8c4 2104 	str.w	r2, [r4, #260]	@ 0x104
70101d02:	441a      	add	r2, r3
70101d04:	f8c4 2108 	str.w	r2, [r4, #264]	@ 0x108
70101d08:	f8d4 3100 	ldr.w	r3, [r4, #256]	@ 0x100
70101d0c:	f023 0306 	bic.w	r3, r3, #6
70101d10:	4319      	orrs	r1, r3
70101d12:	9b04      	ldr	r3, [sp, #16]
70101d14:	f8c4 1100 	str.w	r1, [r4, #256]	@ 0x100
70101d18:	2b01      	cmp	r3, #1
70101d1a:	68a3      	ldr	r3, [r4, #8]
70101d1c:	d10a      	bne.n	70101d34 <CACHEAXI_CommandByAddr+0x50>
70101d1e:	f043 0310 	orr.w	r3, r3, #16
70101d22:	60a3      	str	r3, [r4, #8]
70101d24:	f8d4 3100 	ldr.w	r3, [r4, #256]	@ 0x100
70101d28:	f043 0301 	orr.w	r3, r3, #1
70101d2c:	f8c4 3100 	str.w	r3, [r4, #256]	@ 0x100
70101d30:	2000      	movs	r0, #0
70101d32:	e01d      	b.n	70101d70 <CACHEAXI_CommandByAddr+0x8c>
70101d34:	f023 0310 	bic.w	r3, r3, #16
70101d38:	60a3      	str	r3, [r4, #8]
70101d3a:	f8d4 3100 	ldr.w	r3, [r4, #256]	@ 0x100
70101d3e:	f043 0301 	orr.w	r3, r3, #1
70101d42:	f8c4 3100 	str.w	r3, [r4, #256]	@ 0x100
70101d46:	f7ff ffb1 	bl	70101cac <HAL_GetTick>
70101d4a:	4604      	mov	r4, r0
70101d4c:	682b      	ldr	r3, [r5, #0]
70101d4e:	685b      	ldr	r3, [r3, #4]
70101d50:	06db      	lsls	r3, r3, #27
70101d52:	d4ed      	bmi.n	70101d30 <CACHEAXI_CommandByAddr+0x4c>
70101d54:	f7ff ffaa 	bl	70101cac <HAL_GetTick>
70101d58:	1b00      	subs	r0, r0, r4
70101d5a:	28c8      	cmp	r0, #200	@ 0xc8
70101d5c:	d9f6      	bls.n	70101d4c <CACHEAXI_CommandByAddr+0x68>
70101d5e:	682b      	ldr	r3, [r5, #0]
70101d60:	685b      	ldr	r3, [r3, #4]
70101d62:	06da      	lsls	r2, r3, #27
70101d64:	d4f2      	bmi.n	70101d4c <CACHEAXI_CommandByAddr+0x68>
70101d66:	2310      	movs	r3, #16
70101d68:	60ab      	str	r3, [r5, #8]
70101d6a:	2306      	movs	r3, #6
70101d6c:	2001      	movs	r0, #1
70101d6e:	712b      	strb	r3, [r5, #4]
70101d70:	bd38      	pop	{r3, r4, r5, pc}
70101d72:	2002      	movs	r0, #2
70101d74:	e7fc      	b.n	70101d70 <CACHEAXI_CommandByAddr+0x8c>

70101d76 <HAL_CACHEAXI_Enable>:
70101d76:	b538      	push	{r3, r4, r5, lr}
70101d78:	4604      	mov	r4, r0
70101d7a:	b1e0      	cbz	r0, 70101db6 <HAL_CACHEAXI_Enable+0x40>
70101d7c:	6803      	ldr	r3, [r0, #0]
70101d7e:	685a      	ldr	r2, [r3, #4]
70101d80:	07d0      	lsls	r0, r2, #31
70101d82:	d506      	bpl.n	70101d92 <HAL_CACHEAXI_Enable+0x1c>
70101d84:	f7ff ff92 	bl	70101cac <HAL_GetTick>
70101d88:	4605      	mov	r5, r0
70101d8a:	6823      	ldr	r3, [r4, #0]
70101d8c:	685a      	ldr	r2, [r3, #4]
70101d8e:	07d2      	lsls	r2, r2, #31
70101d90:	d406      	bmi.n	70101da0 <HAL_CACHEAXI_Enable+0x2a>
70101d92:	2000      	movs	r0, #0
70101d94:	60a0      	str	r0, [r4, #8]
70101d96:	681a      	ldr	r2, [r3, #0]
70101d98:	f042 0201 	orr.w	r2, r2, #1
70101d9c:	601a      	str	r2, [r3, #0]
70101d9e:	e00b      	b.n	70101db8 <HAL_CACHEAXI_Enable+0x42>
70101da0:	f7ff ff84 	bl	70101cac <HAL_GetTick>
70101da4:	1b40      	subs	r0, r0, r5
70101da6:	2801      	cmp	r0, #1
70101da8:	d9ef      	bls.n	70101d8a <HAL_CACHEAXI_Enable+0x14>
70101daa:	6823      	ldr	r3, [r4, #0]
70101dac:	685b      	ldr	r3, [r3, #4]
70101dae:	07d9      	lsls	r1, r3, #31
70101db0:	d4eb      	bmi.n	70101d8a <HAL_CACHEAXI_Enable+0x14>
70101db2:	2310      	movs	r3, #16
70101db4:	60a3      	str	r3, [r4, #8]
70101db6:	2001      	movs	r0, #1
70101db8:	bd38      	pop	{r3, r4, r5, pc}

70101dba <HAL_CACHEAXI_Init>:
70101dba:	b510      	push	{r4, lr}
70101dbc:	4604      	mov	r4, r0
70101dbe:	b160      	cbz	r0, 70101dda <HAL_CACHEAXI_Init+0x20>
70101dc0:	7903      	ldrb	r3, [r0, #4]
70101dc2:	b90b      	cbnz	r3, 70101dc8 <HAL_CACHEAXI_Init+0xe>
70101dc4:	f7ff fcfa 	bl	701017bc <HAL_CACHEAXI_MspInit>
70101dc8:	2300      	movs	r3, #0
70101dca:	60a3      	str	r3, [r4, #8]
70101dcc:	2301      	movs	r3, #1
70101dce:	7123      	strb	r3, [r4, #4]
70101dd0:	4620      	mov	r0, r4
70101dd2:	e8bd 4010 	ldmia.w	sp!, {r4, lr}
70101dd6:	f7ff bfce 	b.w	70101d76 <HAL_CACHEAXI_Enable>
70101dda:	2001      	movs	r0, #1
70101ddc:	bd10      	pop	{r4, pc}

70101dde <HAL_CACHEAXI_CleanInvalidByAddr>:
70101dde:	4613      	mov	r3, r2
70101de0:	b507      	push	{r0, r1, r2, lr}
70101de2:	b138      	cbz	r0, 70101df4 <HAL_CACHEAXI_CleanInvalidByAddr+0x16>
70101de4:	2200      	movs	r2, #0
70101de6:	9200      	str	r2, [sp, #0]
70101de8:	460a      	mov	r2, r1
70101dea:	2106      	movs	r1, #6
70101dec:	f7ff ff7a 	bl	70101ce4 <CACHEAXI_CommandByAddr>
70101df0:	b003      	add	sp, #12
70101df2:	bd00      	pop	{pc}
70101df4:	2001      	movs	r0, #1
70101df6:	e7fb      	b.n	70101df0 <HAL_CACHEAXI_CleanInvalidByAddr+0x12>

70101df8 <HAL_NVIC_SetPriorityGrouping>:
70101df8:	4907      	ldr	r1, [pc, #28]	@ (70101e18 <HAL_NVIC_SetPriorityGrouping+0x20>)
70101dfa:	0203      	lsls	r3, r0, #8
70101dfc:	68ca      	ldr	r2, [r1, #12]
70101dfe:	f403 63e0 	and.w	r3, r3, #1792	@ 0x700
70101e02:	f422 62e0 	bic.w	r2, r2, #1792	@ 0x700
70101e06:	0412      	lsls	r2, r2, #16
70101e08:	0c12      	lsrs	r2, r2, #16
70101e0a:	4313      	orrs	r3, r2
70101e0c:	f043 63bf 	orr.w	r3, r3, #100139008	@ 0x5f80000
70101e10:	f443 3300 	orr.w	r3, r3, #131072	@ 0x20000
70101e14:	60cb      	str	r3, [r1, #12]
70101e16:	4770      	bx	lr
70101e18:	e000ed00 	.word	0xe000ed00

70101e1c <HAL_NVIC_SetPriority>:
70101e1c:	4b15      	ldr	r3, [pc, #84]	@ (70101e74 <HAL_NVIC_SetPriority+0x58>)
70101e1e:	b530      	push	{r4, r5, lr}
70101e20:	68dc      	ldr	r4, [r3, #12]
70101e22:	f3c4 2402 	ubfx	r4, r4, #8, #3
70101e26:	f1c4 0307 	rsb	r3, r4, #7
70101e2a:	1d25      	adds	r5, r4, #4
70101e2c:	2b04      	cmp	r3, #4
70101e2e:	bf28      	it	cs
70101e30:	2304      	movcs	r3, #4
70101e32:	2d06      	cmp	r5, #6
70101e34:	f04f 35ff 	mov.w	r5, #4294967295
70101e38:	bf94      	ite	ls
70101e3a:	2400      	movls	r4, #0
70101e3c:	3c03      	subhi	r4, #3
70101e3e:	fa05 f303 	lsl.w	r3, r5, r3
70101e42:	ea21 0303 	bic.w	r3, r1, r3
70101e46:	40a5      	lsls	r5, r4
70101e48:	ea22 0205 	bic.w	r2, r2, r5
70101e4c:	40a3      	lsls	r3, r4
70101e4e:	2800      	cmp	r0, #0
70101e50:	ea43 0302 	orr.w	r3, r3, r2
70101e54:	bfac      	ite	ge
70101e56:	f100 4060 	addge.w	r0, r0, #3758096384	@ 0xe0000000
70101e5a:	4a07      	ldrlt	r2, [pc, #28]	@ (70101e78 <HAL_NVIC_SetPriority+0x5c>)
70101e5c:	ea4f 1303 	mov.w	r3, r3, lsl #4
70101e60:	b2db      	uxtb	r3, r3
70101e62:	bfab      	itete	ge
70101e64:	f500 4061 	addge.w	r0, r0, #57600	@ 0xe100
70101e68:	f000 000f 	andlt.w	r0, r0, #15
70101e6c:	f880 3300 	strbge.w	r3, [r0, #768]	@ 0x300
70101e70:	5413      	strblt	r3, [r2, r0]
70101e72:	bd30      	pop	{r4, r5, pc}
70101e74:	e000ed00 	.word	0xe000ed00
70101e78:	e000ed14 	.word	0xe000ed14

70101e7c <HAL_SYSTICK_Config>:
70101e7c:	3801      	subs	r0, #1
70101e7e:	f1b0 7f80 	cmp.w	r0, #16777216	@ 0x1000000
70101e82:	d20b      	bcs.n	70101e9c <HAL_SYSTICK_Config+0x20>
70101e84:	f04f 23e0 	mov.w	r3, #3758153728	@ 0xe000e000
70101e88:	21f0      	movs	r1, #240	@ 0xf0
70101e8a:	4a05      	ldr	r2, [pc, #20]	@ (70101ea0 <HAL_SYSTICK_Config+0x24>)
70101e8c:	6158      	str	r0, [r3, #20]
70101e8e:	f882 1023 	strb.w	r1, [r2, #35]	@ 0x23
70101e92:	2000      	movs	r0, #0
70101e94:	2207      	movs	r2, #7
70101e96:	6198      	str	r0, [r3, #24]
70101e98:	611a      	str	r2, [r3, #16]
70101e9a:	4770      	bx	lr
70101e9c:	2001      	movs	r0, #1
70101e9e:	4770      	bx	lr
70101ea0:	e000ed00 	.word	0xe000ed00

70101ea4 <HAL_GPIO_Init>:
70101ea4:	e92d 4ff0 	stmdb	sp!, {r4, r5, r6, r7, r8, r9, sl, fp, lr}
70101ea8:	2300      	movs	r3, #0
70101eaa:	f04f 0a0f 	mov.w	sl, #15
70101eae:	4c6d      	ldr	r4, [pc, #436]	@ (70102064 <HAL_GPIO_Init+0x1c0>)
70101eb0:	680a      	ldr	r2, [r1, #0]
70101eb2:	fa32 f503 	lsrs.w	r5, r2, r3
70101eb6:	d101      	bne.n	70101ebc <HAL_GPIO_Init+0x18>
70101eb8:	e8bd 8ff0 	ldmia.w	sp!, {r4, r5, r6, r7, r8, r9, sl, fp, pc}
70101ebc:	2501      	movs	r5, #1
70101ebe:	fa05 f903 	lsl.w	r9, r5, r3
70101ec2:	ea19 0202 	ands.w	r2, r9, r2
70101ec6:	f000 80b5 	beq.w	70102034 <HAL_GPIO_Init+0x190>
70101eca:	2703      	movs	r7, #3
70101ecc:	684e      	ldr	r6, [r1, #4]
70101ece:	ea4f 0843 	mov.w	r8, r3, lsl #1
70101ed2:	f006 0503 	and.w	r5, r6, #3
70101ed6:	fa07 fe08 	lsl.w	lr, r7, r8
70101eda:	1e6f      	subs	r7, r5, #1
70101edc:	2f01      	cmp	r7, #1
70101ede:	ea6f 0e0e 	mvn.w	lr, lr
70101ee2:	f8d1 c008 	ldr.w	ip, [r1, #8]
70101ee6:	d831      	bhi.n	70101f4c <HAL_GPIO_Init+0xa8>
70101ee8:	6887      	ldr	r7, [r0, #8]
70101eea:	ea07 0b0e 	and.w	fp, r7, lr
70101eee:	68cf      	ldr	r7, [r1, #12]
70101ef0:	fa07 f708 	lsl.w	r7, r7, r8
70101ef4:	ea47 070b 	orr.w	r7, r7, fp
70101ef8:	6087      	str	r7, [r0, #8]
70101efa:	6847      	ldr	r7, [r0, #4]
70101efc:	ea27 0909 	bic.w	r9, r7, r9
70101f00:	f3c6 1700 	ubfx	r7, r6, #4, #1
70101f04:	409f      	lsls	r7, r3
70101f06:	ea47 0709 	orr.w	r7, r7, r9
70101f0a:	6047      	str	r7, [r0, #4]
70101f0c:	68c7      	ldr	r7, [r0, #12]
70101f0e:	fa0c fc08 	lsl.w	ip, ip, r8
70101f12:	ea07 070e 	and.w	r7, r7, lr
70101f16:	ea4c 0707 	orr.w	r7, ip, r7
70101f1a:	2d02      	cmp	r5, #2
70101f1c:	60c7      	str	r7, [r0, #12]
70101f1e:	d11a      	bne.n	70101f56 <HAL_GPIO_Init+0xb2>
70101f20:	ea4f 0cd3 	mov.w	ip, r3, lsr #3
70101f24:	eb00 0c8c 	add.w	ip, r0, ip, lsl #2
70101f28:	f003 0907 	and.w	r9, r3, #7
70101f2c:	f8dc 7020 	ldr.w	r7, [ip, #32]
70101f30:	ea4f 0989 	mov.w	r9, r9, lsl #2
70101f34:	fa0a fb09 	lsl.w	fp, sl, r9
70101f38:	ea27 0b0b 	bic.w	fp, r7, fp
70101f3c:	690f      	ldr	r7, [r1, #16]
70101f3e:	fa07 f709 	lsl.w	r7, r7, r9
70101f42:	ea47 070b 	orr.w	r7, r7, fp
70101f46:	f8cc 7020 	str.w	r7, [ip, #32]
70101f4a:	e004      	b.n	70101f56 <HAL_GPIO_Init+0xb2>
70101f4c:	2d03      	cmp	r5, #3
70101f4e:	d1dd      	bne.n	70101f0c <HAL_GPIO_Init+0x68>
70101f50:	f1bc 0f01 	cmp.w	ip, #1
70101f54:	d1da      	bne.n	70101f0c <HAL_GPIO_Init+0x68>
70101f56:	6807      	ldr	r7, [r0, #0]
70101f58:	fa05 f508 	lsl.w	r5, r5, r8
70101f5c:	ea07 070e 	and.w	r7, r7, lr
70101f60:	433d      	orrs	r5, r7
70101f62:	f416 3f40 	tst.w	r6, #196608	@ 0x30000
70101f66:	6005      	str	r5, [r0, #0]
70101f68:	d064      	beq.n	70102034 <HAL_GPIO_Init+0x190>
70101f6a:	f023 0703 	bic.w	r7, r3, #3
70101f6e:	f107 47ac 	add.w	r7, r7, #1442840576	@ 0x56000000
70101f72:	f507 3714 	add.w	r7, r7, #151552	@ 0x25000
70101f76:	f003 0c03 	and.w	ip, r3, #3
70101f7a:	6e3d      	ldr	r5, [r7, #96]	@ 0x60
70101f7c:	ea4f 0ccc 	mov.w	ip, ip, lsl #3
70101f80:	fa0a fe0c 	lsl.w	lr, sl, ip
70101f84:	ea25 0e0e 	bic.w	lr, r5, lr
70101f88:	4d37      	ldr	r5, [pc, #220]	@ (70102068 <HAL_GPIO_Init+0x1c4>)
70101f8a:	42a8      	cmp	r0, r5
70101f8c:	d054      	beq.n	70102038 <HAL_GPIO_Init+0x194>
70101f8e:	f505 6580 	add.w	r5, r5, #1024	@ 0x400
70101f92:	42a8      	cmp	r0, r5
70101f94:	d052      	beq.n	7010203c <HAL_GPIO_Init+0x198>
70101f96:	f505 6580 	add.w	r5, r5, #1024	@ 0x400
70101f9a:	42a8      	cmp	r0, r5
70101f9c:	d050      	beq.n	70102040 <HAL_GPIO_Init+0x19c>
70101f9e:	f505 6580 	add.w	r5, r5, #1024	@ 0x400
70101fa2:	42a8      	cmp	r0, r5
70101fa4:	d04e      	beq.n	70102044 <HAL_GPIO_Init+0x1a0>
70101fa6:	f505 6580 	add.w	r5, r5, #1024	@ 0x400
70101faa:	42a8      	cmp	r0, r5
70101fac:	d04c      	beq.n	70102048 <HAL_GPIO_Init+0x1a4>
70101fae:	f505 6580 	add.w	r5, r5, #1024	@ 0x400
70101fb2:	42a8      	cmp	r0, r5
70101fb4:	d04a      	beq.n	7010204c <HAL_GPIO_Init+0x1a8>
70101fb6:	f505 6580 	add.w	r5, r5, #1024	@ 0x400
70101fba:	42a8      	cmp	r0, r5
70101fbc:	d048      	beq.n	70102050 <HAL_GPIO_Init+0x1ac>
70101fbe:	f505 6580 	add.w	r5, r5, #1024	@ 0x400
70101fc2:	42a8      	cmp	r0, r5
70101fc4:	d046      	beq.n	70102054 <HAL_GPIO_Init+0x1b0>
70101fc6:	f505 55c0 	add.w	r5, r5, #6144	@ 0x1800
70101fca:	42a8      	cmp	r0, r5
70101fcc:	d044      	beq.n	70102058 <HAL_GPIO_Init+0x1b4>
70101fce:	f505 6580 	add.w	r5, r5, #1024	@ 0x400
70101fd2:	42a8      	cmp	r0, r5
70101fd4:	d042      	beq.n	7010205c <HAL_GPIO_Init+0x1b8>
70101fd6:	f505 6580 	add.w	r5, r5, #1024	@ 0x400
70101fda:	42a8      	cmp	r0, r5
70101fdc:	d040      	beq.n	70102060 <HAL_GPIO_Init+0x1bc>
70101fde:	f505 6580 	add.w	r5, r5, #1024	@ 0x400
70101fe2:	42a8      	cmp	r0, r5
70101fe4:	bf14      	ite	ne
70101fe6:	2510      	movne	r5, #16
70101fe8:	250b      	moveq	r5, #11
70101fea:	fa05 f50c 	lsl.w	r5, r5, ip
70101fee:	ea45 050e 	orr.w	r5, r5, lr
70101ff2:	663d      	str	r5, [r7, #96]	@ 0x60
70101ff4:	43d7      	mvns	r7, r2
70101ff6:	f8d4 5080 	ldr.w	r5, [r4, #128]	@ 0x80
70101ffa:	f416 3f80 	tst.w	r6, #65536	@ 0x10000
70101ffe:	bf0c      	ite	eq
70102000:	403d      	andeq	r5, r7
70102002:	4315      	orrne	r5, r2
70102004:	f8c4 5080 	str.w	r5, [r4, #128]	@ 0x80
70102008:	f8d4 5084 	ldr.w	r5, [r4, #132]	@ 0x84
7010200c:	f416 3f00 	tst.w	r6, #131072	@ 0x20000
70102010:	bf0c      	ite	eq
70102012:	403d      	andeq	r5, r7
70102014:	4315      	orrne	r5, r2
70102016:	f8c4 5084 	str.w	r5, [r4, #132]	@ 0x84
7010201a:	6825      	ldr	r5, [r4, #0]
7010201c:	f416 1f80 	tst.w	r6, #1048576	@ 0x100000
70102020:	bf0c      	ite	eq
70102022:	403d      	andeq	r5, r7
70102024:	4315      	orrne	r5, r2
70102026:	6025      	str	r5, [r4, #0]
70102028:	6865      	ldr	r5, [r4, #4]
7010202a:	02b6      	lsls	r6, r6, #10
7010202c:	bf54      	ite	pl
7010202e:	403d      	andpl	r5, r7
70102030:	4315      	orrmi	r5, r2
70102032:	6065      	str	r5, [r4, #4]
70102034:	3301      	adds	r3, #1
70102036:	e73b      	b.n	70101eb0 <HAL_GPIO_Init+0xc>
70102038:	2500      	movs	r5, #0
7010203a:	e7d6      	b.n	70101fea <HAL_GPIO_Init+0x146>
7010203c:	2501      	movs	r5, #1
7010203e:	e7d4      	b.n	70101fea <HAL_GPIO_Init+0x146>
70102040:	2502      	movs	r5, #2
70102042:	e7d2      	b.n	70101fea <HAL_GPIO_Init+0x146>
70102044:	2503      	movs	r5, #3
70102046:	e7d0      	b.n	70101fea <HAL_GPIO_Init+0x146>
70102048:	2504      	movs	r5, #4
7010204a:	e7ce      	b.n	70101fea <HAL_GPIO_Init+0x146>
7010204c:	2505      	movs	r5, #5
7010204e:	e7cc      	b.n	70101fea <HAL_GPIO_Init+0x146>
70102050:	2506      	movs	r5, #6
70102052:	e7ca      	b.n	70101fea <HAL_GPIO_Init+0x146>
70102054:	2507      	movs	r5, #7
70102056:	e7c8      	b.n	70101fea <HAL_GPIO_Init+0x146>
70102058:	2508      	movs	r5, #8
7010205a:	e7c6      	b.n	70101fea <HAL_GPIO_Init+0x146>
7010205c:	2509      	movs	r5, #9
7010205e:	e7c4      	b.n	70101fea <HAL_GPIO_Init+0x146>
70102060:	250a      	movs	r5, #10
70102062:	e7c2      	b.n	70101fea <HAL_GPIO_Init+0x146>
70102064:	56025000 	.word	0x56025000
70102068:	56020000 	.word	0x56020000

7010206c <HAL_GPIO_WritePin>:
7010206c:	b10a      	cbz	r2, 70102072 <HAL_GPIO_WritePin+0x6>
7010206e:	6181      	str	r1, [r0, #24]
70102070:	4770      	bx	lr
70102072:	6281      	str	r1, [r0, #40]	@ 0x28
70102074:	4770      	bx	lr

70102076 <HAL_GPIO_ConfigPinAttributes>:
70102076:	b510      	push	{r4, lr}
70102078:	f240 1401 	movw	r4, #257	@ 0x101
7010207c:	4394      	bics	r4, r2
7010207e:	6b03      	ldr	r3, [r0, #48]	@ 0x30
70102080:	d109      	bne.n	70102096 <HAL_GPIO_ConfigPinAttributes+0x20>
70102082:	430b      	orrs	r3, r1
70102084:	f240 2402 	movw	r4, #514	@ 0x202
70102088:	6303      	str	r3, [r0, #48]	@ 0x30
7010208a:	4394      	bics	r4, r2
7010208c:	6b43      	ldr	r3, [r0, #52]	@ 0x34
7010208e:	d106      	bne.n	7010209e <HAL_GPIO_ConfigPinAttributes+0x28>
70102090:	430b      	orrs	r3, r1
70102092:	6343      	str	r3, [r0, #52]	@ 0x34
70102094:	bd10      	pop	{r4, pc}
70102096:	05d4      	lsls	r4, r2, #23
70102098:	bf48      	it	mi
7010209a:	438b      	bicmi	r3, r1
7010209c:	e7f2      	b.n	70102084 <HAL_GPIO_ConfigPinAttributes+0xe>
7010209e:	0592      	lsls	r2, r2, #22
701020a0:	bf48      	it	mi
701020a2:	438b      	bicmi	r3, r1
701020a4:	e7f5      	b.n	70102092 <HAL_GPIO_ConfigPinAttributes+0x1c>
	...

701020a8 <HAL_PWREx_EnableVddIO2>:
701020a8:	4a02      	ldr	r2, [pc, #8]	@ (701020b4 <HAL_PWREx_EnableVddIO2+0xc>)
701020aa:	6bd3      	ldr	r3, [r2, #60]	@ 0x3c
701020ac:	f443 7380 	orr.w	r3, r3, #256	@ 0x100
701020b0:	63d3      	str	r3, [r2, #60]	@ 0x3c
701020b2:	4770      	bx	lr
701020b4:	56024800 	.word	0x56024800

701020b8 <HAL_PWREx_EnableVddIO3>:
701020b8:	4a02      	ldr	r2, [pc, #8]	@ (701020c4 <HAL_PWREx_EnableVddIO3+0xc>)
701020ba:	6bd3      	ldr	r3, [r2, #60]	@ 0x3c
701020bc:	f443 7300 	orr.w	r3, r3, #512	@ 0x200
701020c0:	63d3      	str	r3, [r2, #60]	@ 0x3c
701020c2:	4770      	bx	lr
701020c4:	56024800 	.word	0x56024800

701020c8 <HAL_PWREx_EnableVddIO4>:
701020c8:	4a02      	ldr	r2, [pc, #8]	@ (701020d4 <HAL_PWREx_EnableVddIO4+0xc>)
701020ca:	6b53      	ldr	r3, [r2, #52]	@ 0x34
701020cc:	f443 7380 	orr.w	r3, r3, #256	@ 0x100
701020d0:	6353      	str	r3, [r2, #52]	@ 0x34
701020d2:	4770      	bx	lr
701020d4:	56024800 	.word	0x56024800

701020d8 <RCC_GetSysClockFreq>:
701020d8:	b510      	push	{r4, lr}
701020da:	460c      	mov	r4, r1
701020dc:	4919      	ldr	r1, [pc, #100]	@ (70102144 <RCC_GetSysClockFreq+0x6c>)
701020de:	6a0a      	ldr	r2, [r1, #32]
701020e0:	f002 5240 	and.w	r2, r2, #805306368	@ 0x30000000
701020e4:	f1b2 5f00 	cmp.w	r2, #536870912	@ 0x20000000
701020e8:	d027      	beq.n	7010213a <RCC_GetSysClockFreq+0x62>
701020ea:	d806      	bhi.n	701020fa <RCC_GetSysClockFreq+0x22>
701020ec:	b952      	cbnz	r2, 70102104 <RCC_GetSysClockFreq+0x2c>
701020ee:	6c8b      	ldr	r3, [r1, #72]	@ 0x48
701020f0:	4815      	ldr	r0, [pc, #84]	@ (70102148 <RCC_GetSysClockFreq+0x70>)
701020f2:	f3c3 13c1 	ubfx	r3, r3, #7, #2
701020f6:	40d8      	lsrs	r0, r3
701020f8:	bd10      	pop	{r4, pc}
701020fa:	f1b2 5f40 	cmp.w	r2, #805306368	@ 0x30000000
701020fe:	d006      	beq.n	7010210e <RCC_GetSysClockFreq+0x36>
70102100:	2000      	movs	r0, #0
70102102:	e7f9      	b.n	701020f8 <RCC_GetSysClockFreq+0x20>
70102104:	6c4b      	ldr	r3, [r1, #68]	@ 0x44
70102106:	059b      	lsls	r3, r3, #22
70102108:	d519      	bpl.n	7010213e <RCC_GetSysClockFreq+0x66>
7010210a:	4810      	ldr	r0, [pc, #64]	@ (7010214c <RCC_GetSysClockFreq+0x74>)
7010210c:	e7f4      	b.n	701020f8 <RCC_GetSysClockFreq+0x20>
7010210e:	f1b0 5f00 	cmp.w	r0, #536870912	@ 0x20000000
70102112:	d00f      	beq.n	70102134 <RCC_GetSysClockFreq+0x5c>
70102114:	d805      	bhi.n	70102122 <RCC_GetSysClockFreq+0x4a>
70102116:	b950      	cbnz	r0, 7010212e <RCC_GetSysClockFreq+0x56>
70102118:	f001 fe40 	bl	70103d9c <HAL_RCCEx_GetPLL1CLKFreq>
7010211c:	fbb0 f0f4 	udiv	r0, r0, r4
70102120:	e7ea      	b.n	701020f8 <RCC_GetSysClockFreq+0x20>
70102122:	f1b0 5f40 	cmp.w	r0, #805306368	@ 0x30000000
70102126:	d1eb      	bne.n	70102100 <RCC_GetSysClockFreq+0x28>
70102128:	f001 fef8 	bl	70103f1c <HAL_RCCEx_GetPLL4CLKFreq>
7010212c:	e7f6      	b.n	7010211c <RCC_GetSysClockFreq+0x44>
7010212e:	f001 fe75 	bl	70103e1c <HAL_RCCEx_GetPLL2CLKFreq>
70102132:	e7f3      	b.n	7010211c <RCC_GetSysClockFreq+0x44>
70102134:	f001 feb2 	bl	70103e9c <HAL_RCCEx_GetPLL3CLKFreq>
70102138:	e7f0      	b.n	7010211c <RCC_GetSysClockFreq+0x44>
7010213a:	4805      	ldr	r0, [pc, #20]	@ (70102150 <RCC_GetSysClockFreq+0x78>)
7010213c:	e7dc      	b.n	701020f8 <RCC_GetSysClockFreq+0x20>
7010213e:	4805      	ldr	r0, [pc, #20]	@ (70102154 <RCC_GetSysClockFreq+0x7c>)
70102140:	e7da      	b.n	701020f8 <RCC_GetSysClockFreq+0x20>
70102142:	bf00      	nop
70102144:	56028000 	.word	0x56028000
70102148:	03d09000 	.word	0x03d09000
7010214c:	00f42400 	.word	0x00f42400
70102150:	016e3600 	.word	0x016e3600
70102154:	003d0900 	.word	0x003d0900

70102158 <HAL_RCC_GetCpuClockFreq>:
70102158:	4b1e      	ldr	r3, [pc, #120]	@ (701021d4 <HAL_RCC_GetCpuClockFreq+0x7c>)
7010215a:	b510      	push	{r4, lr}
7010215c:	6a1a      	ldr	r2, [r3, #32]
7010215e:	f402 1240 	and.w	r2, r2, #3145728	@ 0x300000
70102162:	f5b2 1f00 	cmp.w	r2, #2097152	@ 0x200000
70102166:	d031      	beq.n	701021cc <HAL_RCC_GetCpuClockFreq+0x74>
70102168:	d806      	bhi.n	70102178 <HAL_RCC_GetCpuClockFreq+0x20>
7010216a:	b952      	cbnz	r2, 70102182 <HAL_RCC_GetCpuClockFreq+0x2a>
7010216c:	6c9b      	ldr	r3, [r3, #72]	@ 0x48
7010216e:	481a      	ldr	r0, [pc, #104]	@ (701021d8 <HAL_RCC_GetCpuClockFreq+0x80>)
70102170:	f3c3 13c1 	ubfx	r3, r3, #7, #2
70102174:	40d8      	lsrs	r0, r3
70102176:	bd10      	pop	{r4, pc}
70102178:	f5b2 1f40 	cmp.w	r2, #3145728	@ 0x300000
7010217c:	d006      	beq.n	7010218c <HAL_RCC_GetCpuClockFreq+0x34>
7010217e:	2000      	movs	r0, #0
70102180:	e7f9      	b.n	70102176 <HAL_RCC_GetCpuClockFreq+0x1e>
70102182:	6c5b      	ldr	r3, [r3, #68]	@ 0x44
70102184:	059b      	lsls	r3, r3, #22
70102186:	d523      	bpl.n	701021d0 <HAL_RCC_GetCpuClockFreq+0x78>
70102188:	4814      	ldr	r0, [pc, #80]	@ (701021dc <HAL_RCC_GetCpuClockFreq+0x84>)
7010218a:	e7f4      	b.n	70102176 <HAL_RCC_GetCpuClockFreq+0x1e>
7010218c:	f8d3 00c4 	ldr.w	r0, [r3, #196]	@ 0xc4
70102190:	f8d3 30c4 	ldr.w	r3, [r3, #196]	@ 0xc4
70102194:	f3c0 4007 	ubfx	r0, r0, #16, #8
70102198:	f003 5340 	and.w	r3, r3, #805306368	@ 0x30000000
7010219c:	f1b3 5f00 	cmp.w	r3, #536870912	@ 0x20000000
701021a0:	f100 0401 	add.w	r4, r0, #1
701021a4:	d00f      	beq.n	701021c6 <HAL_RCC_GetCpuClockFreq+0x6e>
701021a6:	d805      	bhi.n	701021b4 <HAL_RCC_GetCpuClockFreq+0x5c>
701021a8:	b953      	cbnz	r3, 701021c0 <HAL_RCC_GetCpuClockFreq+0x68>
701021aa:	f001 fdf7 	bl	70103d9c <HAL_RCCEx_GetPLL1CLKFreq>
701021ae:	fbb0 f0f4 	udiv	r0, r0, r4
701021b2:	e7e0      	b.n	70102176 <HAL_RCC_GetCpuClockFreq+0x1e>
701021b4:	f1b3 5f40 	cmp.w	r3, #805306368	@ 0x30000000
701021b8:	d1e1      	bne.n	7010217e <HAL_RCC_GetCpuClockFreq+0x26>
701021ba:	f001 feaf 	bl	70103f1c <HAL_RCCEx_GetPLL4CLKFreq>
701021be:	e7f6      	b.n	701021ae <HAL_RCC_GetCpuClockFreq+0x56>
701021c0:	f001 fe2c 	bl	70103e1c <HAL_RCCEx_GetPLL2CLKFreq>
701021c4:	e7f3      	b.n	701021ae <HAL_RCC_GetCpuClockFreq+0x56>
701021c6:	f001 fe69 	bl	70103e9c <HAL_RCCEx_GetPLL3CLKFreq>
701021ca:	e7f0      	b.n	701021ae <HAL_RCC_GetCpuClockFreq+0x56>
701021cc:	4804      	ldr	r0, [pc, #16]	@ (701021e0 <HAL_RCC_GetCpuClockFreq+0x88>)
701021ce:	e7d2      	b.n	70102176 <HAL_RCC_GetCpuClockFreq+0x1e>
701021d0:	4804      	ldr	r0, [pc, #16]	@ (701021e4 <HAL_RCC_GetCpuClockFreq+0x8c>)
701021d2:	e7d0      	b.n	70102176 <HAL_RCC_GetCpuClockFreq+0x1e>
701021d4:	56028000 	.word	0x56028000
701021d8:	03d09000 	.word	0x03d09000
701021dc:	00f42400 	.word	0x00f42400
701021e0:	016e3600 	.word	0x016e3600
701021e4:	003d0900 	.word	0x003d0900

701021e8 <HAL_RCC_GetSysClockFreq>:
701021e8:	4b05      	ldr	r3, [pc, #20]	@ (70102200 <HAL_RCC_GetSysClockFreq+0x18>)
701021ea:	f8d3 00c8 	ldr.w	r0, [r3, #200]	@ 0xc8
701021ee:	f8d3 10c8 	ldr.w	r1, [r3, #200]	@ 0xc8
701021f2:	f000 5040 	and.w	r0, r0, #805306368	@ 0x30000000
701021f6:	f3c1 4107 	ubfx	r1, r1, #16, #8
701021fa:	3101      	adds	r1, #1
701021fc:	f7ff bf6c 	b.w	701020d8 <RCC_GetSysClockFreq>
70102200:	56028000 	.word	0x56028000

70102204 <HAL_RCC_GetClockConfig>:
70102204:	237f      	movs	r3, #127	@ 0x7f
70102206:	4a1f      	ldr	r2, [pc, #124]	@ (70102284 <HAL_RCC_GetClockConfig+0x80>)
70102208:	6003      	str	r3, [r0, #0]
7010220a:	6a13      	ldr	r3, [r2, #32]
7010220c:	091b      	lsrs	r3, r3, #4
7010220e:	f403 3140 	and.w	r1, r3, #196608	@ 0x30000
70102212:	f003 7340 	and.w	r3, r3, #50331648	@ 0x3000000
70102216:	6041      	str	r1, [r0, #4]
70102218:	6083      	str	r3, [r0, #8]
7010221a:	6a53      	ldr	r3, [r2, #36]	@ 0x24
7010221c:	f403 01e0 	and.w	r1, r3, #7340032	@ 0x700000
70102220:	60c1      	str	r1, [r0, #12]
70102222:	f003 0107 	and.w	r1, r3, #7
70102226:	6101      	str	r1, [r0, #16]
70102228:	f003 0170 	and.w	r1, r3, #112	@ 0x70
7010222c:	6141      	str	r1, [r0, #20]
7010222e:	f403 41e0 	and.w	r1, r3, #28672	@ 0x7000
70102232:	f403 23e0 	and.w	r3, r3, #458752	@ 0x70000
70102236:	6181      	str	r1, [r0, #24]
70102238:	61c3      	str	r3, [r0, #28]
7010223a:	f8d2 30c4 	ldr.w	r3, [r2, #196]	@ 0xc4
7010223e:	f003 5140 	and.w	r1, r3, #805306368	@ 0x30000000
70102242:	f3c3 4307 	ubfx	r3, r3, #16, #8
70102246:	3301      	adds	r3, #1
70102248:	6201      	str	r1, [r0, #32]
7010224a:	6243      	str	r3, [r0, #36]	@ 0x24
7010224c:	f8d2 30c8 	ldr.w	r3, [r2, #200]	@ 0xc8
70102250:	f003 5140 	and.w	r1, r3, #805306368	@ 0x30000000
70102254:	f3c3 4307 	ubfx	r3, r3, #16, #8
70102258:	3301      	adds	r3, #1
7010225a:	6281      	str	r1, [r0, #40]	@ 0x28
7010225c:	62c3      	str	r3, [r0, #44]	@ 0x2c
7010225e:	f8d2 30d8 	ldr.w	r3, [r2, #216]	@ 0xd8
70102262:	f003 5140 	and.w	r1, r3, #805306368	@ 0x30000000
70102266:	f3c3 4307 	ubfx	r3, r3, #16, #8
7010226a:	3301      	adds	r3, #1
7010226c:	6301      	str	r1, [r0, #48]	@ 0x30
7010226e:	6343      	str	r3, [r0, #52]	@ 0x34
70102270:	f8d2 30ec 	ldr.w	r3, [r2, #236]	@ 0xec
70102274:	f003 5240 	and.w	r2, r3, #805306368	@ 0x30000000
70102278:	f3c3 4307 	ubfx	r3, r3, #16, #8
7010227c:	3301      	adds	r3, #1
7010227e:	6382      	str	r2, [r0, #56]	@ 0x38
70102280:	63c3      	str	r3, [r0, #60]	@ 0x3c
70102282:	4770      	bx	lr
70102284:	56028000 	.word	0x56028000

70102288 <LL_RCC_HSE_SelectHSEAsDiv2Clock>:
70102288:	4a02      	ldr	r2, [pc, #8]	@ (70102294 <LL_RCC_HSE_SelectHSEAsDiv2Clock+0xc>)
7010228a:	6d53      	ldr	r3, [r2, #84]	@ 0x54
7010228c:	f023 0340 	bic.w	r3, r3, #64	@ 0x40
70102290:	6553      	str	r3, [r2, #84]	@ 0x54
70102292:	4770      	bx	lr
70102294:	56028000 	.word	0x56028000

70102298 <LL_RCC_HSE_SelectHSEDiv2AsDiv2Clock>:
70102298:	4a02      	ldr	r2, [pc, #8]	@ (701022a4 <LL_RCC_HSE_SelectHSEDiv2AsDiv2Clock+0xc>)
7010229a:	6d53      	ldr	r3, [r2, #84]	@ 0x54
7010229c:	f043 0340 	orr.w	r3, r3, #64	@ 0x40
701022a0:	6553      	str	r3, [r2, #84]	@ 0x54
701022a2:	4770      	bx	lr
701022a4:	56028000 	.word	0x56028000

701022a8 <LL_RCC_HSE_IsSelectedHSEDiv2AsDiv2Clock>:
701022a8:	4b02      	ldr	r3, [pc, #8]	@ (701022b4 <LL_RCC_HSE_IsSelectedHSEDiv2AsDiv2Clock+0xc>)
701022aa:	6d58      	ldr	r0, [r3, #84]	@ 0x54
701022ac:	f3c0 1080 	ubfx	r0, r0, #6, #1
701022b0:	4770      	bx	lr
701022b2:	bf00      	nop
701022b4:	56028000 	.word	0x56028000

701022b8 <LL_RCC_HSE_IsReady>:
701022b8:	4b02      	ldr	r3, [pc, #8]	@ (701022c4 <LL_RCC_HSE_IsReady+0xc>)
701022ba:	6858      	ldr	r0, [r3, #4]
701022bc:	f3c0 1000 	ubfx	r0, r0, #4, #1
701022c0:	4770      	bx	lr
701022c2:	bf00      	nop
701022c4:	56028000 	.word	0x56028000

701022c8 <LL_RCC_HSI_IsReady>:
701022c8:	4b02      	ldr	r3, [pc, #8]	@ (701022d4 <LL_RCC_HSI_IsReady+0xc>)
701022ca:	6858      	ldr	r0, [r3, #4]
701022cc:	f3c0 00c0 	ubfx	r0, r0, #3, #1
701022d0:	4770      	bx	lr
701022d2:	bf00      	nop
701022d4:	56028000 	.word	0x56028000

701022d8 <LL_RCC_MSI_IsReady>:
701022d8:	4b02      	ldr	r3, [pc, #8]	@ (701022e4 <LL_RCC_MSI_IsReady+0xc>)
701022da:	6858      	ldr	r0, [r3, #4]
701022dc:	f3c0 0080 	ubfx	r0, r0, #2, #1
701022e0:	4770      	bx	lr
701022e2:	bf00      	nop
701022e4:	56028000 	.word	0x56028000

701022e8 <LL_RCC_LSE_IsReady>:
701022e8:	4b02      	ldr	r3, [pc, #8]	@ (701022f4 <LL_RCC_LSE_IsReady+0xc>)
701022ea:	6858      	ldr	r0, [r3, #4]
701022ec:	f3c0 0040 	ubfx	r0, r0, #1, #1
701022f0:	4770      	bx	lr
701022f2:	bf00      	nop
701022f4:	56028000 	.word	0x56028000

701022f8 <LL_RCC_SetClockSource>:
701022f8:	4907      	ldr	r1, [pc, #28]	@ (70102318 <LL_RCC_SetClockSource+0x20>)
701022fa:	b530      	push	{r4, r5, lr}
701022fc:	b2c4      	uxtb	r4, r0
701022fe:	f3c0 2504 	ubfx	r5, r0, #8, #5
70102302:	5863      	ldr	r3, [r4, r1]
70102304:	0e02      	lsrs	r2, r0, #24
70102306:	40aa      	lsls	r2, r5
70102308:	f3c0 4007 	ubfx	r0, r0, #16, #8
7010230c:	ea23 0302 	bic.w	r3, r3, r2
70102310:	40a8      	lsls	r0, r5
70102312:	4303      	orrs	r3, r0
70102314:	5063      	str	r3, [r4, r1]
70102316:	bd30      	pop	{r4, r5, pc}
70102318:	56028144 	.word	0x56028144

7010231c <LL_RCC_GetClockSource>:
7010231c:	4b05      	ldr	r3, [pc, #20]	@ (70102334 <LL_RCC_GetClockSource+0x18>)
7010231e:	b2c2      	uxtb	r2, r0
70102320:	58d1      	ldr	r1, [r2, r3]
70102322:	f3c0 2204 	ubfx	r2, r0, #8, #5
70102326:	0e03      	lsrs	r3, r0, #24
70102328:	4093      	lsls	r3, r2
7010232a:	400b      	ands	r3, r1
7010232c:	40d3      	lsrs	r3, r2
7010232e:	ea40 4003 	orr.w	r0, r0, r3, lsl #16
70102332:	4770      	bx	lr
70102334:	56028144 	.word	0x56028144

70102338 <LL_RCC_IC7_IsEnabled>:
70102338:	4b02      	ldr	r3, [pc, #8]	@ (70102344 <LL_RCC_IC7_IsEnabled+0xc>)
7010233a:	f8d3 0240 	ldr.w	r0, [r3, #576]	@ 0x240
7010233e:	f3c0 1080 	ubfx	r0, r0, #6, #1
70102342:	4770      	bx	lr
70102344:	56028000 	.word	0x56028000

70102348 <LL_RCC_IC7_GetDivider>:
70102348:	4b03      	ldr	r3, [pc, #12]	@ (70102358 <LL_RCC_IC7_GetDivider+0x10>)
7010234a:	f8d3 00dc 	ldr.w	r0, [r3, #220]	@ 0xdc
7010234e:	f3c0 4007 	ubfx	r0, r0, #16, #8
70102352:	3001      	adds	r0, #1
70102354:	4770      	bx	lr
70102356:	bf00      	nop
70102358:	56028000 	.word	0x56028000

7010235c <LL_RCC_IC8_IsEnabled>:
7010235c:	4b02      	ldr	r3, [pc, #8]	@ (70102368 <LL_RCC_IC8_IsEnabled+0xc>)
7010235e:	f8d3 0240 	ldr.w	r0, [r3, #576]	@ 0x240
70102362:	f3c0 10c0 	ubfx	r0, r0, #7, #1
70102366:	4770      	bx	lr
70102368:	56028000 	.word	0x56028000

7010236c <LL_RCC_IC8_GetDivider>:
7010236c:	4b03      	ldr	r3, [pc, #12]	@ (7010237c <LL_RCC_IC8_GetDivider+0x10>)
7010236e:	f8d3 00e0 	ldr.w	r0, [r3, #224]	@ 0xe0
70102372:	f3c0 4007 	ubfx	r0, r0, #16, #8
70102376:	3001      	adds	r0, #1
70102378:	4770      	bx	lr
7010237a:	bf00      	nop
7010237c:	56028000 	.word	0x56028000

70102380 <LL_RCC_IC9_IsEnabled>:
70102380:	4b02      	ldr	r3, [pc, #8]	@ (7010238c <LL_RCC_IC9_IsEnabled+0xc>)
70102382:	f8d3 0240 	ldr.w	r0, [r3, #576]	@ 0x240
70102386:	f3c0 2000 	ubfx	r0, r0, #8, #1
7010238a:	4770      	bx	lr
7010238c:	56028000 	.word	0x56028000

70102390 <LL_RCC_IC9_GetDivider>:
70102390:	4b03      	ldr	r3, [pc, #12]	@ (701023a0 <LL_RCC_IC9_GetDivider+0x10>)
70102392:	f8d3 00e4 	ldr.w	r0, [r3, #228]	@ 0xe4
70102396:	f3c0 4007 	ubfx	r0, r0, #16, #8
7010239a:	3001      	adds	r0, #1
7010239c:	4770      	bx	lr
7010239e:	bf00      	nop
701023a0:	56028000 	.word	0x56028000

701023a4 <LL_RCC_IC14_IsEnabled>:
701023a4:	4b02      	ldr	r3, [pc, #8]	@ (701023b0 <LL_RCC_IC14_IsEnabled+0xc>)
701023a6:	f8d3 0240 	ldr.w	r0, [r3, #576]	@ 0x240
701023aa:	f3c0 3040 	ubfx	r0, r0, #13, #1
701023ae:	4770      	bx	lr
701023b0:	56028000 	.word	0x56028000

701023b4 <LL_RCC_IC14_GetDivider>:
701023b4:	4b03      	ldr	r3, [pc, #12]	@ (701023c4 <LL_RCC_IC14_GetDivider+0x10>)
701023b6:	f8d3 00f8 	ldr.w	r0, [r3, #248]	@ 0xf8
701023ba:	f3c0 4007 	ubfx	r0, r0, #16, #8
701023be:	3001      	adds	r0, #1
701023c0:	4770      	bx	lr
701023c2:	bf00      	nop
701023c4:	56028000 	.word	0x56028000

701023c8 <LL_RCC_IC15_IsEnabled>:
701023c8:	4b02      	ldr	r3, [pc, #8]	@ (701023d4 <LL_RCC_IC15_IsEnabled+0xc>)
701023ca:	f8d3 0240 	ldr.w	r0, [r3, #576]	@ 0x240
701023ce:	f3c0 3080 	ubfx	r0, r0, #14, #1
701023d2:	4770      	bx	lr
701023d4:	56028000 	.word	0x56028000

701023d8 <LL_RCC_IC15_GetDivider>:
701023d8:	4b03      	ldr	r3, [pc, #12]	@ (701023e8 <LL_RCC_IC15_GetDivider+0x10>)
701023da:	f8d3 00fc 	ldr.w	r0, [r3, #252]	@ 0xfc
701023de:	f3c0 4007 	ubfx	r0, r0, #16, #8
701023e2:	3001      	adds	r0, #1
701023e4:	4770      	bx	lr
701023e6:	bf00      	nop
701023e8:	56028000 	.word	0x56028000

701023ec <RCCEx_GetHCLKFreq>:
701023ec:	4b02      	ldr	r3, [pc, #8]	@ (701023f8 <RCCEx_GetHCLKFreq+0xc>)
701023ee:	6a5b      	ldr	r3, [r3, #36]	@ 0x24
701023f0:	f3c3 5302 	ubfx	r3, r3, #20, #3
701023f4:	40d8      	lsrs	r0, r3
701023f6:	4770      	bx	lr
701023f8:	56028000 	.word	0x56028000

701023fc <RCCEx_GetPLLSourceFreq>:
701023fc:	f1b0 5f00 	cmp.w	r0, #536870912	@ 0x20000000
70102400:	b508      	push	{r3, lr}
70102402:	d01a      	beq.n	7010243a <RCCEx_GetPLLSourceFreq+0x3e>
70102404:	d80a      	bhi.n	7010241c <RCCEx_GetPLLSourceFreq+0x20>
70102406:	b970      	cbnz	r0, 70102426 <RCCEx_GetPLLSourceFreq+0x2a>
70102408:	f7ff ff5e 	bl	701022c8 <LL_RCC_HSI_IsReady>
7010240c:	b148      	cbz	r0, 70102422 <RCCEx_GetPLLSourceFreq+0x26>
7010240e:	4b10      	ldr	r3, [pc, #64]	@ (70102450 <RCCEx_GetPLLSourceFreq+0x54>)
70102410:	4810      	ldr	r0, [pc, #64]	@ (70102454 <RCCEx_GetPLLSourceFreq+0x58>)
70102412:	6c9b      	ldr	r3, [r3, #72]	@ 0x48
70102414:	f3c3 13c1 	ubfx	r3, r3, #7, #2
70102418:	40d8      	lsrs	r0, r3
7010241a:	e003      	b.n	70102424 <RCCEx_GetPLLSourceFreq+0x28>
7010241c:	f1b0 5f40 	cmp.w	r0, #805306368	@ 0x30000000
70102420:	d011      	beq.n	70102446 <RCCEx_GetPLLSourceFreq+0x4a>
70102422:	2000      	movs	r0, #0
70102424:	bd08      	pop	{r3, pc}
70102426:	f7ff ff57 	bl	701022d8 <LL_RCC_MSI_IsReady>
7010242a:	2800      	cmp	r0, #0
7010242c:	d0f9      	beq.n	70102422 <RCCEx_GetPLLSourceFreq+0x26>
7010242e:	4b08      	ldr	r3, [pc, #32]	@ (70102450 <RCCEx_GetPLLSourceFreq+0x54>)
70102430:	6c5b      	ldr	r3, [r3, #68]	@ 0x44
70102432:	059b      	lsls	r3, r3, #22
70102434:	d409      	bmi.n	7010244a <RCCEx_GetPLLSourceFreq+0x4e>
70102436:	4808      	ldr	r0, [pc, #32]	@ (70102458 <RCCEx_GetPLLSourceFreq+0x5c>)
70102438:	e7f4      	b.n	70102424 <RCCEx_GetPLLSourceFreq+0x28>
7010243a:	f7ff ff3d 	bl	701022b8 <LL_RCC_HSE_IsReady>
7010243e:	2800      	cmp	r0, #0
70102440:	d0ef      	beq.n	70102422 <RCCEx_GetPLLSourceFreq+0x26>
70102442:	4806      	ldr	r0, [pc, #24]	@ (7010245c <RCCEx_GetPLLSourceFreq+0x60>)
70102444:	e7ee      	b.n	70102424 <RCCEx_GetPLLSourceFreq+0x28>
70102446:	4806      	ldr	r0, [pc, #24]	@ (70102460 <RCCEx_GetPLLSourceFreq+0x64>)
70102448:	e7ec      	b.n	70102424 <RCCEx_GetPLLSourceFreq+0x28>
7010244a:	4806      	ldr	r0, [pc, #24]	@ (70102464 <RCCEx_GetPLLSourceFreq+0x68>)
7010244c:	e7ea      	b.n	70102424 <RCCEx_GetPLLSourceFreq+0x28>
7010244e:	bf00      	nop
70102450:	56028000 	.word	0x56028000
70102454:	03d09000 	.word	0x03d09000
70102458:	003d0900 	.word	0x003d0900
7010245c:	016e3600 	.word	0x016e3600
70102460:	00bb8000 	.word	0x00bb8000
70102464:	00f42400 	.word	0x00f42400

70102468 <RCCEx_CalcPLLFreq>:
70102468:	ee07 2a10 	vmov	s14, r2
7010246c:	ee06 3a10 	vmov	s12, r3
70102470:	ee07 0a90 	vmov	s15, r0
70102474:	eeb8 6ac6 	vcvt.f32.s32	s12, s12
70102478:	eddf 5a10 	vldr	s11, [pc, #64]	@ 701024bc <RCCEx_CalcPLLFreq+0x54>
7010247c:	eeb8 7ac7 	vcvt.f32.s32	s14, s14
70102480:	ee06 1a90 	vmov	s13, r1
70102484:	eea6 7a25 	vfma.f32	s14, s12, s11
70102488:	eef8 7ae7 	vcvt.f32.s32	s15, s15
7010248c:	ee67 7a87 	vmul.f32	s15, s15, s14
70102490:	eeb8 7ae6 	vcvt.f32.s32	s14, s13
70102494:	ee87 6a87 	vdiv.f32	s12, s15, s14
70102498:	eddd 7a00 	vldr	s15, [sp]
7010249c:	eef8 7ae7 	vcvt.f32.s32	s15, s15
701024a0:	eec6 6a27 	vdiv.f32	s13, s12, s15
701024a4:	eddd 7a01 	vldr	s15, [sp, #4]
701024a8:	eef8 7ae7 	vcvt.f32.s32	s15, s15
701024ac:	ee86 7aa7 	vdiv.f32	s14, s13, s15
701024b0:	eefc 7ac7 	vcvt.u32.f32	s15, s14
701024b4:	ee17 0a90 	vmov	r0, s15
701024b8:	4770      	bx	lr
701024ba:	bf00      	nop
701024bc:	33800000 	.word	0x33800000

701024c0 <HAL_RCCEx_PeriphCLKConfig>:
701024c0:	6803      	ldr	r3, [r0, #0]
701024c2:	e92d 41f0 	stmdb	sp!, {r4, r5, r6, r7, r8, lr}
701024c6:	0119      	lsls	r1, r3, #4
701024c8:	4604      	mov	r4, r0
701024ca:	d52b      	bpl.n	70102524 <HAL_RCCEx_PeriphCLKConfig+0x64>
701024cc:	4b2a      	ldr	r3, [pc, #168]	@ (70102578 <HAL_RCCEx_PeriphCLKConfig+0xb8>)
701024ce:	f8d0 1188 	ldr.w	r1, [r0, #392]	@ 0x188
701024d2:	f8d3 315c 	ldr.w	r3, [r3, #348]	@ 0x15c
701024d6:	f413 7340 	ands.w	r3, r3, #768	@ 0x300
701024da:	d136      	bne.n	7010254a <HAL_RCCEx_PeriphCLKConfig+0x8a>
701024dc:	f5b1 7f80 	cmp.w	r1, #256	@ 0x100
701024e0:	d108      	bne.n	701024f4 <HAL_RCCEx_PeriphCLKConfig+0x34>
701024e2:	f7ff fbe3 	bl	70101cac <HAL_GetTick>
701024e6:	f241 3688 	movw	r6, #5000	@ 0x1388
701024ea:	4605      	mov	r5, r0
701024ec:	f7ff fefc 	bl	701022e8 <LL_RCC_LSE_IsReady>
701024f0:	2800      	cmp	r0, #0
701024f2:	d039      	beq.n	70102568 <HAL_RCCEx_PeriphCLKConfig+0xa8>
701024f4:	f8d4 3188 	ldr.w	r3, [r4, #392]	@ 0x188
701024f8:	4a1f      	ldr	r2, [pc, #124]	@ (70102578 <HAL_RCCEx_PeriphCLKConfig+0xb8>)
701024fa:	f403 7040 	and.w	r0, r3, #768	@ 0x300
701024fe:	f5b0 7f40 	cmp.w	r0, #768	@ 0x300
70102502:	d108      	bne.n	70102516 <HAL_RCCEx_PeriphCLKConfig+0x56>
70102504:	f8d2 115c 	ldr.w	r1, [r2, #348]	@ 0x15c
70102508:	f423 7340 	bic.w	r3, r3, #768	@ 0x300
7010250c:	f421 317c 	bic.w	r1, r1, #258048	@ 0x3f000
70102510:	430b      	orrs	r3, r1
70102512:	f8c2 315c 	str.w	r3, [r2, #348]	@ 0x15c
70102516:	f8d2 315c 	ldr.w	r3, [r2, #348]	@ 0x15c
7010251a:	f423 7340 	bic.w	r3, r3, #768	@ 0x300
7010251e:	4303      	orrs	r3, r0
70102520:	f8c2 315c 	str.w	r3, [r2, #348]	@ 0x15c
70102524:	f04f 0800 	mov.w	r8, #0
70102528:	e9d4 5600 	ldrd	r5, r6, [r4]
7010252c:	076b      	lsls	r3, r5, #29
7010252e:	d540      	bpl.n	701025b2 <HAL_RCCEx_PeriphCLKConfig+0xf2>
70102530:	f8d4 10b8 	ldr.w	r1, [r4, #184]	@ 0xb8
70102534:	4b10      	ldr	r3, [pc, #64]	@ (70102578 <HAL_RCCEx_PeriphCLKConfig+0xb8>)
70102536:	1eca      	subs	r2, r1, #3
70102538:	2a04      	cmp	r2, #4
7010253a:	d832      	bhi.n	701025a2 <HAL_RCCEx_PeriphCLKConfig+0xe2>
7010253c:	e8df f012 	tbh	[pc, r2, lsl #1]
70102540:	002006cc 	.word	0x002006cc
70102544:	06ba06a8 	.word	0x06ba06a8
70102548:	06f6      	.short	0x06f6
7010254a:	f401 7240 	and.w	r2, r1, #768	@ 0x300
7010254e:	429a      	cmp	r2, r3
70102550:	d0c4      	beq.n	701024dc <HAL_RCCEx_PeriphCLKConfig+0x1c>
70102552:	4b0a      	ldr	r3, [pc, #40]	@ (7010257c <HAL_RCCEx_PeriphCLKConfig+0xbc>)
70102554:	6ada      	ldr	r2, [r3, #44]	@ 0x2c
70102556:	f042 0201 	orr.w	r2, r2, #1
7010255a:	62da      	str	r2, [r3, #44]	@ 0x2c
7010255c:	6adb      	ldr	r3, [r3, #44]	@ 0x2c
7010255e:	07da      	lsls	r2, r3, #31
70102560:	d4bc      	bmi.n	701024dc <HAL_RCCEx_PeriphCLKConfig+0x1c>
70102562:	f04f 0801 	mov.w	r8, #1
70102566:	e7df      	b.n	70102528 <HAL_RCCEx_PeriphCLKConfig+0x68>
70102568:	f7ff fba0 	bl	70101cac <HAL_GetTick>
7010256c:	1b40      	subs	r0, r0, r5
7010256e:	42b0      	cmp	r0, r6
70102570:	d9bc      	bls.n	701024ec <HAL_RCCEx_PeriphCLKConfig+0x2c>
70102572:	f04f 0803 	mov.w	r8, #3
70102576:	e7d7      	b.n	70102528 <HAL_RCCEx_PeriphCLKConfig+0x68>
70102578:	56028000 	.word	0x56028000
7010257c:	56024800 	.word	0x56024800
70102580:	f8d3 20d4 	ldr.w	r2, [r3, #212]	@ 0xd4
70102584:	6ae0      	ldr	r0, [r4, #44]	@ 0x2c
70102586:	6aa7      	ldr	r7, [r4, #40]	@ 0x28
70102588:	f022 5243 	bic.w	r2, r2, #817889280	@ 0x30c00000
7010258c:	f422 127c 	bic.w	r2, r2, #4128768	@ 0x3f0000
70102590:	3801      	subs	r0, #1
70102592:	433a      	orrs	r2, r7
70102594:	ea42 4200 	orr.w	r2, r2, r0, lsl #16
70102598:	f8c3 20d4 	str.w	r2, [r3, #212]	@ 0xd4
7010259c:	2210      	movs	r2, #16
7010259e:	f8c3 2a40 	str.w	r2, [r3, #2624]	@ 0xa40
701025a2:	4ac5      	ldr	r2, [pc, #788]	@ (701028b8 <HAL_RCCEx_PeriphCLKConfig+0x3f8>)
701025a4:	f8d2 315c 	ldr.w	r3, [r2, #348]	@ 0x15c
701025a8:	f023 0307 	bic.w	r3, r3, #7
701025ac:	430b      	orrs	r3, r1
701025ae:	f8c2 315c 	str.w	r3, [r2, #348]	@ 0x15c
701025b2:	0277      	lsls	r7, r6, #9
701025b4:	d519      	bpl.n	701025ea <HAL_RCCEx_PeriphCLKConfig+0x12a>
701025b6:	f8d4 00ac 	ldr.w	r0, [r4, #172]	@ 0xac
701025ba:	4bc0      	ldr	r3, [pc, #768]	@ (701028bc <HAL_RCCEx_PeriphCLKConfig+0x3fc>)
701025bc:	4298      	cmp	r0, r3
701025be:	f040 86c9 	bne.w	70103354 <HAL_RCCEx_PeriphCLKConfig+0xe94>
701025c2:	4abd      	ldr	r2, [pc, #756]	@ (701028b8 <HAL_RCCEx_PeriphCLKConfig+0x3f8>)
701025c4:	69e1      	ldr	r1, [r4, #28]
701025c6:	f8d2 30cc 	ldr.w	r3, [r2, #204]	@ 0xcc
701025ca:	69a7      	ldr	r7, [r4, #24]
701025cc:	f023 5343 	bic.w	r3, r3, #817889280	@ 0x30c00000
701025d0:	f423 137c 	bic.w	r3, r3, #4128768	@ 0x3f0000
701025d4:	3901      	subs	r1, #1
701025d6:	433b      	orrs	r3, r7
701025d8:	ea43 4301 	orr.w	r3, r3, r1, lsl #16
701025dc:	f8c2 30cc 	str.w	r3, [r2, #204]	@ 0xcc
701025e0:	2304      	movs	r3, #4
701025e2:	f8c2 3a40 	str.w	r3, [r2, #2624]	@ 0xa40
701025e6:	f7ff fe87 	bl	701022f8 <LL_RCC_SetClockSource>
701025ea:	0230      	lsls	r0, r6, #8
701025ec:	d519      	bpl.n	70102622 <HAL_RCCEx_PeriphCLKConfig+0x162>
701025ee:	f8d4 00b0 	ldr.w	r0, [r4, #176]	@ 0xb0
701025f2:	4bb3      	ldr	r3, [pc, #716]	@ (701028c0 <HAL_RCCEx_PeriphCLKConfig+0x400>)
701025f4:	4298      	cmp	r0, r3
701025f6:	f040 86cb 	bne.w	70103390 <HAL_RCCEx_PeriphCLKConfig+0xed0>
701025fa:	4aaf      	ldr	r2, [pc, #700]	@ (701028b8 <HAL_RCCEx_PeriphCLKConfig+0x3f8>)
701025fc:	69e1      	ldr	r1, [r4, #28]
701025fe:	f8d2 30cc 	ldr.w	r3, [r2, #204]	@ 0xcc
70102602:	69a7      	ldr	r7, [r4, #24]
70102604:	f023 5343 	bic.w	r3, r3, #817889280	@ 0x30c00000
70102608:	f423 137c 	bic.w	r3, r3, #4128768	@ 0x3f0000
7010260c:	3901      	subs	r1, #1
7010260e:	433b      	orrs	r3, r7
70102610:	ea43 4301 	orr.w	r3, r3, r1, lsl #16
70102614:	f8c2 30cc 	str.w	r3, [r2, #204]	@ 0xcc
70102618:	2304      	movs	r3, #4
7010261a:	f8c2 3a40 	str.w	r3, [r2, #2624]	@ 0xa40
7010261e:	f7ff fe6b 	bl	701022f8 <LL_RCC_SetClockSource>
70102622:	01f1      	lsls	r1, r6, #7
70102624:	d519      	bpl.n	7010265a <HAL_RCCEx_PeriphCLKConfig+0x19a>
70102626:	f8d4 00b4 	ldr.w	r0, [r4, #180]	@ 0xb4
7010262a:	4ba6      	ldr	r3, [pc, #664]	@ (701028c4 <HAL_RCCEx_PeriphCLKConfig+0x404>)
7010262c:	4298      	cmp	r0, r3
7010262e:	f040 86cd 	bne.w	701033cc <HAL_RCCEx_PeriphCLKConfig+0xf0c>
70102632:	4aa1      	ldr	r2, [pc, #644]	@ (701028b8 <HAL_RCCEx_PeriphCLKConfig+0x3f8>)
70102634:	69e1      	ldr	r1, [r4, #28]
70102636:	f8d2 30cc 	ldr.w	r3, [r2, #204]	@ 0xcc
7010263a:	69a7      	ldr	r7, [r4, #24]
7010263c:	f023 5343 	bic.w	r3, r3, #817889280	@ 0x30c00000
70102640:	f423 137c 	bic.w	r3, r3, #4128768	@ 0x3f0000
70102644:	3901      	subs	r1, #1
70102646:	433b      	orrs	r3, r7
70102648:	ea43 4301 	orr.w	r3, r3, r1, lsl #16
7010264c:	f8c2 30cc 	str.w	r3, [r2, #204]	@ 0xcc
70102650:	2304      	movs	r3, #4
70102652:	f8c2 3a40 	str.w	r3, [r2, #2624]	@ 0xa40
70102656:	f7ff fe4f 	bl	701022f8 <LL_RCC_SetClockSource>
7010265a:	052a      	lsls	r2, r5, #20
7010265c:	d51e      	bpl.n	7010269c <HAL_RCCEx_PeriphCLKConfig+0x1dc>
7010265e:	f8d4 10a8 	ldr.w	r1, [r4, #168]	@ 0xa8
70102662:	4a95      	ldr	r2, [pc, #596]	@ (701028b8 <HAL_RCCEx_PeriphCLKConfig+0x3f8>)
70102664:	2920      	cmp	r1, #32
70102666:	f040 86cf 	bne.w	70103408 <HAL_RCCEx_PeriphCLKConfig+0xf48>
7010266a:	f8d2 30cc 	ldr.w	r3, [r2, #204]	@ 0xcc
7010266e:	69e0      	ldr	r0, [r4, #28]
70102670:	69a7      	ldr	r7, [r4, #24]
70102672:	f023 5343 	bic.w	r3, r3, #817889280	@ 0x30c00000
70102676:	f423 137c 	bic.w	r3, r3, #4128768	@ 0x3f0000
7010267a:	3801      	subs	r0, #1
7010267c:	433b      	orrs	r3, r7
7010267e:	ea43 4300 	orr.w	r3, r3, r0, lsl #16
70102682:	f8c2 30cc 	str.w	r3, [r2, #204]	@ 0xcc
70102686:	2304      	movs	r3, #4
70102688:	f8c2 3a40 	str.w	r3, [r2, #2624]	@ 0xa40
7010268c:	4a8a      	ldr	r2, [pc, #552]	@ (701028b8 <HAL_RCCEx_PeriphCLKConfig+0x3f8>)
7010268e:	f8d2 314c 	ldr.w	r3, [r2, #332]	@ 0x14c
70102692:	f023 0330 	bic.w	r3, r3, #48	@ 0x30
70102696:	430b      	orrs	r3, r1
70102698:	f8c2 314c 	str.w	r3, [r2, #332]	@ 0x14c
7010269c:	006b      	lsls	r3, r5, #1
7010269e:	d519      	bpl.n	701026d4 <HAL_RCCEx_PeriphCLKConfig+0x214>
701026a0:	f8d4 012c 	ldr.w	r0, [r4, #300]	@ 0x12c
701026a4:	4b88      	ldr	r3, [pc, #544]	@ (701028c8 <HAL_RCCEx_PeriphCLKConfig+0x408>)
701026a6:	4298      	cmp	r0, r3
701026a8:	f040 86c8 	bne.w	7010343c <HAL_RCCEx_PeriphCLKConfig+0xf7c>
701026ac:	4a82      	ldr	r2, [pc, #520]	@ (701028b8 <HAL_RCCEx_PeriphCLKConfig+0x3f8>)
701026ae:	6a61      	ldr	r1, [r4, #36]	@ 0x24
701026b0:	f8d2 30d0 	ldr.w	r3, [r2, #208]	@ 0xd0
701026b4:	6a27      	ldr	r7, [r4, #32]
701026b6:	f023 5343 	bic.w	r3, r3, #817889280	@ 0x30c00000
701026ba:	f423 137c 	bic.w	r3, r3, #4128768	@ 0x3f0000
701026be:	3901      	subs	r1, #1
701026c0:	433b      	orrs	r3, r7
701026c2:	ea43 4301 	orr.w	r3, r3, r1, lsl #16
701026c6:	f8c2 30d0 	str.w	r3, [r2, #208]	@ 0xd0
701026ca:	2308      	movs	r3, #8
701026cc:	f8c2 3a40 	str.w	r3, [r2, #2624]	@ 0xa40
701026d0:	f7ff fe12 	bl	701022f8 <LL_RCC_SetClockSource>
701026d4:	2d00      	cmp	r5, #0
701026d6:	da19      	bge.n	7010270c <HAL_RCCEx_PeriphCLKConfig+0x24c>
701026d8:	f8d4 0130 	ldr.w	r0, [r4, #304]	@ 0x130
701026dc:	4b7b      	ldr	r3, [pc, #492]	@ (701028cc <HAL_RCCEx_PeriphCLKConfig+0x40c>)
701026de:	4298      	cmp	r0, r3
701026e0:	f040 86ca 	bne.w	70103478 <HAL_RCCEx_PeriphCLKConfig+0xfb8>
701026e4:	4a74      	ldr	r2, [pc, #464]	@ (701028b8 <HAL_RCCEx_PeriphCLKConfig+0x3f8>)
701026e6:	6a61      	ldr	r1, [r4, #36]	@ 0x24
701026e8:	f8d2 30d0 	ldr.w	r3, [r2, #208]	@ 0xd0
701026ec:	6a27      	ldr	r7, [r4, #32]
701026ee:	f023 5343 	bic.w	r3, r3, #817889280	@ 0x30c00000
701026f2:	f423 137c 	bic.w	r3, r3, #4128768	@ 0x3f0000
701026f6:	3901      	subs	r1, #1
701026f8:	433b      	orrs	r3, r7
701026fa:	ea43 4301 	orr.w	r3, r3, r1, lsl #16
701026fe:	f8c2 30d0 	str.w	r3, [r2, #208]	@ 0xd0
70102702:	2308      	movs	r3, #8
70102704:	f8c2 3a40 	str.w	r3, [r2, #2624]	@ 0xa40
70102708:	f7ff fdf6 	bl	701022f8 <LL_RCC_SetClockSource>
7010270c:	07ef      	lsls	r7, r5, #31
7010270e:	d525      	bpl.n	7010275c <HAL_RCCEx_PeriphCLKConfig+0x29c>
70102710:	f8d4 20bc 	ldr.w	r2, [r4, #188]	@ 0xbc
70102714:	4968      	ldr	r1, [pc, #416]	@ (701028b8 <HAL_RCCEx_PeriphCLKConfig+0x3f8>)
70102716:	2a20      	cmp	r2, #32
70102718:	f040 86cc 	bne.w	701034b4 <HAL_RCCEx_PeriphCLKConfig+0xff4>
7010271c:	f8d1 30dc 	ldr.w	r3, [r1, #220]	@ 0xdc
70102720:	6be0      	ldr	r0, [r4, #60]	@ 0x3c
70102722:	6ba7      	ldr	r7, [r4, #56]	@ 0x38
70102724:	f023 5343 	bic.w	r3, r3, #817889280	@ 0x30c00000
70102728:	f423 137c 	bic.w	r3, r3, #4128768	@ 0x3f0000
7010272c:	3801      	subs	r0, #1
7010272e:	433b      	orrs	r3, r7
70102730:	ea43 4300 	orr.w	r3, r3, r0, lsl #16
70102734:	f8c1 30dc 	str.w	r3, [r1, #220]	@ 0xdc
70102738:	2340      	movs	r3, #64	@ 0x40
7010273a:	f8c1 3a40 	str.w	r3, [r1, #2624]	@ 0xa40
7010273e:	485e      	ldr	r0, [pc, #376]	@ (701028b8 <HAL_RCCEx_PeriphCLKConfig+0x3f8>)
70102740:	f8d4 10c0 	ldr.w	r1, [r4, #192]	@ 0xc0
70102744:	f8d0 3144 	ldr.w	r3, [r0, #324]	@ 0x144
70102748:	3901      	subs	r1, #1
7010274a:	f423 437f 	bic.w	r3, r3, #65280	@ 0xff00
7010274e:	f023 0370 	bic.w	r3, r3, #112	@ 0x70
70102752:	4313      	orrs	r3, r2
70102754:	ea43 2301 	orr.w	r3, r3, r1, lsl #8
70102758:	f8c0 3144 	str.w	r3, [r0, #324]	@ 0x144
7010275c:	07a8      	lsls	r0, r5, #30
7010275e:	d51e      	bpl.n	7010279e <HAL_RCCEx_PeriphCLKConfig+0x2de>
70102760:	f8d4 10c4 	ldr.w	r1, [r4, #196]	@ 0xc4
70102764:	4a54      	ldr	r2, [pc, #336]	@ (701028b8 <HAL_RCCEx_PeriphCLKConfig+0x3f8>)
70102766:	2902      	cmp	r1, #2
70102768:	f040 86be 	bne.w	701034e8 <HAL_RCCEx_PeriphCLKConfig+0x1028>
7010276c:	f8d2 30dc 	ldr.w	r3, [r2, #220]	@ 0xdc
70102770:	6be0      	ldr	r0, [r4, #60]	@ 0x3c
70102772:	6ba7      	ldr	r7, [r4, #56]	@ 0x38
70102774:	f023 5343 	bic.w	r3, r3, #817889280	@ 0x30c00000
70102778:	f423 137c 	bic.w	r3, r3, #4128768	@ 0x3f0000
7010277c:	3801      	subs	r0, #1
7010277e:	433b      	orrs	r3, r7
70102780:	ea43 4300 	orr.w	r3, r3, r0, lsl #16
70102784:	f8c2 30dc 	str.w	r3, [r2, #220]	@ 0xdc
70102788:	2340      	movs	r3, #64	@ 0x40
7010278a:	f8c2 3a40 	str.w	r3, [r2, #2624]	@ 0xa40
7010278e:	4a4a      	ldr	r2, [pc, #296]	@ (701028b8 <HAL_RCCEx_PeriphCLKConfig+0x3f8>)
70102790:	f8d2 3144 	ldr.w	r3, [r2, #324]	@ 0x144
70102794:	f023 0307 	bic.w	r3, r3, #7
70102798:	430b      	orrs	r3, r1
7010279a:	f8c2 3144 	str.w	r3, [r2, #324]	@ 0x144
7010279e:	0729      	lsls	r1, r5, #28
701027a0:	d514      	bpl.n	701027cc <HAL_RCCEx_PeriphCLKConfig+0x30c>
701027a2:	4a45      	ldr	r2, [pc, #276]	@ (701028b8 <HAL_RCCEx_PeriphCLKConfig+0x3f8>)
701027a4:	f8d4 1094 	ldr.w	r1, [r4, #148]	@ 0x94
701027a8:	f8d2 3108 	ldr.w	r3, [r2, #264]	@ 0x108
701027ac:	f8d4 0090 	ldr.w	r0, [r4, #144]	@ 0x90
701027b0:	f023 5343 	bic.w	r3, r3, #817889280	@ 0x30c00000
701027b4:	f423 137c 	bic.w	r3, r3, #4128768	@ 0x3f0000
701027b8:	3901      	subs	r1, #1
701027ba:	4303      	orrs	r3, r0
701027bc:	ea43 4301 	orr.w	r3, r3, r1, lsl #16
701027c0:	f8c2 3108 	str.w	r3, [r2, #264]	@ 0x108
701027c4:	f44f 3300 	mov.w	r3, #131072	@ 0x20000
701027c8:	f8c2 3a40 	str.w	r3, [r2, #2624]	@ 0xa40
701027cc:	06ea      	lsls	r2, r5, #27
701027ce:	d522      	bpl.n	70102816 <HAL_RCCEx_PeriphCLKConfig+0x356>
701027d0:	f8d4 10c8 	ldr.w	r1, [r4, #200]	@ 0xc8
701027d4:	4a38      	ldr	r2, [pc, #224]	@ (701028b8 <HAL_RCCEx_PeriphCLKConfig+0x3f8>)
701027d6:	f5b1 1f00 	cmp.w	r1, #2097152	@ 0x200000
701027da:	f040 869f 	bne.w	7010351c <HAL_RCCEx_PeriphCLKConfig+0x105c>
701027de:	f8d2 3104 	ldr.w	r3, [r2, #260]	@ 0x104
701027e2:	f8d4 008c 	ldr.w	r0, [r4, #140]	@ 0x8c
701027e6:	f8d4 7088 	ldr.w	r7, [r4, #136]	@ 0x88
701027ea:	f023 5343 	bic.w	r3, r3, #817889280	@ 0x30c00000
701027ee:	f423 137c 	bic.w	r3, r3, #4128768	@ 0x3f0000
701027f2:	3801      	subs	r0, #1
701027f4:	433b      	orrs	r3, r7
701027f6:	ea43 4300 	orr.w	r3, r3, r0, lsl #16
701027fa:	f8c2 3104 	str.w	r3, [r2, #260]	@ 0x104
701027fe:	f44f 3380 	mov.w	r3, #65536	@ 0x10000
70102802:	f8c2 3a40 	str.w	r3, [r2, #2624]	@ 0xa40
70102806:	4a2c      	ldr	r2, [pc, #176]	@ (701028b8 <HAL_RCCEx_PeriphCLKConfig+0x3f8>)
70102808:	f8d2 3144 	ldr.w	r3, [r2, #324]	@ 0x144
7010280c:	f423 1340 	bic.w	r3, r3, #3145728	@ 0x300000
70102810:	430b      	orrs	r3, r1
70102812:	f8c2 3144 	str.w	r3, [r2, #324]	@ 0x144
70102816:	06ab      	lsls	r3, r5, #26
70102818:	d520      	bpl.n	7010285c <HAL_RCCEx_PeriphCLKConfig+0x39c>
7010281a:	f8d4 10cc 	ldr.w	r1, [r4, #204]	@ 0xcc
7010281e:	4a26      	ldr	r2, [pc, #152]	@ (701028b8 <HAL_RCCEx_PeriphCLKConfig+0x3f8>)
70102820:	f5b1 5f00 	cmp.w	r1, #8192	@ 0x2000
70102824:	f040 8682 	bne.w	7010352c <HAL_RCCEx_PeriphCLKConfig+0x106c>
70102828:	f8d2 30f0 	ldr.w	r3, [r2, #240]	@ 0xf0
7010282c:	6e60      	ldr	r0, [r4, #100]	@ 0x64
7010282e:	6e27      	ldr	r7, [r4, #96]	@ 0x60
70102830:	f023 5343 	bic.w	r3, r3, #817889280	@ 0x30c00000
70102834:	f423 137c 	bic.w	r3, r3, #4128768	@ 0x3f0000
70102838:	3801      	subs	r0, #1
7010283a:	433b      	orrs	r3, r7
7010283c:	ea43 4300 	orr.w	r3, r3, r0, lsl #16
70102840:	f8c2 30f0 	str.w	r3, [r2, #240]	@ 0xf0
70102844:	f44f 6300 	mov.w	r3, #2048	@ 0x800
70102848:	f8c2 3a40 	str.w	r3, [r2, #2624]	@ 0xa40
7010284c:	4a1a      	ldr	r2, [pc, #104]	@ (701028b8 <HAL_RCCEx_PeriphCLKConfig+0x3f8>)
7010284e:	f8d2 3148 	ldr.w	r3, [r2, #328]	@ 0x148
70102852:	f423 5340 	bic.w	r3, r3, #12288	@ 0x3000
70102856:	430b      	orrs	r3, r1
70102858:	f8c2 3148 	str.w	r3, [r2, #328]	@ 0x148
7010285c:	066f      	lsls	r7, r5, #25
7010285e:	d509      	bpl.n	70102874 <HAL_RCCEx_PeriphCLKConfig+0x3b4>
70102860:	4a15      	ldr	r2, [pc, #84]	@ (701028b8 <HAL_RCCEx_PeriphCLKConfig+0x3f8>)
70102862:	f8d4 10d0 	ldr.w	r1, [r4, #208]	@ 0xd0
70102866:	f8d2 3148 	ldr.w	r3, [r2, #328]	@ 0x148
7010286a:	f423 23e0 	bic.w	r3, r3, #458752	@ 0x70000
7010286e:	430b      	orrs	r3, r1
70102870:	f8c2 3148 	str.w	r3, [r2, #328]	@ 0x148
70102874:	0628      	lsls	r0, r5, #24
70102876:	d509      	bpl.n	7010288c <HAL_RCCEx_PeriphCLKConfig+0x3cc>
70102878:	4a0f      	ldr	r2, [pc, #60]	@ (701028b8 <HAL_RCCEx_PeriphCLKConfig+0x3f8>)
7010287a:	f8d4 10d4 	ldr.w	r1, [r4, #212]	@ 0xd4
7010287e:	f8d2 3148 	ldr.w	r3, [r2, #328]	@ 0x148
70102882:	f423 1380 	bic.w	r3, r3, #1048576	@ 0x100000
70102886:	430b      	orrs	r3, r1
70102888:	f8c2 3148 	str.w	r3, [r2, #328]	@ 0x148
7010288c:	05e9      	lsls	r1, r5, #23
7010288e:	d509      	bpl.n	701028a4 <HAL_RCCEx_PeriphCLKConfig+0x3e4>
70102890:	4a09      	ldr	r2, [pc, #36]	@ (701028b8 <HAL_RCCEx_PeriphCLKConfig+0x3f8>)
70102892:	f8d4 10d8 	ldr.w	r1, [r4, #216]	@ 0xd8
70102896:	f8d2 3148 	ldr.w	r3, [r2, #328]	@ 0x148
7010289a:	f023 7380 	bic.w	r3, r3, #16777216	@ 0x1000000
7010289e:	430b      	orrs	r3, r1
701028a0:	f8c2 3148 	str.w	r3, [r2, #328]	@ 0x148
701028a4:	05aa      	lsls	r2, r5, #22
701028a6:	d532      	bpl.n	7010290e <HAL_RCCEx_PeriphCLKConfig+0x44e>
701028a8:	f8d4 10dc 	ldr.w	r1, [r4, #220]	@ 0xdc
701028ac:	4a02      	ldr	r2, [pc, #8]	@ (701028b8 <HAL_RCCEx_PeriphCLKConfig+0x3f8>)
701028ae:	2902      	cmp	r1, #2
701028b0:	f040 8644 	bne.w	7010353c <HAL_RCCEx_PeriphCLKConfig+0x107c>
701028b4:	e00c      	b.n	701028d0 <HAL_RCCEx_PeriphCLKConfig+0x410>
701028b6:	bf00      	nop
701028b8:	56028000 	.word	0x56028000
701028bc:	03020014 	.word	0x03020014
701028c0:	03020414 	.word	0x03020414
701028c4:	03020814 	.word	0x03020814
701028c8:	0302001c 	.word	0x0302001c
701028cc:	0302041c 	.word	0x0302041c
701028d0:	f8d2 30f4 	ldr.w	r3, [r2, #244]	@ 0xf4
701028d4:	6ee0      	ldr	r0, [r4, #108]	@ 0x6c
701028d6:	6ea7      	ldr	r7, [r4, #104]	@ 0x68
701028d8:	f023 5343 	bic.w	r3, r3, #817889280	@ 0x30c00000
701028dc:	f423 137c 	bic.w	r3, r3, #4128768	@ 0x3f0000
701028e0:	3801      	subs	r0, #1
701028e2:	433b      	orrs	r3, r7
701028e4:	ea43 4300 	orr.w	r3, r3, r0, lsl #16
701028e8:	f8c2 30f4 	str.w	r3, [r2, #244]	@ 0xf4
701028ec:	f44f 5380 	mov.w	r3, #4096	@ 0x1000
701028f0:	f8c2 3a40 	str.w	r3, [r2, #2624]	@ 0xa40
701028f4:	48c9      	ldr	r0, [pc, #804]	@ (70102c1c <HAL_RCCEx_PeriphCLKConfig+0x75c>)
701028f6:	f8d4 20e0 	ldr.w	r2, [r4, #224]	@ 0xe0
701028fa:	f8d0 3148 	ldr.w	r3, [r0, #328]	@ 0x148
701028fe:	3a01      	subs	r2, #1
70102900:	f023 03f3 	bic.w	r3, r3, #243	@ 0xf3
70102904:	430b      	orrs	r3, r1
70102906:	ea43 1302 	orr.w	r3, r3, r2, lsl #4
7010290a:	f8c0 3148 	str.w	r3, [r0, #328]	@ 0x148
7010290e:	056b      	lsls	r3, r5, #21
70102910:	d521      	bpl.n	70102956 <HAL_RCCEx_PeriphCLKConfig+0x496>
70102912:	f8d4 10e4 	ldr.w	r1, [r4, #228]	@ 0xe4
70102916:	4ac1      	ldr	r2, [pc, #772]	@ (70102c1c <HAL_RCCEx_PeriphCLKConfig+0x75c>)
70102918:	2902      	cmp	r1, #2
7010291a:	f040 8616 	bne.w	7010354a <HAL_RCCEx_PeriphCLKConfig+0x108a>
7010291e:	f8d2 310c 	ldr.w	r3, [r2, #268]	@ 0x10c
70102922:	f8d4 009c 	ldr.w	r0, [r4, #156]	@ 0x9c
70102926:	f8d4 7098 	ldr.w	r7, [r4, #152]	@ 0x98
7010292a:	f023 5343 	bic.w	r3, r3, #817889280	@ 0x30c00000
7010292e:	f423 137c 	bic.w	r3, r3, #4128768	@ 0x3f0000
70102932:	3801      	subs	r0, #1
70102934:	433b      	orrs	r3, r7
70102936:	ea43 4300 	orr.w	r3, r3, r0, lsl #16
7010293a:	f8c2 310c 	str.w	r3, [r2, #268]	@ 0x10c
7010293e:	f44f 2380 	mov.w	r3, #262144	@ 0x40000
70102942:	f8c2 3a40 	str.w	r3, [r2, #2624]	@ 0xa40
70102946:	4ab5      	ldr	r2, [pc, #724]	@ (70102c1c <HAL_RCCEx_PeriphCLKConfig+0x75c>)
70102948:	f8d2 314c 	ldr.w	r3, [r2, #332]	@ 0x14c
7010294c:	f023 0303 	bic.w	r3, r3, #3
70102950:	430b      	orrs	r3, r1
70102952:	f8c2 314c 	str.w	r3, [r2, #332]	@ 0x14c
70102956:	04ef      	lsls	r7, r5, #19
70102958:	d51a      	bpl.n	70102990 <HAL_RCCEx_PeriphCLKConfig+0x4d0>
7010295a:	f8d4 00e8 	ldr.w	r0, [r4, #232]	@ 0xe8
7010295e:	4bb0      	ldr	r3, [pc, #704]	@ (70102c20 <HAL_RCCEx_PeriphCLKConfig+0x760>)
70102960:	4298      	cmp	r0, r3
70102962:	f040 85f9 	bne.w	70103558 <HAL_RCCEx_PeriphCLKConfig+0x1098>
70102966:	4aad      	ldr	r2, [pc, #692]	@ (70102c1c <HAL_RCCEx_PeriphCLKConfig+0x75c>)
70102968:	6d61      	ldr	r1, [r4, #84]	@ 0x54
7010296a:	f8d2 30e8 	ldr.w	r3, [r2, #232]	@ 0xe8
7010296e:	6d27      	ldr	r7, [r4, #80]	@ 0x50
70102970:	f023 5343 	bic.w	r3, r3, #817889280	@ 0x30c00000
70102974:	f423 137c 	bic.w	r3, r3, #4128768	@ 0x3f0000
70102978:	3901      	subs	r1, #1
7010297a:	433b      	orrs	r3, r7
7010297c:	ea43 4301 	orr.w	r3, r3, r1, lsl #16
70102980:	f8c2 30e8 	str.w	r3, [r2, #232]	@ 0xe8
70102984:	f44f 7300 	mov.w	r3, #512	@ 0x200
70102988:	f8c2 3a40 	str.w	r3, [r2, #2624]	@ 0xa40
7010298c:	f7ff fcb4 	bl	701022f8 <LL_RCC_SetClockSource>
70102990:	04a8      	lsls	r0, r5, #18
70102992:	d51a      	bpl.n	701029ca <HAL_RCCEx_PeriphCLKConfig+0x50a>
70102994:	f8d4 00ec 	ldr.w	r0, [r4, #236]	@ 0xec
70102998:	4ba2      	ldr	r3, [pc, #648]	@ (70102c24 <HAL_RCCEx_PeriphCLKConfig+0x764>)
7010299a:	4298      	cmp	r0, r3
7010299c:	f040 85fb 	bne.w	70103596 <HAL_RCCEx_PeriphCLKConfig+0x10d6>
701029a0:	4a9e      	ldr	r2, [pc, #632]	@ (70102c1c <HAL_RCCEx_PeriphCLKConfig+0x75c>)
701029a2:	6d61      	ldr	r1, [r4, #84]	@ 0x54
701029a4:	f8d2 30e8 	ldr.w	r3, [r2, #232]	@ 0xe8
701029a8:	6d27      	ldr	r7, [r4, #80]	@ 0x50
701029aa:	f023 5343 	bic.w	r3, r3, #817889280	@ 0x30c00000
701029ae:	f423 137c 	bic.w	r3, r3, #4128768	@ 0x3f0000
701029b2:	3901      	subs	r1, #1
701029b4:	433b      	orrs	r3, r7
701029b6:	ea43 4301 	orr.w	r3, r3, r1, lsl #16
701029ba:	f8c2 30e8 	str.w	r3, [r2, #232]	@ 0xe8
701029be:	f44f 7300 	mov.w	r3, #512	@ 0x200
701029c2:	f8c2 3a40 	str.w	r3, [r2, #2624]	@ 0xa40
701029c6:	f7ff fc97 	bl	701022f8 <LL_RCC_SetClockSource>
701029ca:	0469      	lsls	r1, r5, #17
701029cc:	d51a      	bpl.n	70102a04 <HAL_RCCEx_PeriphCLKConfig+0x544>
701029ce:	f8d4 00f0 	ldr.w	r0, [r4, #240]	@ 0xf0
701029d2:	4b95      	ldr	r3, [pc, #596]	@ (70102c28 <HAL_RCCEx_PeriphCLKConfig+0x768>)
701029d4:	4298      	cmp	r0, r3
701029d6:	f040 85fd 	bne.w	701035d4 <HAL_RCCEx_PeriphCLKConfig+0x1114>
701029da:	4a90      	ldr	r2, [pc, #576]	@ (70102c1c <HAL_RCCEx_PeriphCLKConfig+0x75c>)
701029dc:	6d61      	ldr	r1, [r4, #84]	@ 0x54
701029de:	f8d2 30e8 	ldr.w	r3, [r2, #232]	@ 0xe8
701029e2:	6d27      	ldr	r7, [r4, #80]	@ 0x50
701029e4:	f023 5343 	bic.w	r3, r3, #817889280	@ 0x30c00000
701029e8:	f423 137c 	bic.w	r3, r3, #4128768	@ 0x3f0000
701029ec:	3901      	subs	r1, #1
701029ee:	433b      	orrs	r3, r7
701029f0:	ea43 4301 	orr.w	r3, r3, r1, lsl #16
701029f4:	f8c2 30e8 	str.w	r3, [r2, #232]	@ 0xe8
701029f8:	f44f 7300 	mov.w	r3, #512	@ 0x200
701029fc:	f8c2 3a40 	str.w	r3, [r2, #2624]	@ 0xa40
70102a00:	f7ff fc7a 	bl	701022f8 <LL_RCC_SetClockSource>
70102a04:	042a      	lsls	r2, r5, #16
70102a06:	d51a      	bpl.n	70102a3e <HAL_RCCEx_PeriphCLKConfig+0x57e>
70102a08:	f8d4 00f4 	ldr.w	r0, [r4, #244]	@ 0xf4
70102a0c:	4b87      	ldr	r3, [pc, #540]	@ (70102c2c <HAL_RCCEx_PeriphCLKConfig+0x76c>)
70102a0e:	4298      	cmp	r0, r3
70102a10:	f040 85ff 	bne.w	70103612 <HAL_RCCEx_PeriphCLKConfig+0x1152>
70102a14:	4a81      	ldr	r2, [pc, #516]	@ (70102c1c <HAL_RCCEx_PeriphCLKConfig+0x75c>)
70102a16:	6d61      	ldr	r1, [r4, #84]	@ 0x54
70102a18:	f8d2 30e8 	ldr.w	r3, [r2, #232]	@ 0xe8
70102a1c:	6d27      	ldr	r7, [r4, #80]	@ 0x50
70102a1e:	f023 5343 	bic.w	r3, r3, #817889280	@ 0x30c00000
70102a22:	f423 137c 	bic.w	r3, r3, #4128768	@ 0x3f0000
70102a26:	3901      	subs	r1, #1
70102a28:	433b      	orrs	r3, r7
70102a2a:	ea43 4301 	orr.w	r3, r3, r1, lsl #16
70102a2e:	f8c2 30e8 	str.w	r3, [r2, #232]	@ 0xe8
70102a32:	f44f 7300 	mov.w	r3, #512	@ 0x200
70102a36:	f8c2 3a40 	str.w	r3, [r2, #2624]	@ 0xa40
70102a3a:	f7ff fc5d 	bl	701022f8 <LL_RCC_SetClockSource>
70102a3e:	03eb      	lsls	r3, r5, #15
70102a40:	d51a      	bpl.n	70102a78 <HAL_RCCEx_PeriphCLKConfig+0x5b8>
70102a42:	f8d4 00f8 	ldr.w	r0, [r4, #248]	@ 0xf8
70102a46:	4b7a      	ldr	r3, [pc, #488]	@ (70102c30 <HAL_RCCEx_PeriphCLKConfig+0x770>)
70102a48:	4298      	cmp	r0, r3
70102a4a:	f040 8627 	bne.w	7010369c <HAL_RCCEx_PeriphCLKConfig+0x11dc>
70102a4e:	4a73      	ldr	r2, [pc, #460]	@ (70102c1c <HAL_RCCEx_PeriphCLKConfig+0x75c>)
70102a50:	6d61      	ldr	r1, [r4, #84]	@ 0x54
70102a52:	f8d2 30e8 	ldr.w	r3, [r2, #232]	@ 0xe8
70102a56:	6d27      	ldr	r7, [r4, #80]	@ 0x50
70102a58:	f023 5343 	bic.w	r3, r3, #817889280	@ 0x30c00000
70102a5c:	f423 137c 	bic.w	r3, r3, #4128768	@ 0x3f0000
70102a60:	3901      	subs	r1, #1
70102a62:	433b      	orrs	r3, r7
70102a64:	ea43 4301 	orr.w	r3, r3, r1, lsl #16
70102a68:	f8c2 30e8 	str.w	r3, [r2, #232]	@ 0xe8
70102a6c:	f44f 7300 	mov.w	r3, #512	@ 0x200
70102a70:	f8c2 3a40 	str.w	r3, [r2, #2624]	@ 0xa40
70102a74:	f7ff fc40 	bl	701022f8 <LL_RCC_SetClockSource>
70102a78:	03af      	lsls	r7, r5, #14
70102a7a:	d51a      	bpl.n	70102ab2 <HAL_RCCEx_PeriphCLKConfig+0x5f2>
70102a7c:	f8d4 00fc 	ldr.w	r0, [r4, #252]	@ 0xfc
70102a80:	4b6c      	ldr	r3, [pc, #432]	@ (70102c34 <HAL_RCCEx_PeriphCLKConfig+0x774>)
70102a82:	4298      	cmp	r0, r3
70102a84:	f040 8629 	bne.w	701036da <HAL_RCCEx_PeriphCLKConfig+0x121a>
70102a88:	4a64      	ldr	r2, [pc, #400]	@ (70102c1c <HAL_RCCEx_PeriphCLKConfig+0x75c>)
70102a8a:	6d61      	ldr	r1, [r4, #84]	@ 0x54
70102a8c:	f8d2 30e8 	ldr.w	r3, [r2, #232]	@ 0xe8
70102a90:	6d27      	ldr	r7, [r4, #80]	@ 0x50
70102a92:	f023 5343 	bic.w	r3, r3, #817889280	@ 0x30c00000
70102a96:	f423 137c 	bic.w	r3, r3, #4128768	@ 0x3f0000
70102a9a:	3901      	subs	r1, #1
70102a9c:	433b      	orrs	r3, r7
70102a9e:	ea43 4301 	orr.w	r3, r3, r1, lsl #16
70102aa2:	f8c2 30e8 	str.w	r3, [r2, #232]	@ 0xe8
70102aa6:	f44f 7300 	mov.w	r3, #512	@ 0x200
70102aaa:	f8c2 3a40 	str.w	r3, [r2, #2624]	@ 0xa40
70102aae:	f7ff fc23 	bl	701022f8 <LL_RCC_SetClockSource>
70102ab2:	0368      	lsls	r0, r5, #13
70102ab4:	d51a      	bpl.n	70102aec <HAL_RCCEx_PeriphCLKConfig+0x62c>
70102ab6:	f8d4 0100 	ldr.w	r0, [r4, #256]	@ 0x100
70102aba:	4b5f      	ldr	r3, [pc, #380]	@ (70102c38 <HAL_RCCEx_PeriphCLKConfig+0x778>)
70102abc:	4298      	cmp	r0, r3
70102abe:	f040 862b 	bne.w	70103718 <HAL_RCCEx_PeriphCLKConfig+0x1258>
70102ac2:	4a56      	ldr	r2, [pc, #344]	@ (70102c1c <HAL_RCCEx_PeriphCLKConfig+0x75c>)
70102ac4:	6fe1      	ldr	r1, [r4, #124]	@ 0x7c
70102ac6:	f8d2 30fc 	ldr.w	r3, [r2, #252]	@ 0xfc
70102aca:	6fa7      	ldr	r7, [r4, #120]	@ 0x78
70102acc:	f023 5343 	bic.w	r3, r3, #817889280	@ 0x30c00000
70102ad0:	f423 137c 	bic.w	r3, r3, #4128768	@ 0x3f0000
70102ad4:	3901      	subs	r1, #1
70102ad6:	433b      	orrs	r3, r7
70102ad8:	ea43 4301 	orr.w	r3, r3, r1, lsl #16
70102adc:	f8c2 30fc 	str.w	r3, [r2, #252]	@ 0xfc
70102ae0:	f44f 4380 	mov.w	r3, #16384	@ 0x4000
70102ae4:	f8c2 3a40 	str.w	r3, [r2, #2624]	@ 0xa40
70102ae8:	f7ff fc06 	bl	701022f8 <LL_RCC_SetClockSource>
70102aec:	0329      	lsls	r1, r5, #12
70102aee:	d51a      	bpl.n	70102b26 <HAL_RCCEx_PeriphCLKConfig+0x666>
70102af0:	f8d4 0104 	ldr.w	r0, [r4, #260]	@ 0x104
70102af4:	4b51      	ldr	r3, [pc, #324]	@ (70102c3c <HAL_RCCEx_PeriphCLKConfig+0x77c>)
70102af6:	4298      	cmp	r0, r3
70102af8:	f040 8617 	bne.w	7010372a <HAL_RCCEx_PeriphCLKConfig+0x126a>
70102afc:	4a47      	ldr	r2, [pc, #284]	@ (70102c1c <HAL_RCCEx_PeriphCLKConfig+0x75c>)
70102afe:	6fe1      	ldr	r1, [r4, #124]	@ 0x7c
70102b00:	f8d2 30fc 	ldr.w	r3, [r2, #252]	@ 0xfc
70102b04:	6fa7      	ldr	r7, [r4, #120]	@ 0x78
70102b06:	f023 5343 	bic.w	r3, r3, #817889280	@ 0x30c00000
70102b0a:	f423 137c 	bic.w	r3, r3, #4128768	@ 0x3f0000
70102b0e:	3901      	subs	r1, #1
70102b10:	433b      	orrs	r3, r7
70102b12:	ea43 4301 	orr.w	r3, r3, r1, lsl #16
70102b16:	f8c2 30fc 	str.w	r3, [r2, #252]	@ 0xfc
70102b1a:	f44f 4380 	mov.w	r3, #16384	@ 0x4000
70102b1e:	f8c2 3a40 	str.w	r3, [r2, #2624]	@ 0xa40
70102b22:	f7ff fbe9 	bl	701022f8 <LL_RCC_SetClockSource>
70102b26:	02ea      	lsls	r2, r5, #11
70102b28:	d51a      	bpl.n	70102b60 <HAL_RCCEx_PeriphCLKConfig+0x6a0>
70102b2a:	f8d4 0108 	ldr.w	r0, [r4, #264]	@ 0x108
70102b2e:	4b44      	ldr	r3, [pc, #272]	@ (70102c40 <HAL_RCCEx_PeriphCLKConfig+0x780>)
70102b30:	4298      	cmp	r0, r3
70102b32:	f040 8603 	bne.w	7010373c <HAL_RCCEx_PeriphCLKConfig+0x127c>
70102b36:	4a39      	ldr	r2, [pc, #228]	@ (70102c1c <HAL_RCCEx_PeriphCLKConfig+0x75c>)
70102b38:	6fe1      	ldr	r1, [r4, #124]	@ 0x7c
70102b3a:	f8d2 30fc 	ldr.w	r3, [r2, #252]	@ 0xfc
70102b3e:	6fa7      	ldr	r7, [r4, #120]	@ 0x78
70102b40:	f023 5343 	bic.w	r3, r3, #817889280	@ 0x30c00000
70102b44:	f423 137c 	bic.w	r3, r3, #4128768	@ 0x3f0000
70102b48:	3901      	subs	r1, #1
70102b4a:	433b      	orrs	r3, r7
70102b4c:	ea43 4301 	orr.w	r3, r3, r1, lsl #16
70102b50:	f8c2 30fc 	str.w	r3, [r2, #252]	@ 0xfc
70102b54:	f44f 4380 	mov.w	r3, #16384	@ 0x4000
70102b58:	f8c2 3a40 	str.w	r3, [r2, #2624]	@ 0xa40
70102b5c:	f7ff fbcc 	bl	701022f8 <LL_RCC_SetClockSource>
70102b60:	02ab      	lsls	r3, r5, #10
70102b62:	d51a      	bpl.n	70102b9a <HAL_RCCEx_PeriphCLKConfig+0x6da>
70102b64:	f8d4 010c 	ldr.w	r0, [r4, #268]	@ 0x10c
70102b68:	4b36      	ldr	r3, [pc, #216]	@ (70102c44 <HAL_RCCEx_PeriphCLKConfig+0x784>)
70102b6a:	4298      	cmp	r0, r3
70102b6c:	f040 85ef 	bne.w	7010374e <HAL_RCCEx_PeriphCLKConfig+0x128e>
70102b70:	4a2a      	ldr	r2, [pc, #168]	@ (70102c1c <HAL_RCCEx_PeriphCLKConfig+0x75c>)
70102b72:	6fe1      	ldr	r1, [r4, #124]	@ 0x7c
70102b74:	f8d2 30fc 	ldr.w	r3, [r2, #252]	@ 0xfc
70102b78:	6fa7      	ldr	r7, [r4, #120]	@ 0x78
70102b7a:	f023 5343 	bic.w	r3, r3, #817889280	@ 0x30c00000
70102b7e:	f423 137c 	bic.w	r3, r3, #4128768	@ 0x3f0000
70102b82:	3901      	subs	r1, #1
70102b84:	433b      	orrs	r3, r7
70102b86:	ea43 4301 	orr.w	r3, r3, r1, lsl #16
70102b8a:	f8c2 30fc 	str.w	r3, [r2, #252]	@ 0xfc
70102b8e:	f44f 4380 	mov.w	r3, #16384	@ 0x4000
70102b92:	f8c2 3a40 	str.w	r3, [r2, #2624]	@ 0xa40
70102b96:	f7ff fbaf 	bl	701022f8 <LL_RCC_SetClockSource>
70102b9a:	026f      	lsls	r7, r5, #9
70102b9c:	d51a      	bpl.n	70102bd4 <HAL_RCCEx_PeriphCLKConfig+0x714>
70102b9e:	f8d4 0110 	ldr.w	r0, [r4, #272]	@ 0x110
70102ba2:	4b29      	ldr	r3, [pc, #164]	@ (70102c48 <HAL_RCCEx_PeriphCLKConfig+0x788>)
70102ba4:	4298      	cmp	r0, r3
70102ba6:	f040 85db 	bne.w	70103760 <HAL_RCCEx_PeriphCLKConfig+0x12a0>
70102baa:	4a1c      	ldr	r2, [pc, #112]	@ (70102c1c <HAL_RCCEx_PeriphCLKConfig+0x75c>)
70102bac:	6fe1      	ldr	r1, [r4, #124]	@ 0x7c
70102bae:	f8d2 30fc 	ldr.w	r3, [r2, #252]	@ 0xfc
70102bb2:	6fa7      	ldr	r7, [r4, #120]	@ 0x78
70102bb4:	f023 5343 	bic.w	r3, r3, #817889280	@ 0x30c00000
70102bb8:	f423 137c 	bic.w	r3, r3, #4128768	@ 0x3f0000
70102bbc:	3901      	subs	r1, #1
70102bbe:	433b      	orrs	r3, r7
70102bc0:	ea43 4301 	orr.w	r3, r3, r1, lsl #16
70102bc4:	f8c2 30fc 	str.w	r3, [r2, #252]	@ 0xfc
70102bc8:	f44f 4380 	mov.w	r3, #16384	@ 0x4000
70102bcc:	f8c2 3a40 	str.w	r3, [r2, #2624]	@ 0xa40
70102bd0:	f7ff fb92 	bl	701022f8 <LL_RCC_SetClockSource>
70102bd4:	0228      	lsls	r0, r5, #8
70102bd6:	d539      	bpl.n	70102c4c <HAL_RCCEx_PeriphCLKConfig+0x78c>
70102bd8:	f8d4 1114 	ldr.w	r1, [r4, #276]	@ 0x114
70102bdc:	4a0f      	ldr	r2, [pc, #60]	@ (70102c1c <HAL_RCCEx_PeriphCLKConfig+0x75c>)
70102bde:	f5b1 7f00 	cmp.w	r1, #512	@ 0x200
70102be2:	f040 85c6 	bne.w	70103772 <HAL_RCCEx_PeriphCLKConfig+0x12b2>
70102be6:	f8d2 30e4 	ldr.w	r3, [r2, #228]	@ 0xe4
70102bea:	6ce0      	ldr	r0, [r4, #76]	@ 0x4c
70102bec:	6ca7      	ldr	r7, [r4, #72]	@ 0x48
70102bee:	f023 5343 	bic.w	r3, r3, #817889280	@ 0x30c00000
70102bf2:	f423 137c 	bic.w	r3, r3, #4128768	@ 0x3f0000
70102bf6:	3801      	subs	r0, #1
70102bf8:	433b      	orrs	r3, r7
70102bfa:	ea43 4300 	orr.w	r3, r3, r0, lsl #16
70102bfe:	f8c2 30e4 	str.w	r3, [r2, #228]	@ 0xe4
70102c02:	f44f 7380 	mov.w	r3, #256	@ 0x100
70102c06:	f8c2 3a40 	str.w	r3, [r2, #2624]	@ 0xa40
70102c0a:	4a04      	ldr	r2, [pc, #16]	@ (70102c1c <HAL_RCCEx_PeriphCLKConfig+0x75c>)
70102c0c:	f8d2 3178 	ldr.w	r3, [r2, #376]	@ 0x178
70102c10:	f423 63e0 	bic.w	r3, r3, #1792	@ 0x700
70102c14:	430b      	orrs	r3, r1
70102c16:	f8c2 3178 	str.w	r3, [r2, #376]	@ 0x178
70102c1a:	e017      	b.n	70102c4c <HAL_RCCEx_PeriphCLKConfig+0x78c>
70102c1c:	56028000 	.word	0x56028000
70102c20:	0702000c 	.word	0x0702000c
70102c24:	0702040c 	.word	0x0702040c
70102c28:	0702080c 	.word	0x0702080c
70102c2c:	07020c0c 	.word	0x07020c0c
70102c30:	0702100c 	.word	0x0702100c
70102c34:	0702140c 	.word	0x0702140c
70102c38:	0702082c 	.word	0x0702082c
70102c3c:	07020c2c 	.word	0x07020c2c
70102c40:	0702102c 	.word	0x0702102c
70102c44:	0702142c 	.word	0x0702142c
70102c48:	0702182c 	.word	0x0702182c
70102c4c:	01e9      	lsls	r1, r5, #7
70102c4e:	d522      	bpl.n	70102c96 <HAL_RCCEx_PeriphCLKConfig+0x7d6>
70102c50:	f8d4 1118 	ldr.w	r1, [r4, #280]	@ 0x118
70102c54:	4ac9      	ldr	r2, [pc, #804]	@ (70102f7c <HAL_RCCEx_PeriphCLKConfig+0xabc>)
70102c56:	f1b1 7f00 	cmp.w	r1, #33554432	@ 0x2000000
70102c5a:	f040 85a7 	bne.w	701037ac <HAL_RCCEx_PeriphCLKConfig+0x12ec>
70102c5e:	f8d2 3100 	ldr.w	r3, [r2, #256]	@ 0x100
70102c62:	f8d4 0084 	ldr.w	r0, [r4, #132]	@ 0x84
70102c66:	f8d4 7080 	ldr.w	r7, [r4, #128]	@ 0x80
70102c6a:	f023 5343 	bic.w	r3, r3, #817889280	@ 0x30c00000
70102c6e:	f423 137c 	bic.w	r3, r3, #4128768	@ 0x3f0000
70102c72:	3801      	subs	r0, #1
70102c74:	433b      	orrs	r3, r7
70102c76:	ea43 4300 	orr.w	r3, r3, r0, lsl #16
70102c7a:	f8c2 3100 	str.w	r3, [r2, #256]	@ 0x100
70102c7e:	f44f 4300 	mov.w	r3, #32768	@ 0x8000
70102c82:	f8c2 3a40 	str.w	r3, [r2, #2624]	@ 0xa40
70102c86:	4abd      	ldr	r2, [pc, #756]	@ (70102f7c <HAL_RCCEx_PeriphCLKConfig+0xabc>)
70102c88:	f8d2 3150 	ldr.w	r3, [r2, #336]	@ 0x150
70102c8c:	f023 7340 	bic.w	r3, r3, #50331648	@ 0x3000000
70102c90:	430b      	orrs	r3, r1
70102c92:	f8c2 3150 	str.w	r3, [r2, #336]	@ 0x150
70102c96:	01aa      	lsls	r2, r5, #6
70102c98:	d51f      	bpl.n	70102cda <HAL_RCCEx_PeriphCLKConfig+0x81a>
70102c9a:	f8d4 111c 	ldr.w	r1, [r4, #284]	@ 0x11c
70102c9e:	4ab7      	ldr	r2, [pc, #732]	@ (70102f7c <HAL_RCCEx_PeriphCLKConfig+0xabc>)
70102ca0:	f5b1 3f00 	cmp.w	r1, #131072	@ 0x20000
70102ca4:	f040 858a 	bne.w	701037bc <HAL_RCCEx_PeriphCLKConfig+0x12fc>
70102ca8:	f8d2 30dc 	ldr.w	r3, [r2, #220]	@ 0xdc
70102cac:	6be0      	ldr	r0, [r4, #60]	@ 0x3c
70102cae:	6ba7      	ldr	r7, [r4, #56]	@ 0x38
70102cb0:	f023 5343 	bic.w	r3, r3, #817889280	@ 0x30c00000
70102cb4:	f423 137c 	bic.w	r3, r3, #4128768	@ 0x3f0000
70102cb8:	3801      	subs	r0, #1
70102cba:	433b      	orrs	r3, r7
70102cbc:	ea43 4300 	orr.w	r3, r3, r0, lsl #16
70102cc0:	f8c2 30dc 	str.w	r3, [r2, #220]	@ 0xdc
70102cc4:	2340      	movs	r3, #64	@ 0x40
70102cc6:	f8c2 3a40 	str.w	r3, [r2, #2624]	@ 0xa40
70102cca:	4aac      	ldr	r2, [pc, #688]	@ (70102f7c <HAL_RCCEx_PeriphCLKConfig+0xabc>)
70102ccc:	f8d2 3154 	ldr.w	r3, [r2, #340]	@ 0x154
70102cd0:	f423 23e0 	bic.w	r3, r3, #458752	@ 0x70000
70102cd4:	430b      	orrs	r3, r1
70102cd6:	f8c2 3154 	str.w	r3, [r2, #340]	@ 0x154
70102cda:	016b      	lsls	r3, r5, #5
70102cdc:	d521      	bpl.n	70102d22 <HAL_RCCEx_PeriphCLKConfig+0x862>
70102cde:	f8d4 1120 	ldr.w	r1, [r4, #288]	@ 0x120
70102ce2:	4aa6      	ldr	r2, [pc, #664]	@ (70102f7c <HAL_RCCEx_PeriphCLKConfig+0xabc>)
70102ce4:	2920      	cmp	r1, #32
70102ce6:	f040 8585 	bne.w	701037f4 <HAL_RCCEx_PeriphCLKConfig+0x1334>
70102cea:	f8d2 3110 	ldr.w	r3, [r2, #272]	@ 0x110
70102cee:	f8d4 00a4 	ldr.w	r0, [r4, #164]	@ 0xa4
70102cf2:	f8d4 70a0 	ldr.w	r7, [r4, #160]	@ 0xa0
70102cf6:	f023 5343 	bic.w	r3, r3, #817889280	@ 0x30c00000
70102cfa:	f423 137c 	bic.w	r3, r3, #4128768	@ 0x3f0000
70102cfe:	3801      	subs	r0, #1
70102d00:	433b      	orrs	r3, r7
70102d02:	ea43 4300 	orr.w	r3, r3, r0, lsl #16
70102d06:	f8c2 3110 	str.w	r3, [r2, #272]	@ 0x110
70102d0a:	f44f 2300 	mov.w	r3, #524288	@ 0x80000
70102d0e:	f8c2 3a40 	str.w	r3, [r2, #2624]	@ 0xa40
70102d12:	4a9a      	ldr	r2, [pc, #616]	@ (70102f7c <HAL_RCCEx_PeriphCLKConfig+0xabc>)
70102d14:	f8d2 315c 	ldr.w	r3, [r2, #348]	@ 0x15c
70102d18:	f023 0330 	bic.w	r3, r3, #48	@ 0x30
70102d1c:	430b      	orrs	r3, r1
70102d1e:	f8c2 315c 	str.w	r3, [r2, #348]	@ 0x15c
70102d22:	00ef      	lsls	r7, r5, #3
70102d24:	d519      	bpl.n	70102d5a <HAL_RCCEx_PeriphCLKConfig+0x89a>
70102d26:	f8d4 0124 	ldr.w	r0, [r4, #292]	@ 0x124
70102d2a:	4b95      	ldr	r3, [pc, #596]	@ (70102f80 <HAL_RCCEx_PeriphCLKConfig+0xac0>)
70102d2c:	4298      	cmp	r0, r3
70102d2e:	f040 8568 	bne.w	70103802 <HAL_RCCEx_PeriphCLKConfig+0x1342>
70102d32:	4a92      	ldr	r2, [pc, #584]	@ (70102f7c <HAL_RCCEx_PeriphCLKConfig+0xabc>)
70102d34:	6be1      	ldr	r1, [r4, #60]	@ 0x3c
70102d36:	f8d2 30dc 	ldr.w	r3, [r2, #220]	@ 0xdc
70102d3a:	6ba7      	ldr	r7, [r4, #56]	@ 0x38
70102d3c:	f023 5343 	bic.w	r3, r3, #817889280	@ 0x30c00000
70102d40:	f423 137c 	bic.w	r3, r3, #4128768	@ 0x3f0000
70102d44:	3901      	subs	r1, #1
70102d46:	433b      	orrs	r3, r7
70102d48:	ea43 4301 	orr.w	r3, r3, r1, lsl #16
70102d4c:	f8c2 30dc 	str.w	r3, [r2, #220]	@ 0xdc
70102d50:	2340      	movs	r3, #64	@ 0x40
70102d52:	f8c2 3a40 	str.w	r3, [r2, #2624]	@ 0xa40
70102d56:	f7ff facf 	bl	701022f8 <LL_RCC_SetClockSource>
70102d5a:	00ad      	lsls	r5, r5, #2
70102d5c:	d519      	bpl.n	70102d92 <HAL_RCCEx_PeriphCLKConfig+0x8d2>
70102d5e:	f8d4 0128 	ldr.w	r0, [r4, #296]	@ 0x128
70102d62:	4b88      	ldr	r3, [pc, #544]	@ (70102f84 <HAL_RCCEx_PeriphCLKConfig+0xac4>)
70102d64:	4298      	cmp	r0, r3
70102d66:	f040 856a 	bne.w	7010383e <HAL_RCCEx_PeriphCLKConfig+0x137e>
70102d6a:	4a84      	ldr	r2, [pc, #528]	@ (70102f7c <HAL_RCCEx_PeriphCLKConfig+0xabc>)
70102d6c:	6be1      	ldr	r1, [r4, #60]	@ 0x3c
70102d6e:	f8d2 30dc 	ldr.w	r3, [r2, #220]	@ 0xdc
70102d72:	6ba5      	ldr	r5, [r4, #56]	@ 0x38
70102d74:	f023 5343 	bic.w	r3, r3, #817889280	@ 0x30c00000
70102d78:	f423 137c 	bic.w	r3, r3, #4128768	@ 0x3f0000
70102d7c:	3901      	subs	r1, #1
70102d7e:	432b      	orrs	r3, r5
70102d80:	ea43 4301 	orr.w	r3, r3, r1, lsl #16
70102d84:	f8c2 30dc 	str.w	r3, [r2, #220]	@ 0xdc
70102d88:	2340      	movs	r3, #64	@ 0x40
70102d8a:	f8c2 3a40 	str.w	r3, [r2, #2624]	@ 0xa40
70102d8e:	f7ff fab3 	bl	701022f8 <LL_RCC_SetClockSource>
70102d92:	07f0      	lsls	r0, r6, #31
70102d94:	d51e      	bpl.n	70102dd4 <HAL_RCCEx_PeriphCLKConfig+0x914>
70102d96:	f8d4 114c 	ldr.w	r1, [r4, #332]	@ 0x14c
70102d9a:	4a78      	ldr	r2, [pc, #480]	@ (70102f7c <HAL_RCCEx_PeriphCLKConfig+0xabc>)
70102d9c:	2902      	cmp	r1, #2
70102d9e:	f040 856c 	bne.w	7010387a <HAL_RCCEx_PeriphCLKConfig+0x13ba>
70102da2:	f8d2 30dc 	ldr.w	r3, [r2, #220]	@ 0xdc
70102da6:	6be0      	ldr	r0, [r4, #60]	@ 0x3c
70102da8:	6ba5      	ldr	r5, [r4, #56]	@ 0x38
70102daa:	f023 5343 	bic.w	r3, r3, #817889280	@ 0x30c00000
70102dae:	f423 137c 	bic.w	r3, r3, #4128768	@ 0x3f0000
70102db2:	3801      	subs	r0, #1
70102db4:	432b      	orrs	r3, r5
70102db6:	ea43 4300 	orr.w	r3, r3, r0, lsl #16
70102dba:	f8c2 30dc 	str.w	r3, [r2, #220]	@ 0xdc
70102dbe:	2340      	movs	r3, #64	@ 0x40
70102dc0:	f8c2 3a40 	str.w	r3, [r2, #2624]	@ 0xa40
70102dc4:	4a6d      	ldr	r2, [pc, #436]	@ (70102f7c <HAL_RCCEx_PeriphCLKConfig+0xabc>)
70102dc6:	f8d2 3164 	ldr.w	r3, [r2, #356]	@ 0x164
70102dca:	f023 0307 	bic.w	r3, r3, #7
70102dce:	430b      	orrs	r3, r1
70102dd0:	f8c2 3164 	str.w	r3, [r2, #356]	@ 0x164
70102dd4:	07b1      	lsls	r1, r6, #30
70102dd6:	d519      	bpl.n	70102e0c <HAL_RCCEx_PeriphCLKConfig+0x94c>
70102dd8:	f8d4 0134 	ldr.w	r0, [r4, #308]	@ 0x134
70102ddc:	4b6a      	ldr	r3, [pc, #424]	@ (70102f88 <HAL_RCCEx_PeriphCLKConfig+0xac8>)
70102dde:	4298      	cmp	r0, r3
70102de0:	f040 8565 	bne.w	701038ae <HAL_RCCEx_PeriphCLKConfig+0x13ee>
70102de4:	4a65      	ldr	r2, [pc, #404]	@ (70102f7c <HAL_RCCEx_PeriphCLKConfig+0xabc>)
70102de6:	6c61      	ldr	r1, [r4, #68]	@ 0x44
70102de8:	f8d2 30e0 	ldr.w	r3, [r2, #224]	@ 0xe0
70102dec:	6c25      	ldr	r5, [r4, #64]	@ 0x40
70102dee:	f023 5343 	bic.w	r3, r3, #817889280	@ 0x30c00000
70102df2:	f423 137c 	bic.w	r3, r3, #4128768	@ 0x3f0000
70102df6:	3901      	subs	r1, #1
70102df8:	432b      	orrs	r3, r5
70102dfa:	ea43 4301 	orr.w	r3, r3, r1, lsl #16
70102dfe:	f8c2 30e0 	str.w	r3, [r2, #224]	@ 0xe0
70102e02:	2380      	movs	r3, #128	@ 0x80
70102e04:	f8c2 3a40 	str.w	r3, [r2, #2624]	@ 0xa40
70102e08:	f7ff fa76 	bl	701022f8 <LL_RCC_SetClockSource>
70102e0c:	0772      	lsls	r2, r6, #29
70102e0e:	d519      	bpl.n	70102e44 <HAL_RCCEx_PeriphCLKConfig+0x984>
70102e10:	f8d4 0138 	ldr.w	r0, [r4, #312]	@ 0x138
70102e14:	4b5d      	ldr	r3, [pc, #372]	@ (70102f8c <HAL_RCCEx_PeriphCLKConfig+0xacc>)
70102e16:	4298      	cmp	r0, r3
70102e18:	f040 8568 	bne.w	701038ec <HAL_RCCEx_PeriphCLKConfig+0x142c>
70102e1c:	4a57      	ldr	r2, [pc, #348]	@ (70102f7c <HAL_RCCEx_PeriphCLKConfig+0xabc>)
70102e1e:	6c61      	ldr	r1, [r4, #68]	@ 0x44
70102e20:	f8d2 30e0 	ldr.w	r3, [r2, #224]	@ 0xe0
70102e24:	6c25      	ldr	r5, [r4, #64]	@ 0x40
70102e26:	f023 5343 	bic.w	r3, r3, #817889280	@ 0x30c00000
70102e2a:	f423 137c 	bic.w	r3, r3, #4128768	@ 0x3f0000
70102e2e:	3901      	subs	r1, #1
70102e30:	432b      	orrs	r3, r5
70102e32:	ea43 4301 	orr.w	r3, r3, r1, lsl #16
70102e36:	f8c2 30e0 	str.w	r3, [r2, #224]	@ 0xe0
70102e3a:	2380      	movs	r3, #128	@ 0x80
70102e3c:	f8c2 3a40 	str.w	r3, [r2, #2624]	@ 0xa40
70102e40:	f7ff fa5a 	bl	701022f8 <LL_RCC_SetClockSource>
70102e44:	0733      	lsls	r3, r6, #28
70102e46:	d519      	bpl.n	70102e7c <HAL_RCCEx_PeriphCLKConfig+0x9bc>
70102e48:	f8d4 013c 	ldr.w	r0, [r4, #316]	@ 0x13c
70102e4c:	4b50      	ldr	r3, [pc, #320]	@ (70102f90 <HAL_RCCEx_PeriphCLKConfig+0xad0>)
70102e4e:	4298      	cmp	r0, r3
70102e50:	f040 856b 	bne.w	7010392a <HAL_RCCEx_PeriphCLKConfig+0x146a>
70102e54:	4a49      	ldr	r2, [pc, #292]	@ (70102f7c <HAL_RCCEx_PeriphCLKConfig+0xabc>)
70102e56:	6c61      	ldr	r1, [r4, #68]	@ 0x44
70102e58:	f8d2 30e0 	ldr.w	r3, [r2, #224]	@ 0xe0
70102e5c:	6c25      	ldr	r5, [r4, #64]	@ 0x40
70102e5e:	f023 5343 	bic.w	r3, r3, #817889280	@ 0x30c00000
70102e62:	f423 137c 	bic.w	r3, r3, #4128768	@ 0x3f0000
70102e66:	3901      	subs	r1, #1
70102e68:	432b      	orrs	r3, r5
70102e6a:	ea43 4301 	orr.w	r3, r3, r1, lsl #16
70102e6e:	f8c2 30e0 	str.w	r3, [r2, #224]	@ 0xe0
70102e72:	2380      	movs	r3, #128	@ 0x80
70102e74:	f8c2 3a40 	str.w	r3, [r2, #2624]	@ 0xa40
70102e78:	f7ff fa3e 	bl	701022f8 <LL_RCC_SetClockSource>
70102e7c:	06f7      	lsls	r7, r6, #27
70102e7e:	d51a      	bpl.n	70102eb6 <HAL_RCCEx_PeriphCLKConfig+0x9f6>
70102e80:	f8d4 0140 	ldr.w	r0, [r4, #320]	@ 0x140
70102e84:	4b43      	ldr	r3, [pc, #268]	@ (70102f94 <HAL_RCCEx_PeriphCLKConfig+0xad4>)
70102e86:	4298      	cmp	r0, r3
70102e88:	f040 8596 	bne.w	701039b8 <HAL_RCCEx_PeriphCLKConfig+0x14f8>
70102e8c:	4a3b      	ldr	r2, [pc, #236]	@ (70102f7c <HAL_RCCEx_PeriphCLKConfig+0xabc>)
70102e8e:	6ce1      	ldr	r1, [r4, #76]	@ 0x4c
70102e90:	f8d2 30e4 	ldr.w	r3, [r2, #228]	@ 0xe4
70102e94:	6ca5      	ldr	r5, [r4, #72]	@ 0x48
70102e96:	f023 5343 	bic.w	r3, r3, #817889280	@ 0x30c00000
70102e9a:	f423 137c 	bic.w	r3, r3, #4128768	@ 0x3f0000
70102e9e:	3901      	subs	r1, #1
70102ea0:	432b      	orrs	r3, r5
70102ea2:	ea43 4301 	orr.w	r3, r3, r1, lsl #16
70102ea6:	f8c2 30e4 	str.w	r3, [r2, #228]	@ 0xe4
70102eaa:	f44f 7380 	mov.w	r3, #256	@ 0x100
70102eae:	f8c2 3a40 	str.w	r3, [r2, #2624]	@ 0xa40
70102eb2:	f7ff fa21 	bl	701022f8 <LL_RCC_SetClockSource>
70102eb6:	06b5      	lsls	r5, r6, #26
70102eb8:	d51a      	bpl.n	70102ef0 <HAL_RCCEx_PeriphCLKConfig+0xa30>
70102eba:	f8d4 0144 	ldr.w	r0, [r4, #324]	@ 0x144
70102ebe:	4b36      	ldr	r3, [pc, #216]	@ (70102f98 <HAL_RCCEx_PeriphCLKConfig+0xad8>)
70102ec0:	4298      	cmp	r0, r3
70102ec2:	f040 8598 	bne.w	701039f6 <HAL_RCCEx_PeriphCLKConfig+0x1536>
70102ec6:	4a2d      	ldr	r2, [pc, #180]	@ (70102f7c <HAL_RCCEx_PeriphCLKConfig+0xabc>)
70102ec8:	6ce1      	ldr	r1, [r4, #76]	@ 0x4c
70102eca:	f8d2 30e4 	ldr.w	r3, [r2, #228]	@ 0xe4
70102ece:	6ca5      	ldr	r5, [r4, #72]	@ 0x48
70102ed0:	f023 5343 	bic.w	r3, r3, #817889280	@ 0x30c00000
70102ed4:	f423 137c 	bic.w	r3, r3, #4128768	@ 0x3f0000
70102ed8:	3901      	subs	r1, #1
70102eda:	432b      	orrs	r3, r5
70102edc:	ea43 4301 	orr.w	r3, r3, r1, lsl #16
70102ee0:	f8c2 30e4 	str.w	r3, [r2, #228]	@ 0xe4
70102ee4:	f44f 7380 	mov.w	r3, #256	@ 0x100
70102ee8:	f8c2 3a40 	str.w	r3, [r2, #2624]	@ 0xa40
70102eec:	f7ff fa04 	bl	701022f8 <LL_RCC_SetClockSource>
70102ef0:	0670      	lsls	r0, r6, #25
70102ef2:	d519      	bpl.n	70102f28 <HAL_RCCEx_PeriphCLKConfig+0xa68>
70102ef4:	f8d4 0148 	ldr.w	r0, [r4, #328]	@ 0x148
70102ef8:	4b28      	ldr	r3, [pc, #160]	@ (70102f9c <HAL_RCCEx_PeriphCLKConfig+0xadc>)
70102efa:	4298      	cmp	r0, r3
70102efc:	f040 859a 	bne.w	70103a34 <HAL_RCCEx_PeriphCLKConfig+0x1574>
70102f00:	4a1e      	ldr	r2, [pc, #120]	@ (70102f7c <HAL_RCCEx_PeriphCLKConfig+0xabc>)
70102f02:	6c61      	ldr	r1, [r4, #68]	@ 0x44
70102f04:	f8d2 30e0 	ldr.w	r3, [r2, #224]	@ 0xe0
70102f08:	6c25      	ldr	r5, [r4, #64]	@ 0x40
70102f0a:	f023 5343 	bic.w	r3, r3, #817889280	@ 0x30c00000
70102f0e:	f423 137c 	bic.w	r3, r3, #4128768	@ 0x3f0000
70102f12:	3901      	subs	r1, #1
70102f14:	432b      	orrs	r3, r5
70102f16:	ea43 4301 	orr.w	r3, r3, r1, lsl #16
70102f1a:	f8c2 30e0 	str.w	r3, [r2, #224]	@ 0xe0
70102f1e:	2380      	movs	r3, #128	@ 0x80
70102f20:	f8c2 3a40 	str.w	r3, [r2, #2624]	@ 0xa40
70102f24:	f7ff f9e8 	bl	701022f8 <LL_RCC_SetClockSource>
70102f28:	05f1      	lsls	r1, r6, #23
70102f2a:	d51a      	bpl.n	70102f62 <HAL_RCCEx_PeriphCLKConfig+0xaa2>
70102f2c:	f8d4 0150 	ldr.w	r0, [r4, #336]	@ 0x150
70102f30:	4b1b      	ldr	r3, [pc, #108]	@ (70102fa0 <HAL_RCCEx_PeriphCLKConfig+0xae0>)
70102f32:	4298      	cmp	r0, r3
70102f34:	f040 859d 	bne.w	70103a72 <HAL_RCCEx_PeriphCLKConfig+0x15b2>
70102f38:	4a10      	ldr	r2, [pc, #64]	@ (70102f7c <HAL_RCCEx_PeriphCLKConfig+0xabc>)
70102f3a:	6ce1      	ldr	r1, [r4, #76]	@ 0x4c
70102f3c:	f8d2 30e4 	ldr.w	r3, [r2, #228]	@ 0xe4
70102f40:	6ca5      	ldr	r5, [r4, #72]	@ 0x48
70102f42:	f023 5343 	bic.w	r3, r3, #817889280	@ 0x30c00000
70102f46:	f423 137c 	bic.w	r3, r3, #4128768	@ 0x3f0000
70102f4a:	3901      	subs	r1, #1
70102f4c:	432b      	orrs	r3, r5
70102f4e:	ea43 4301 	orr.w	r3, r3, r1, lsl #16
70102f52:	f8c2 30e4 	str.w	r3, [r2, #228]	@ 0xe4
70102f56:	f44f 7380 	mov.w	r3, #256	@ 0x100
70102f5a:	f8c2 3a40 	str.w	r3, [r2, #2624]	@ 0xa40
70102f5e:	f7ff f9cb 	bl	701022f8 <LL_RCC_SetClockSource>
70102f62:	05b2      	lsls	r2, r6, #22
70102f64:	d531      	bpl.n	70102fca <HAL_RCCEx_PeriphCLKConfig+0xb0a>
70102f66:	f8d4 0154 	ldr.w	r0, [r4, #340]	@ 0x154
70102f6a:	4b0e      	ldr	r3, [pc, #56]	@ (70102fa4 <HAL_RCCEx_PeriphCLKConfig+0xae4>)
70102f6c:	4298      	cmp	r0, r3
70102f6e:	f040 859f 	bne.w	70103ab0 <HAL_RCCEx_PeriphCLKConfig+0x15f0>
70102f72:	4a02      	ldr	r2, [pc, #8]	@ (70102f7c <HAL_RCCEx_PeriphCLKConfig+0xabc>)
70102f74:	6ce1      	ldr	r1, [r4, #76]	@ 0x4c
70102f76:	f8d2 30e4 	ldr.w	r3, [r2, #228]	@ 0xe4
70102f7a:	e015      	b.n	70102fa8 <HAL_RCCEx_PeriphCLKConfig+0xae8>
70102f7c:	56028000 	.word	0x56028000
70102f80:	07021418 	.word	0x07021418
70102f84:	07021818 	.word	0x07021818
70102f88:	07020420 	.word	0x07020420
70102f8c:	07020820 	.word	0x07020820
70102f90:	07020c20 	.word	0x07020c20
70102f94:	07021020 	.word	0x07021020
70102f98:	07021420 	.word	0x07021420
70102f9c:	07021820 	.word	0x07021820
70102fa0:	07020030 	.word	0x07020030
70102fa4:	07020430 	.word	0x07020430
70102fa8:	6ca5      	ldr	r5, [r4, #72]	@ 0x48
70102faa:	f023 5343 	bic.w	r3, r3, #817889280	@ 0x30c00000
70102fae:	f423 137c 	bic.w	r3, r3, #4128768	@ 0x3f0000
70102fb2:	3901      	subs	r1, #1
70102fb4:	432b      	orrs	r3, r5
70102fb6:	ea43 4301 	orr.w	r3, r3, r1, lsl #16
70102fba:	f8c2 30e4 	str.w	r3, [r2, #228]	@ 0xe4
70102fbe:	f44f 7380 	mov.w	r3, #256	@ 0x100
70102fc2:	f8c2 3a40 	str.w	r3, [r2, #2624]	@ 0xa40
70102fc6:	f7ff f997 	bl	701022f8 <LL_RCC_SetClockSource>
70102fca:	0573      	lsls	r3, r6, #21
70102fcc:	d51a      	bpl.n	70103004 <HAL_RCCEx_PeriphCLKConfig+0xb44>
70102fce:	f8d4 0158 	ldr.w	r0, [r4, #344]	@ 0x158
70102fd2:	4bcb      	ldr	r3, [pc, #812]	@ (70103300 <HAL_RCCEx_PeriphCLKConfig+0xe40>)
70102fd4:	4298      	cmp	r0, r3
70102fd6:	f040 858a 	bne.w	70103aee <HAL_RCCEx_PeriphCLKConfig+0x162e>
70102fda:	4aca      	ldr	r2, [pc, #808]	@ (70103304 <HAL_RCCEx_PeriphCLKConfig+0xe44>)
70102fdc:	6ce1      	ldr	r1, [r4, #76]	@ 0x4c
70102fde:	f8d2 30e4 	ldr.w	r3, [r2, #228]	@ 0xe4
70102fe2:	6ca5      	ldr	r5, [r4, #72]	@ 0x48
70102fe4:	f023 5343 	bic.w	r3, r3, #817889280	@ 0x30c00000
70102fe8:	f423 137c 	bic.w	r3, r3, #4128768	@ 0x3f0000
70102fec:	3901      	subs	r1, #1
70102fee:	432b      	orrs	r3, r5
70102ff0:	ea43 4301 	orr.w	r3, r3, r1, lsl #16
70102ff4:	f8c2 30e4 	str.w	r3, [r2, #228]	@ 0xe4
70102ff8:	f44f 7380 	mov.w	r3, #256	@ 0x100
70102ffc:	f8c2 3a40 	str.w	r3, [r2, #2624]	@ 0xa40
70103000:	f7ff f97a 	bl	701022f8 <LL_RCC_SetClockSource>
70103004:	0537      	lsls	r7, r6, #20
70103006:	d51a      	bpl.n	7010303e <HAL_RCCEx_PeriphCLKConfig+0xb7e>
70103008:	f8d4 015c 	ldr.w	r0, [r4, #348]	@ 0x15c
7010300c:	4bbe      	ldr	r3, [pc, #760]	@ (70103308 <HAL_RCCEx_PeriphCLKConfig+0xe48>)
7010300e:	4298      	cmp	r0, r3
70103010:	f040 858c 	bne.w	70103b2c <HAL_RCCEx_PeriphCLKConfig+0x166c>
70103014:	4abb      	ldr	r2, [pc, #748]	@ (70103304 <HAL_RCCEx_PeriphCLKConfig+0xe44>)
70103016:	6ce1      	ldr	r1, [r4, #76]	@ 0x4c
70103018:	f8d2 30e4 	ldr.w	r3, [r2, #228]	@ 0xe4
7010301c:	6ca5      	ldr	r5, [r4, #72]	@ 0x48
7010301e:	f023 5343 	bic.w	r3, r3, #817889280	@ 0x30c00000
70103022:	f423 137c 	bic.w	r3, r3, #4128768	@ 0x3f0000
70103026:	3901      	subs	r1, #1
70103028:	432b      	orrs	r3, r5
7010302a:	ea43 4301 	orr.w	r3, r3, r1, lsl #16
7010302e:	f8c2 30e4 	str.w	r3, [r2, #228]	@ 0xe4
70103032:	f44f 7380 	mov.w	r3, #256	@ 0x100
70103036:	f8c2 3a40 	str.w	r3, [r2, #2624]	@ 0xa40
7010303a:	f7ff f95d 	bl	701022f8 <LL_RCC_SetClockSource>
7010303e:	04f5      	lsls	r5, r6, #19
70103040:	d51a      	bpl.n	70103078 <HAL_RCCEx_PeriphCLKConfig+0xbb8>
70103042:	f8d4 0160 	ldr.w	r0, [r4, #352]	@ 0x160
70103046:	4bb1      	ldr	r3, [pc, #708]	@ (7010330c <HAL_RCCEx_PeriphCLKConfig+0xe4c>)
70103048:	4298      	cmp	r0, r3
7010304a:	f040 858e 	bne.w	70103b6a <HAL_RCCEx_PeriphCLKConfig+0x16aa>
7010304e:	4aad      	ldr	r2, [pc, #692]	@ (70103304 <HAL_RCCEx_PeriphCLKConfig+0xe44>)
70103050:	6ce1      	ldr	r1, [r4, #76]	@ 0x4c
70103052:	f8d2 30e4 	ldr.w	r3, [r2, #228]	@ 0xe4
70103056:	6ca5      	ldr	r5, [r4, #72]	@ 0x48
70103058:	f023 5343 	bic.w	r3, r3, #817889280	@ 0x30c00000
7010305c:	f423 137c 	bic.w	r3, r3, #4128768	@ 0x3f0000
70103060:	3901      	subs	r1, #1
70103062:	432b      	orrs	r3, r5
70103064:	ea43 4301 	orr.w	r3, r3, r1, lsl #16
70103068:	f8c2 30e4 	str.w	r3, [r2, #228]	@ 0xe4
7010306c:	f44f 7380 	mov.w	r3, #256	@ 0x100
70103070:	f8c2 3a40 	str.w	r3, [r2, #2624]	@ 0xa40
70103074:	f7ff f940 	bl	701022f8 <LL_RCC_SetClockSource>
70103078:	04b0      	lsls	r0, r6, #18
7010307a:	d51a      	bpl.n	701030b2 <HAL_RCCEx_PeriphCLKConfig+0xbf2>
7010307c:	f8d4 0164 	ldr.w	r0, [r4, #356]	@ 0x164
70103080:	4ba3      	ldr	r3, [pc, #652]	@ (70103310 <HAL_RCCEx_PeriphCLKConfig+0xe50>)
70103082:	4298      	cmp	r0, r3
70103084:	f040 8590 	bne.w	70103ba8 <HAL_RCCEx_PeriphCLKConfig+0x16e8>
70103088:	4a9e      	ldr	r2, [pc, #632]	@ (70103304 <HAL_RCCEx_PeriphCLKConfig+0xe44>)
7010308a:	6ce1      	ldr	r1, [r4, #76]	@ 0x4c
7010308c:	f8d2 30e4 	ldr.w	r3, [r2, #228]	@ 0xe4
70103090:	6ca5      	ldr	r5, [r4, #72]	@ 0x48
70103092:	f023 5343 	bic.w	r3, r3, #817889280	@ 0x30c00000
70103096:	f423 137c 	bic.w	r3, r3, #4128768	@ 0x3f0000
7010309a:	3901      	subs	r1, #1
7010309c:	432b      	orrs	r3, r5
7010309e:	ea43 4301 	orr.w	r3, r3, r1, lsl #16
701030a2:	f8c2 30e4 	str.w	r3, [r2, #228]	@ 0xe4
701030a6:	f44f 7380 	mov.w	r3, #256	@ 0x100
701030aa:	f8c2 3a40 	str.w	r3, [r2, #2624]	@ 0xa40
701030ae:	f7ff f923 	bl	701022f8 <LL_RCC_SetClockSource>
701030b2:	0471      	lsls	r1, r6, #17
701030b4:	d51a      	bpl.n	701030ec <HAL_RCCEx_PeriphCLKConfig+0xc2c>
701030b6:	f8d4 0168 	ldr.w	r0, [r4, #360]	@ 0x168
701030ba:	4b96      	ldr	r3, [pc, #600]	@ (70103314 <HAL_RCCEx_PeriphCLKConfig+0xe54>)
701030bc:	4298      	cmp	r0, r3
701030be:	f040 8592 	bne.w	70103be6 <HAL_RCCEx_PeriphCLKConfig+0x1726>
701030c2:	4a90      	ldr	r2, [pc, #576]	@ (70103304 <HAL_RCCEx_PeriphCLKConfig+0xe44>)
701030c4:	6ce1      	ldr	r1, [r4, #76]	@ 0x4c
701030c6:	f8d2 30e4 	ldr.w	r3, [r2, #228]	@ 0xe4
701030ca:	6ca5      	ldr	r5, [r4, #72]	@ 0x48
701030cc:	f023 5343 	bic.w	r3, r3, #817889280	@ 0x30c00000
701030d0:	f423 137c 	bic.w	r3, r3, #4128768	@ 0x3f0000
701030d4:	3901      	subs	r1, #1
701030d6:	432b      	orrs	r3, r5
701030d8:	ea43 4301 	orr.w	r3, r3, r1, lsl #16
701030dc:	f8c2 30e4 	str.w	r3, [r2, #228]	@ 0xe4
701030e0:	f44f 7380 	mov.w	r3, #256	@ 0x100
701030e4:	f8c2 3a40 	str.w	r3, [r2, #2624]	@ 0xa40
701030e8:	f7ff f906 	bl	701022f8 <LL_RCC_SetClockSource>
701030ec:	0432      	lsls	r2, r6, #16
701030ee:	d51a      	bpl.n	70103126 <HAL_RCCEx_PeriphCLKConfig+0xc66>
701030f0:	f8d4 016c 	ldr.w	r0, [r4, #364]	@ 0x16c
701030f4:	4b88      	ldr	r3, [pc, #544]	@ (70103318 <HAL_RCCEx_PeriphCLKConfig+0xe58>)
701030f6:	4298      	cmp	r0, r3
701030f8:	f040 8594 	bne.w	70103c24 <HAL_RCCEx_PeriphCLKConfig+0x1764>
701030fc:	4a81      	ldr	r2, [pc, #516]	@ (70103304 <HAL_RCCEx_PeriphCLKConfig+0xe44>)
701030fe:	6ce1      	ldr	r1, [r4, #76]	@ 0x4c
70103100:	f8d2 30e4 	ldr.w	r3, [r2, #228]	@ 0xe4
70103104:	6ca5      	ldr	r5, [r4, #72]	@ 0x48
70103106:	f023 5343 	bic.w	r3, r3, #817889280	@ 0x30c00000
7010310a:	f423 137c 	bic.w	r3, r3, #4128768	@ 0x3f0000
7010310e:	3901      	subs	r1, #1
70103110:	432b      	orrs	r3, r5
70103112:	ea43 4301 	orr.w	r3, r3, r1, lsl #16
70103116:	f8c2 30e4 	str.w	r3, [r2, #228]	@ 0xe4
7010311a:	f44f 7380 	mov.w	r3, #256	@ 0x100
7010311e:	f8c2 3a40 	str.w	r3, [r2, #2624]	@ 0xa40
70103122:	f7ff f8e9 	bl	701022f8 <LL_RCC_SetClockSource>
70103126:	03f3      	lsls	r3, r6, #15
70103128:	d51a      	bpl.n	70103160 <HAL_RCCEx_PeriphCLKConfig+0xca0>
7010312a:	f8d4 0170 	ldr.w	r0, [r4, #368]	@ 0x170
7010312e:	4b7b      	ldr	r3, [pc, #492]	@ (7010331c <HAL_RCCEx_PeriphCLKConfig+0xe5c>)
70103130:	4298      	cmp	r0, r3
70103132:	f040 8596 	bne.w	70103c62 <HAL_RCCEx_PeriphCLKConfig+0x17a2>
70103136:	4a73      	ldr	r2, [pc, #460]	@ (70103304 <HAL_RCCEx_PeriphCLKConfig+0xe44>)
70103138:	6ce1      	ldr	r1, [r4, #76]	@ 0x4c
7010313a:	f8d2 30e4 	ldr.w	r3, [r2, #228]	@ 0xe4
7010313e:	6ca5      	ldr	r5, [r4, #72]	@ 0x48
70103140:	f023 5343 	bic.w	r3, r3, #817889280	@ 0x30c00000
70103144:	f423 137c 	bic.w	r3, r3, #4128768	@ 0x3f0000
70103148:	3901      	subs	r1, #1
7010314a:	432b      	orrs	r3, r5
7010314c:	ea43 4301 	orr.w	r3, r3, r1, lsl #16
70103150:	f8c2 30e4 	str.w	r3, [r2, #228]	@ 0xe4
70103154:	f44f 7380 	mov.w	r3, #256	@ 0x100
70103158:	f8c2 3a40 	str.w	r3, [r2, #2624]	@ 0xa40
7010315c:	f7ff f8cc 	bl	701022f8 <LL_RCC_SetClockSource>
70103160:	03b7      	lsls	r7, r6, #14
70103162:	d51a      	bpl.n	7010319a <HAL_RCCEx_PeriphCLKConfig+0xcda>
70103164:	f8d4 0174 	ldr.w	r0, [r4, #372]	@ 0x174
70103168:	4b6d      	ldr	r3, [pc, #436]	@ (70103320 <HAL_RCCEx_PeriphCLKConfig+0xe60>)
7010316a:	4298      	cmp	r0, r3
7010316c:	f040 85ca 	bne.w	70103d04 <HAL_RCCEx_PeriphCLKConfig+0x1844>
70103170:	4a64      	ldr	r2, [pc, #400]	@ (70103304 <HAL_RCCEx_PeriphCLKConfig+0xe44>)
70103172:	6ce1      	ldr	r1, [r4, #76]	@ 0x4c
70103174:	f8d2 30e4 	ldr.w	r3, [r2, #228]	@ 0xe4
70103178:	6ca5      	ldr	r5, [r4, #72]	@ 0x48
7010317a:	f023 5343 	bic.w	r3, r3, #817889280	@ 0x30c00000
7010317e:	f423 137c 	bic.w	r3, r3, #4128768	@ 0x3f0000
70103182:	3901      	subs	r1, #1
70103184:	432b      	orrs	r3, r5
70103186:	ea43 4301 	orr.w	r3, r3, r1, lsl #16
7010318a:	f8c2 30e4 	str.w	r3, [r2, #228]	@ 0xe4
7010318e:	f44f 7380 	mov.w	r3, #256	@ 0x100
70103192:	f8c2 3a40 	str.w	r3, [r2, #2624]	@ 0xa40
70103196:	f7ff f8af 	bl	701022f8 <LL_RCC_SetClockSource>
7010319a:	0375      	lsls	r5, r6, #13
7010319c:	d523      	bpl.n	701031e6 <HAL_RCCEx_PeriphCLKConfig+0xd26>
7010319e:	f8d4 0178 	ldr.w	r0, [r4, #376]	@ 0x178
701031a2:	4b60      	ldr	r3, [pc, #384]	@ (70103324 <HAL_RCCEx_PeriphCLKConfig+0xe64>)
701031a4:	4298      	cmp	r0, r3
701031a6:	f040 85cc 	bne.w	70103d42 <HAL_RCCEx_PeriphCLKConfig+0x1882>
701031aa:	4a56      	ldr	r2, [pc, #344]	@ (70103304 <HAL_RCCEx_PeriphCLKConfig+0xe44>)
701031ac:	6fe1      	ldr	r1, [r4, #124]	@ 0x7c
701031ae:	f8d2 30fc 	ldr.w	r3, [r2, #252]	@ 0xfc
701031b2:	6fa5      	ldr	r5, [r4, #120]	@ 0x78
701031b4:	f023 5343 	bic.w	r3, r3, #817889280	@ 0x30c00000
701031b8:	f423 137c 	bic.w	r3, r3, #4128768	@ 0x3f0000
701031bc:	3901      	subs	r1, #1
701031be:	432b      	orrs	r3, r5
701031c0:	ea43 4301 	orr.w	r3, r3, r1, lsl #16
701031c4:	f8c2 30fc 	str.w	r3, [r2, #252]	@ 0xfc
701031c8:	f44f 4380 	mov.w	r3, #16384	@ 0x4000
701031cc:	f8c2 3a40 	str.w	r3, [r2, #2624]	@ 0xa40
701031d0:	f020 4000 	bic.w	r0, r0, #2147483648	@ 0x80000000
701031d4:	f7ff f890 	bl	701022f8 <LL_RCC_SetClockSource>
701031d8:	f8d4 3178 	ldr.w	r3, [r4, #376]	@ 0x178
701031dc:	2b00      	cmp	r3, #0
701031de:	f280 85b9 	bge.w	70103d54 <HAL_RCCEx_PeriphCLKConfig+0x1894>
701031e2:	f7ff f859 	bl	70102298 <LL_RCC_HSE_SelectHSEDiv2AsDiv2Clock>
701031e6:	02f0      	lsls	r0, r6, #11
701031e8:	d523      	bpl.n	70103232 <HAL_RCCEx_PeriphCLKConfig+0xd72>
701031ea:	f8d4 0180 	ldr.w	r0, [r4, #384]	@ 0x180
701031ee:	4b4e      	ldr	r3, [pc, #312]	@ (70103328 <HAL_RCCEx_PeriphCLKConfig+0xe68>)
701031f0:	4298      	cmp	r0, r3
701031f2:	f040 85b3 	bne.w	70103d5c <HAL_RCCEx_PeriphCLKConfig+0x189c>
701031f6:	4a43      	ldr	r2, [pc, #268]	@ (70103304 <HAL_RCCEx_PeriphCLKConfig+0xe44>)
701031f8:	6fe1      	ldr	r1, [r4, #124]	@ 0x7c
701031fa:	f8d2 30fc 	ldr.w	r3, [r2, #252]	@ 0xfc
701031fe:	6fa5      	ldr	r5, [r4, #120]	@ 0x78
70103200:	f023 5343 	bic.w	r3, r3, #817889280	@ 0x30c00000
70103204:	f423 137c 	bic.w	r3, r3, #4128768	@ 0x3f0000
70103208:	3901      	subs	r1, #1
7010320a:	432b      	orrs	r3, r5
7010320c:	ea43 4301 	orr.w	r3, r3, r1, lsl #16
70103210:	f8c2 30fc 	str.w	r3, [r2, #252]	@ 0xfc
70103214:	f44f 4380 	mov.w	r3, #16384	@ 0x4000
70103218:	f8c2 3a40 	str.w	r3, [r2, #2624]	@ 0xa40
7010321c:	f020 4000 	bic.w	r0, r0, #2147483648	@ 0x80000000
70103220:	f7ff f86a 	bl	701022f8 <LL_RCC_SetClockSource>
70103224:	f8d4 3180 	ldr.w	r3, [r4, #384]	@ 0x180
70103228:	2b00      	cmp	r3, #0
7010322a:	f280 85a0 	bge.w	70103d6e <HAL_RCCEx_PeriphCLKConfig+0x18ae>
7010322e:	f7ff f833 	bl	70102298 <LL_RCC_HSE_SelectHSEDiv2AsDiv2Clock>
70103232:	0331      	lsls	r1, r6, #12
70103234:	d50c      	bpl.n	70103250 <HAL_RCCEx_PeriphCLKConfig+0xd90>
70103236:	f8d4 017c 	ldr.w	r0, [r4, #380]	@ 0x17c
7010323a:	f020 4000 	bic.w	r0, r0, #2147483648	@ 0x80000000
7010323e:	f7ff f85b 	bl	701022f8 <LL_RCC_SetClockSource>
70103242:	f8d4 317c 	ldr.w	r3, [r4, #380]	@ 0x17c
70103246:	2b00      	cmp	r3, #0
70103248:	f280 8595 	bge.w	70103d76 <HAL_RCCEx_PeriphCLKConfig+0x18b6>
7010324c:	f7ff f824 	bl	70102298 <LL_RCC_HSE_SelectHSEDiv2AsDiv2Clock>
70103250:	02b2      	lsls	r2, r6, #10
70103252:	d50c      	bpl.n	7010326e <HAL_RCCEx_PeriphCLKConfig+0xdae>
70103254:	f8d4 0184 	ldr.w	r0, [r4, #388]	@ 0x184
70103258:	f020 4000 	bic.w	r0, r0, #2147483648	@ 0x80000000
7010325c:	f7ff f84c 	bl	701022f8 <LL_RCC_SetClockSource>
70103260:	f8d4 3184 	ldr.w	r3, [r4, #388]	@ 0x184
70103264:	2b00      	cmp	r3, #0
70103266:	f280 858a 	bge.w	70103d7e <HAL_RCCEx_PeriphCLKConfig+0x18be>
7010326a:	f7ff f815 	bl	70102298 <LL_RCC_HSE_SelectHSEDiv2AsDiv2Clock>
7010326e:	0633      	lsls	r3, r6, #24
70103270:	d508      	bpl.n	70103284 <HAL_RCCEx_PeriphCLKConfig+0xdc4>
70103272:	4a24      	ldr	r2, [pc, #144]	@ (70103304 <HAL_RCCEx_PeriphCLKConfig+0xe44>)
70103274:	f8d4 118c 	ldr.w	r1, [r4, #396]	@ 0x18c
70103278:	6a53      	ldr	r3, [r2, #36]	@ 0x24
7010327a:	f023 7340 	bic.w	r3, r3, #50331648	@ 0x3000000
7010327e:	ea43 6301 	orr.w	r3, r3, r1, lsl #24
70103282:	6253      	str	r3, [r2, #36]	@ 0x24
70103284:	f1b8 0000 	subs.w	r0, r8, #0
70103288:	bf18      	it	ne
7010328a:	2001      	movne	r0, #1
7010328c:	e8bd 81f0 	ldmia.w	sp!, {r4, r5, r6, r7, r8, pc}
70103290:	f8d3 20e8 	ldr.w	r2, [r3, #232]	@ 0xe8
70103294:	6d60      	ldr	r0, [r4, #84]	@ 0x54
70103296:	6d27      	ldr	r7, [r4, #80]	@ 0x50
70103298:	f022 5243 	bic.w	r2, r2, #817889280	@ 0x30c00000
7010329c:	f422 127c 	bic.w	r2, r2, #4128768	@ 0x3f0000
701032a0:	3801      	subs	r0, #1
701032a2:	433a      	orrs	r2, r7
701032a4:	ea42 4200 	orr.w	r2, r2, r0, lsl #16
701032a8:	f8c3 20e8 	str.w	r2, [r3, #232]	@ 0xe8
701032ac:	f44f 7200 	mov.w	r2, #512	@ 0x200
701032b0:	f7ff b975 	b.w	7010259e <HAL_RCCEx_PeriphCLKConfig+0xde>
701032b4:	f8d3 20fc 	ldr.w	r2, [r3, #252]	@ 0xfc
701032b8:	6fe0      	ldr	r0, [r4, #124]	@ 0x7c
701032ba:	6fa7      	ldr	r7, [r4, #120]	@ 0x78
701032bc:	f022 5243 	bic.w	r2, r2, #817889280	@ 0x30c00000
701032c0:	f422 127c 	bic.w	r2, r2, #4128768	@ 0x3f0000
701032c4:	3801      	subs	r0, #1
701032c6:	433a      	orrs	r2, r7
701032c8:	ea42 4200 	orr.w	r2, r2, r0, lsl #16
701032cc:	f8c3 20fc 	str.w	r2, [r3, #252]	@ 0xfc
701032d0:	f44f 4280 	mov.w	r2, #16384	@ 0x4000
701032d4:	f7ff b963 	b.w	7010259e <HAL_RCCEx_PeriphCLKConfig+0xde>
701032d8:	f8d3 210c 	ldr.w	r2, [r3, #268]	@ 0x10c
701032dc:	f8d4 009c 	ldr.w	r0, [r4, #156]	@ 0x9c
701032e0:	f8d4 7098 	ldr.w	r7, [r4, #152]	@ 0x98
701032e4:	f022 5243 	bic.w	r2, r2, #817889280	@ 0x30c00000
701032e8:	f422 127c 	bic.w	r2, r2, #4128768	@ 0x3f0000
701032ec:	3801      	subs	r0, #1
701032ee:	433a      	orrs	r2, r7
701032f0:	ea42 4200 	orr.w	r2, r2, r0, lsl #16
701032f4:	f8c3 210c 	str.w	r2, [r3, #268]	@ 0x10c
701032f8:	f44f 2280 	mov.w	r2, #262144	@ 0x40000
701032fc:	f7ff b94f 	b.w	7010259e <HAL_RCCEx_PeriphCLKConfig+0xde>
70103300:	07020830 	.word	0x07020830
70103304:	56028000 	.word	0x56028000
70103308:	07020c30 	.word	0x07020c30
7010330c:	07021030 	.word	0x07021030
70103310:	07021430 	.word	0x07021430
70103314:	07021830 	.word	0x07021830
70103318:	07021c30 	.word	0x07021c30
7010331c:	07020034 	.word	0x07020034
70103320:	07020434 	.word	0x07020434
70103324:	03020c14 	.word	0x03020c14
70103328:	03021414 	.word	0x03021414
7010332c:	f8d3 2110 	ldr.w	r2, [r3, #272]	@ 0x110
70103330:	f8d4 00a4 	ldr.w	r0, [r4, #164]	@ 0xa4
70103334:	f8d4 70a0 	ldr.w	r7, [r4, #160]	@ 0xa0
70103338:	f022 5243 	bic.w	r2, r2, #817889280	@ 0x30c00000
7010333c:	f422 127c 	bic.w	r2, r2, #4128768	@ 0x3f0000
70103340:	3801      	subs	r0, #1
70103342:	433a      	orrs	r2, r7
70103344:	ea42 4200 	orr.w	r2, r2, r0, lsl #16
70103348:	f8c3 2110 	str.w	r2, [r3, #272]	@ 0x110
7010334c:	f44f 2200 	mov.w	r2, #524288	@ 0x80000
70103350:	f7ff b925 	b.w	7010259e <HAL_RCCEx_PeriphCLKConfig+0xde>
70103354:	4bbe      	ldr	r3, [pc, #760]	@ (70103650 <HAL_RCCEx_PeriphCLKConfig+0x1190>)
70103356:	4298      	cmp	r0, r3
70103358:	d111      	bne.n	7010337e <HAL_RCCEx_PeriphCLKConfig+0xebe>
7010335a:	4abe      	ldr	r2, [pc, #760]	@ (70103654 <HAL_RCCEx_PeriphCLKConfig+0x1194>)
7010335c:	6a61      	ldr	r1, [r4, #36]	@ 0x24
7010335e:	f8d2 30d0 	ldr.w	r3, [r2, #208]	@ 0xd0
70103362:	6a27      	ldr	r7, [r4, #32]
70103364:	f023 5343 	bic.w	r3, r3, #817889280	@ 0x30c00000
70103368:	f423 137c 	bic.w	r3, r3, #4128768	@ 0x3f0000
7010336c:	3901      	subs	r1, #1
7010336e:	433b      	orrs	r3, r7
70103370:	ea43 4301 	orr.w	r3, r3, r1, lsl #16
70103374:	f8c2 30d0 	str.w	r3, [r2, #208]	@ 0xd0
70103378:	2308      	movs	r3, #8
7010337a:	f7ff b932 	b.w	701025e2 <HAL_RCCEx_PeriphCLKConfig+0x122>
7010337e:	4bb6      	ldr	r3, [pc, #728]	@ (70103658 <HAL_RCCEx_PeriphCLKConfig+0x1198>)
70103380:	4298      	cmp	r0, r3
70103382:	bf02      	ittt	eq
70103384:	2240      	moveq	r2, #64	@ 0x40
70103386:	4bb3      	ldreq	r3, [pc, #716]	@ (70103654 <HAL_RCCEx_PeriphCLKConfig+0x1194>)
70103388:	f8c3 2a48 	streq.w	r2, [r3, #2632]	@ 0xa48
7010338c:	f7ff b92b 	b.w	701025e6 <HAL_RCCEx_PeriphCLKConfig+0x126>
70103390:	4bb2      	ldr	r3, [pc, #712]	@ (7010365c <HAL_RCCEx_PeriphCLKConfig+0x119c>)
70103392:	4298      	cmp	r0, r3
70103394:	d111      	bne.n	701033ba <HAL_RCCEx_PeriphCLKConfig+0xefa>
70103396:	4aaf      	ldr	r2, [pc, #700]	@ (70103654 <HAL_RCCEx_PeriphCLKConfig+0x1194>)
70103398:	6a61      	ldr	r1, [r4, #36]	@ 0x24
7010339a:	f8d2 30d0 	ldr.w	r3, [r2, #208]	@ 0xd0
7010339e:	6a27      	ldr	r7, [r4, #32]
701033a0:	f023 5343 	bic.w	r3, r3, #817889280	@ 0x30c00000
701033a4:	f423 137c 	bic.w	r3, r3, #4128768	@ 0x3f0000
701033a8:	3901      	subs	r1, #1
701033aa:	433b      	orrs	r3, r7
701033ac:	ea43 4301 	orr.w	r3, r3, r1, lsl #16
701033b0:	f8c2 30d0 	str.w	r3, [r2, #208]	@ 0xd0
701033b4:	2308      	movs	r3, #8
701033b6:	f7ff b930 	b.w	7010261a <HAL_RCCEx_PeriphCLKConfig+0x15a>
701033ba:	4ba9      	ldr	r3, [pc, #676]	@ (70103660 <HAL_RCCEx_PeriphCLKConfig+0x11a0>)
701033bc:	4298      	cmp	r0, r3
701033be:	bf02      	ittt	eq
701033c0:	2240      	moveq	r2, #64	@ 0x40
701033c2:	4ba4      	ldreq	r3, [pc, #656]	@ (70103654 <HAL_RCCEx_PeriphCLKConfig+0x1194>)
701033c4:	f8c3 2a48 	streq.w	r2, [r3, #2632]	@ 0xa48
701033c8:	f7ff b929 	b.w	7010261e <HAL_RCCEx_PeriphCLKConfig+0x15e>
701033cc:	4ba5      	ldr	r3, [pc, #660]	@ (70103664 <HAL_RCCEx_PeriphCLKConfig+0x11a4>)
701033ce:	4298      	cmp	r0, r3
701033d0:	d111      	bne.n	701033f6 <HAL_RCCEx_PeriphCLKConfig+0xf36>
701033d2:	4aa0      	ldr	r2, [pc, #640]	@ (70103654 <HAL_RCCEx_PeriphCLKConfig+0x1194>)
701033d4:	6a61      	ldr	r1, [r4, #36]	@ 0x24
701033d6:	f8d2 30d0 	ldr.w	r3, [r2, #208]	@ 0xd0
701033da:	6a27      	ldr	r7, [r4, #32]
701033dc:	f023 5343 	bic.w	r3, r3, #817889280	@ 0x30c00000
701033e0:	f423 137c 	bic.w	r3, r3, #4128768	@ 0x3f0000
701033e4:	3901      	subs	r1, #1
701033e6:	433b      	orrs	r3, r7
701033e8:	ea43 4301 	orr.w	r3, r3, r1, lsl #16
701033ec:	f8c2 30d0 	str.w	r3, [r2, #208]	@ 0xd0
701033f0:	2308      	movs	r3, #8
701033f2:	f7ff b92e 	b.w	70102652 <HAL_RCCEx_PeriphCLKConfig+0x192>
701033f6:	4b9c      	ldr	r3, [pc, #624]	@ (70103668 <HAL_RCCEx_PeriphCLKConfig+0x11a8>)
701033f8:	4298      	cmp	r0, r3
701033fa:	bf02      	ittt	eq
701033fc:	2240      	moveq	r2, #64	@ 0x40
701033fe:	4b95      	ldreq	r3, [pc, #596]	@ (70103654 <HAL_RCCEx_PeriphCLKConfig+0x1194>)
70103400:	f8c3 2a48 	streq.w	r2, [r3, #2632]	@ 0xa48
70103404:	f7ff b927 	b.w	70102656 <HAL_RCCEx_PeriphCLKConfig+0x196>
70103408:	2930      	cmp	r1, #48	@ 0x30
7010340a:	d110      	bne.n	7010342e <HAL_RCCEx_PeriphCLKConfig+0xf6e>
7010340c:	f8d2 30d0 	ldr.w	r3, [r2, #208]	@ 0xd0
70103410:	6a60      	ldr	r0, [r4, #36]	@ 0x24
70103412:	6a27      	ldr	r7, [r4, #32]
70103414:	f023 5343 	bic.w	r3, r3, #817889280	@ 0x30c00000
70103418:	f423 137c 	bic.w	r3, r3, #4128768	@ 0x3f0000
7010341c:	3801      	subs	r0, #1
7010341e:	433b      	orrs	r3, r7
70103420:	ea43 4300 	orr.w	r3, r3, r0, lsl #16
70103424:	f8c2 30d0 	str.w	r3, [r2, #208]	@ 0xd0
70103428:	2308      	movs	r3, #8
7010342a:	f7ff b92d 	b.w	70102688 <HAL_RCCEx_PeriphCLKConfig+0x1c8>
7010342e:	2910      	cmp	r1, #16
70103430:	bf04      	itt	eq
70103432:	2340      	moveq	r3, #64	@ 0x40
70103434:	f8c2 3a48 	streq.w	r3, [r2, #2632]	@ 0xa48
70103438:	f7ff b928 	b.w	7010268c <HAL_RCCEx_PeriphCLKConfig+0x1cc>
7010343c:	4b8b      	ldr	r3, [pc, #556]	@ (7010366c <HAL_RCCEx_PeriphCLKConfig+0x11ac>)
7010343e:	4298      	cmp	r0, r3
70103440:	d111      	bne.n	70103466 <HAL_RCCEx_PeriphCLKConfig+0xfa6>
70103442:	4a84      	ldr	r2, [pc, #528]	@ (70103654 <HAL_RCCEx_PeriphCLKConfig+0x1194>)
70103444:	6ae1      	ldr	r1, [r4, #44]	@ 0x2c
70103446:	f8d2 30d4 	ldr.w	r3, [r2, #212]	@ 0xd4
7010344a:	6aa7      	ldr	r7, [r4, #40]	@ 0x28
7010344c:	f023 5343 	bic.w	r3, r3, #817889280	@ 0x30c00000
70103450:	f423 137c 	bic.w	r3, r3, #4128768	@ 0x3f0000
70103454:	3901      	subs	r1, #1
70103456:	433b      	orrs	r3, r7
70103458:	ea43 4301 	orr.w	r3, r3, r1, lsl #16
7010345c:	f8c2 30d4 	str.w	r3, [r2, #212]	@ 0xd4
70103460:	2310      	movs	r3, #16
70103462:	f7ff b933 	b.w	701026cc <HAL_RCCEx_PeriphCLKConfig+0x20c>
70103466:	4b82      	ldr	r3, [pc, #520]	@ (70103670 <HAL_RCCEx_PeriphCLKConfig+0x11b0>)
70103468:	4298      	cmp	r0, r3
7010346a:	bf02      	ittt	eq
7010346c:	2240      	moveq	r2, #64	@ 0x40
7010346e:	4b79      	ldreq	r3, [pc, #484]	@ (70103654 <HAL_RCCEx_PeriphCLKConfig+0x1194>)
70103470:	f8c3 2a48 	streq.w	r2, [r3, #2632]	@ 0xa48
70103474:	f7ff b92c 	b.w	701026d0 <HAL_RCCEx_PeriphCLKConfig+0x210>
70103478:	4b7e      	ldr	r3, [pc, #504]	@ (70103674 <HAL_RCCEx_PeriphCLKConfig+0x11b4>)
7010347a:	4298      	cmp	r0, r3
7010347c:	d111      	bne.n	701034a2 <HAL_RCCEx_PeriphCLKConfig+0xfe2>
7010347e:	4a75      	ldr	r2, [pc, #468]	@ (70103654 <HAL_RCCEx_PeriphCLKConfig+0x1194>)
70103480:	6ae1      	ldr	r1, [r4, #44]	@ 0x2c
70103482:	f8d2 30d4 	ldr.w	r3, [r2, #212]	@ 0xd4
70103486:	6aa7      	ldr	r7, [r4, #40]	@ 0x28
70103488:	f023 5343 	bic.w	r3, r3, #817889280	@ 0x30c00000
7010348c:	f423 137c 	bic.w	r3, r3, #4128768	@ 0x3f0000
70103490:	3901      	subs	r1, #1
70103492:	433b      	orrs	r3, r7
70103494:	ea43 4301 	orr.w	r3, r3, r1, lsl #16
70103498:	f8c2 30d4 	str.w	r3, [r2, #212]	@ 0xd4
7010349c:	2310      	movs	r3, #16
7010349e:	f7ff b931 	b.w	70102704 <HAL_RCCEx_PeriphCLKConfig+0x244>
701034a2:	4b75      	ldr	r3, [pc, #468]	@ (70103678 <HAL_RCCEx_PeriphCLKConfig+0x11b8>)
701034a4:	4298      	cmp	r0, r3
701034a6:	bf02      	ittt	eq
701034a8:	2240      	moveq	r2, #64	@ 0x40
701034aa:	4b6a      	ldreq	r3, [pc, #424]	@ (70103654 <HAL_RCCEx_PeriphCLKConfig+0x1194>)
701034ac:	f8c3 2a48 	streq.w	r2, [r3, #2632]	@ 0xa48
701034b0:	f7ff b92a 	b.w	70102708 <HAL_RCCEx_PeriphCLKConfig+0x248>
701034b4:	2a30      	cmp	r2, #48	@ 0x30
701034b6:	d110      	bne.n	701034da <HAL_RCCEx_PeriphCLKConfig+0x101a>
701034b8:	f8d1 30e0 	ldr.w	r3, [r1, #224]	@ 0xe0
701034bc:	6c60      	ldr	r0, [r4, #68]	@ 0x44
701034be:	6c27      	ldr	r7, [r4, #64]	@ 0x40
701034c0:	f023 5343 	bic.w	r3, r3, #817889280	@ 0x30c00000
701034c4:	f423 137c 	bic.w	r3, r3, #4128768	@ 0x3f0000
701034c8:	3801      	subs	r0, #1
701034ca:	433b      	orrs	r3, r7
701034cc:	ea43 4300 	orr.w	r3, r3, r0, lsl #16
701034d0:	f8c1 30e0 	str.w	r3, [r1, #224]	@ 0xe0
701034d4:	2380      	movs	r3, #128	@ 0x80
701034d6:	f7ff b930 	b.w	7010273a <HAL_RCCEx_PeriphCLKConfig+0x27a>
701034da:	2a10      	cmp	r2, #16
701034dc:	bf04      	itt	eq
701034de:	2340      	moveq	r3, #64	@ 0x40
701034e0:	f8c1 3a48 	streq.w	r3, [r1, #2632]	@ 0xa48
701034e4:	f7ff b92b 	b.w	7010273e <HAL_RCCEx_PeriphCLKConfig+0x27e>
701034e8:	2903      	cmp	r1, #3
701034ea:	d110      	bne.n	7010350e <HAL_RCCEx_PeriphCLKConfig+0x104e>
701034ec:	f8d2 30e0 	ldr.w	r3, [r2, #224]	@ 0xe0
701034f0:	6c60      	ldr	r0, [r4, #68]	@ 0x44
701034f2:	6c27      	ldr	r7, [r4, #64]	@ 0x40
701034f4:	f023 5343 	bic.w	r3, r3, #817889280	@ 0x30c00000
701034f8:	f423 137c 	bic.w	r3, r3, #4128768	@ 0x3f0000
701034fc:	3801      	subs	r0, #1
701034fe:	433b      	orrs	r3, r7
70103500:	ea43 4300 	orr.w	r3, r3, r0, lsl #16
70103504:	f8c2 30e0 	str.w	r3, [r2, #224]	@ 0xe0
70103508:	2380      	movs	r3, #128	@ 0x80
7010350a:	f7ff b93e 	b.w	7010278a <HAL_RCCEx_PeriphCLKConfig+0x2ca>
7010350e:	2901      	cmp	r1, #1
70103510:	bf04      	itt	eq
70103512:	2340      	moveq	r3, #64	@ 0x40
70103514:	f8c2 3a48 	streq.w	r3, [r2, #2632]	@ 0xa48
70103518:	f7ff b939 	b.w	7010278e <HAL_RCCEx_PeriphCLKConfig+0x2ce>
7010351c:	f5b1 1f80 	cmp.w	r1, #1048576	@ 0x100000
70103520:	bf04      	itt	eq
70103522:	2340      	moveq	r3, #64	@ 0x40
70103524:	f8c2 3a48 	streq.w	r3, [r2, #2632]	@ 0xa48
70103528:	f7ff b96d 	b.w	70102806 <HAL_RCCEx_PeriphCLKConfig+0x346>
7010352c:	f5b1 5f80 	cmp.w	r1, #4096	@ 0x1000
70103530:	bf04      	itt	eq
70103532:	2340      	moveq	r3, #64	@ 0x40
70103534:	f8c2 3a48 	streq.w	r3, [r2, #2632]	@ 0xa48
70103538:	f7ff b988 	b.w	7010284c <HAL_RCCEx_PeriphCLKConfig+0x38c>
7010353c:	2901      	cmp	r1, #1
7010353e:	bf04      	itt	eq
70103540:	2340      	moveq	r3, #64	@ 0x40
70103542:	f8c2 3a48 	streq.w	r3, [r2, #2632]	@ 0xa48
70103546:	f7ff b9d5 	b.w	701028f4 <HAL_RCCEx_PeriphCLKConfig+0x434>
7010354a:	2901      	cmp	r1, #1
7010354c:	bf04      	itt	eq
7010354e:	2340      	moveq	r3, #64	@ 0x40
70103550:	f8c2 3a48 	streq.w	r3, [r2, #2632]	@ 0xa48
70103554:	f7ff b9f7 	b.w	70102946 <HAL_RCCEx_PeriphCLKConfig+0x486>
70103558:	4b48      	ldr	r3, [pc, #288]	@ (7010367c <HAL_RCCEx_PeriphCLKConfig+0x11bc>)
7010355a:	4298      	cmp	r0, r3
7010355c:	d112      	bne.n	70103584 <HAL_RCCEx_PeriphCLKConfig+0x10c4>
7010355e:	4a3d      	ldr	r2, [pc, #244]	@ (70103654 <HAL_RCCEx_PeriphCLKConfig+0x1194>)
70103560:	6fe1      	ldr	r1, [r4, #124]	@ 0x7c
70103562:	f8d2 30fc 	ldr.w	r3, [r2, #252]	@ 0xfc
70103566:	6fa7      	ldr	r7, [r4, #120]	@ 0x78
70103568:	f023 5343 	bic.w	r3, r3, #817889280	@ 0x30c00000
7010356c:	f423 137c 	bic.w	r3, r3, #4128768	@ 0x3f0000
70103570:	3901      	subs	r1, #1
70103572:	433b      	orrs	r3, r7
70103574:	ea43 4301 	orr.w	r3, r3, r1, lsl #16
70103578:	f8c2 30fc 	str.w	r3, [r2, #252]	@ 0xfc
7010357c:	f44f 4380 	mov.w	r3, #16384	@ 0x4000
70103580:	f7ff ba02 	b.w	70102988 <HAL_RCCEx_PeriphCLKConfig+0x4c8>
70103584:	4b3e      	ldr	r3, [pc, #248]	@ (70103680 <HAL_RCCEx_PeriphCLKConfig+0x11c0>)
70103586:	4298      	cmp	r0, r3
70103588:	bf02      	ittt	eq
7010358a:	2240      	moveq	r2, #64	@ 0x40
7010358c:	4b31      	ldreq	r3, [pc, #196]	@ (70103654 <HAL_RCCEx_PeriphCLKConfig+0x1194>)
7010358e:	f8c3 2a48 	streq.w	r2, [r3, #2632]	@ 0xa48
70103592:	f7ff b9fb 	b.w	7010298c <HAL_RCCEx_PeriphCLKConfig+0x4cc>
70103596:	4b3b      	ldr	r3, [pc, #236]	@ (70103684 <HAL_RCCEx_PeriphCLKConfig+0x11c4>)
70103598:	4298      	cmp	r0, r3
7010359a:	d112      	bne.n	701035c2 <HAL_RCCEx_PeriphCLKConfig+0x1102>
7010359c:	4a2d      	ldr	r2, [pc, #180]	@ (70103654 <HAL_RCCEx_PeriphCLKConfig+0x1194>)
7010359e:	6fe1      	ldr	r1, [r4, #124]	@ 0x7c
701035a0:	f8d2 30fc 	ldr.w	r3, [r2, #252]	@ 0xfc
701035a4:	6fa7      	ldr	r7, [r4, #120]	@ 0x78
701035a6:	f023 5343 	bic.w	r3, r3, #817889280	@ 0x30c00000
701035aa:	f423 137c 	bic.w	r3, r3, #4128768	@ 0x3f0000
701035ae:	3901      	subs	r1, #1
701035b0:	433b      	orrs	r3, r7
701035b2:	ea43 4301 	orr.w	r3, r3, r1, lsl #16
701035b6:	f8c2 30fc 	str.w	r3, [r2, #252]	@ 0xfc
701035ba:	f44f 4380 	mov.w	r3, #16384	@ 0x4000
701035be:	f7ff ba00 	b.w	701029c2 <HAL_RCCEx_PeriphCLKConfig+0x502>
701035c2:	4b31      	ldr	r3, [pc, #196]	@ (70103688 <HAL_RCCEx_PeriphCLKConfig+0x11c8>)
701035c4:	4298      	cmp	r0, r3
701035c6:	bf02      	ittt	eq
701035c8:	2240      	moveq	r2, #64	@ 0x40
701035ca:	4b22      	ldreq	r3, [pc, #136]	@ (70103654 <HAL_RCCEx_PeriphCLKConfig+0x1194>)
701035cc:	f8c3 2a48 	streq.w	r2, [r3, #2632]	@ 0xa48
701035d0:	f7ff b9f9 	b.w	701029c6 <HAL_RCCEx_PeriphCLKConfig+0x506>
701035d4:	4b2d      	ldr	r3, [pc, #180]	@ (7010368c <HAL_RCCEx_PeriphCLKConfig+0x11cc>)
701035d6:	4298      	cmp	r0, r3
701035d8:	d112      	bne.n	70103600 <HAL_RCCEx_PeriphCLKConfig+0x1140>
701035da:	4a1e      	ldr	r2, [pc, #120]	@ (70103654 <HAL_RCCEx_PeriphCLKConfig+0x1194>)
701035dc:	6fe1      	ldr	r1, [r4, #124]	@ 0x7c
701035de:	f8d2 30fc 	ldr.w	r3, [r2, #252]	@ 0xfc
701035e2:	6fa7      	ldr	r7, [r4, #120]	@ 0x78
701035e4:	f023 5343 	bic.w	r3, r3, #817889280	@ 0x30c00000
701035e8:	f423 137c 	bic.w	r3, r3, #4128768	@ 0x3f0000
701035ec:	3901      	subs	r1, #1
701035ee:	433b      	orrs	r3, r7
701035f0:	ea43 4301 	orr.w	r3, r3, r1, lsl #16
701035f4:	f8c2 30fc 	str.w	r3, [r2, #252]	@ 0xfc
701035f8:	f44f 4380 	mov.w	r3, #16384	@ 0x4000
701035fc:	f7ff b9fe 	b.w	701029fc <HAL_RCCEx_PeriphCLKConfig+0x53c>
70103600:	4b23      	ldr	r3, [pc, #140]	@ (70103690 <HAL_RCCEx_PeriphCLKConfig+0x11d0>)
70103602:	4298      	cmp	r0, r3
70103604:	bf02      	ittt	eq
70103606:	2240      	moveq	r2, #64	@ 0x40
70103608:	4b12      	ldreq	r3, [pc, #72]	@ (70103654 <HAL_RCCEx_PeriphCLKConfig+0x1194>)
7010360a:	f8c3 2a48 	streq.w	r2, [r3, #2632]	@ 0xa48
7010360e:	f7ff b9f7 	b.w	70102a00 <HAL_RCCEx_PeriphCLKConfig+0x540>
70103612:	4b20      	ldr	r3, [pc, #128]	@ (70103694 <HAL_RCCEx_PeriphCLKConfig+0x11d4>)
70103614:	4298      	cmp	r0, r3
70103616:	d112      	bne.n	7010363e <HAL_RCCEx_PeriphCLKConfig+0x117e>
70103618:	4a0e      	ldr	r2, [pc, #56]	@ (70103654 <HAL_RCCEx_PeriphCLKConfig+0x1194>)
7010361a:	6fe1      	ldr	r1, [r4, #124]	@ 0x7c
7010361c:	f8d2 30fc 	ldr.w	r3, [r2, #252]	@ 0xfc
70103620:	6fa7      	ldr	r7, [r4, #120]	@ 0x78
70103622:	f023 5343 	bic.w	r3, r3, #817889280	@ 0x30c00000
70103626:	f423 137c 	bic.w	r3, r3, #4128768	@ 0x3f0000
7010362a:	3901      	subs	r1, #1
7010362c:	433b      	orrs	r3, r7
7010362e:	ea43 4301 	orr.w	r3, r3, r1, lsl #16
70103632:	f8c2 30fc 	str.w	r3, [r2, #252]	@ 0xfc
70103636:	f44f 4380 	mov.w	r3, #16384	@ 0x4000
7010363a:	f7ff b9fc 	b.w	70102a36 <HAL_RCCEx_PeriphCLKConfig+0x576>
7010363e:	4b16      	ldr	r3, [pc, #88]	@ (70103698 <HAL_RCCEx_PeriphCLKConfig+0x11d8>)
70103640:	4298      	cmp	r0, r3
70103642:	bf02      	ittt	eq
70103644:	2240      	moveq	r2, #64	@ 0x40
70103646:	4b03      	ldreq	r3, [pc, #12]	@ (70103654 <HAL_RCCEx_PeriphCLKConfig+0x1194>)
70103648:	f8c3 2a48 	streq.w	r2, [r3, #2632]	@ 0xa48
7010364c:	f7ff b9f5 	b.w	70102a3a <HAL_RCCEx_PeriphCLKConfig+0x57a>
70103650:	03030014 	.word	0x03030014
70103654:	56028000 	.word	0x56028000
70103658:	03010014 	.word	0x03010014
7010365c:	03030414 	.word	0x03030414
70103660:	03010414 	.word	0x03010414
70103664:	03030814 	.word	0x03030814
70103668:	03010814 	.word	0x03010814
7010366c:	0303001c 	.word	0x0303001c
70103670:	0301001c 	.word	0x0301001c
70103674:	0303041c 	.word	0x0303041c
70103678:	0301041c 	.word	0x0301041c
7010367c:	0703000c 	.word	0x0703000c
70103680:	0701000c 	.word	0x0701000c
70103684:	0703040c 	.word	0x0703040c
70103688:	0701040c 	.word	0x0701040c
7010368c:	0703080c 	.word	0x0703080c
70103690:	0701080c 	.word	0x0701080c
70103694:	07030c0c 	.word	0x07030c0c
70103698:	07010c0c 	.word	0x07010c0c
7010369c:	4bb2      	ldr	r3, [pc, #712]	@ (70103968 <HAL_RCCEx_PeriphCLKConfig+0x14a8>)
7010369e:	4298      	cmp	r0, r3
701036a0:	d112      	bne.n	701036c8 <HAL_RCCEx_PeriphCLKConfig+0x1208>
701036a2:	4ab2      	ldr	r2, [pc, #712]	@ (7010396c <HAL_RCCEx_PeriphCLKConfig+0x14ac>)
701036a4:	6fe1      	ldr	r1, [r4, #124]	@ 0x7c
701036a6:	f8d2 30fc 	ldr.w	r3, [r2, #252]	@ 0xfc
701036aa:	6fa7      	ldr	r7, [r4, #120]	@ 0x78
701036ac:	f023 5343 	bic.w	r3, r3, #817889280	@ 0x30c00000
701036b0:	f423 137c 	bic.w	r3, r3, #4128768	@ 0x3f0000
701036b4:	3901      	subs	r1, #1
701036b6:	433b      	orrs	r3, r7
701036b8:	ea43 4301 	orr.w	r3, r3, r1, lsl #16
701036bc:	f8c2 30fc 	str.w	r3, [r2, #252]	@ 0xfc
701036c0:	f44f 4380 	mov.w	r3, #16384	@ 0x4000
701036c4:	f7ff b9d4 	b.w	70102a70 <HAL_RCCEx_PeriphCLKConfig+0x5b0>
701036c8:	4ba9      	ldr	r3, [pc, #676]	@ (70103970 <HAL_RCCEx_PeriphCLKConfig+0x14b0>)
701036ca:	4298      	cmp	r0, r3
701036cc:	bf02      	ittt	eq
701036ce:	2240      	moveq	r2, #64	@ 0x40
701036d0:	4ba6      	ldreq	r3, [pc, #664]	@ (7010396c <HAL_RCCEx_PeriphCLKConfig+0x14ac>)
701036d2:	f8c3 2a48 	streq.w	r2, [r3, #2632]	@ 0xa48
701036d6:	f7ff b9cd 	b.w	70102a74 <HAL_RCCEx_PeriphCLKConfig+0x5b4>
701036da:	4ba6      	ldr	r3, [pc, #664]	@ (70103974 <HAL_RCCEx_PeriphCLKConfig+0x14b4>)
701036dc:	4298      	cmp	r0, r3
701036de:	d112      	bne.n	70103706 <HAL_RCCEx_PeriphCLKConfig+0x1246>
701036e0:	4aa2      	ldr	r2, [pc, #648]	@ (7010396c <HAL_RCCEx_PeriphCLKConfig+0x14ac>)
701036e2:	6fe1      	ldr	r1, [r4, #124]	@ 0x7c
701036e4:	f8d2 30fc 	ldr.w	r3, [r2, #252]	@ 0xfc
701036e8:	6fa7      	ldr	r7, [r4, #120]	@ 0x78
701036ea:	f023 5343 	bic.w	r3, r3, #817889280	@ 0x30c00000
701036ee:	f423 137c 	bic.w	r3, r3, #4128768	@ 0x3f0000
701036f2:	3901      	subs	r1, #1
701036f4:	433b      	orrs	r3, r7
701036f6:	ea43 4301 	orr.w	r3, r3, r1, lsl #16
701036fa:	f8c2 30fc 	str.w	r3, [r2, #252]	@ 0xfc
701036fe:	f44f 4380 	mov.w	r3, #16384	@ 0x4000
70103702:	f7ff b9d2 	b.w	70102aaa <HAL_RCCEx_PeriphCLKConfig+0x5ea>
70103706:	4b9c      	ldr	r3, [pc, #624]	@ (70103978 <HAL_RCCEx_PeriphCLKConfig+0x14b8>)
70103708:	4298      	cmp	r0, r3
7010370a:	bf02      	ittt	eq
7010370c:	2240      	moveq	r2, #64	@ 0x40
7010370e:	4b97      	ldreq	r3, [pc, #604]	@ (7010396c <HAL_RCCEx_PeriphCLKConfig+0x14ac>)
70103710:	f8c3 2a48 	streq.w	r2, [r3, #2632]	@ 0xa48
70103714:	f7ff b9cb 	b.w	70102aae <HAL_RCCEx_PeriphCLKConfig+0x5ee>
70103718:	4b98      	ldr	r3, [pc, #608]	@ (7010397c <HAL_RCCEx_PeriphCLKConfig+0x14bc>)
7010371a:	4298      	cmp	r0, r3
7010371c:	bf02      	ittt	eq
7010371e:	2240      	moveq	r2, #64	@ 0x40
70103720:	4b92      	ldreq	r3, [pc, #584]	@ (7010396c <HAL_RCCEx_PeriphCLKConfig+0x14ac>)
70103722:	f8c3 2a48 	streq.w	r2, [r3, #2632]	@ 0xa48
70103726:	f7ff b9df 	b.w	70102ae8 <HAL_RCCEx_PeriphCLKConfig+0x628>
7010372a:	4b95      	ldr	r3, [pc, #596]	@ (70103980 <HAL_RCCEx_PeriphCLKConfig+0x14c0>)
7010372c:	4298      	cmp	r0, r3
7010372e:	bf02      	ittt	eq
70103730:	2240      	moveq	r2, #64	@ 0x40
70103732:	4b8e      	ldreq	r3, [pc, #568]	@ (7010396c <HAL_RCCEx_PeriphCLKConfig+0x14ac>)
70103734:	f8c3 2a48 	streq.w	r2, [r3, #2632]	@ 0xa48
70103738:	f7ff b9f3 	b.w	70102b22 <HAL_RCCEx_PeriphCLKConfig+0x662>
7010373c:	4b91      	ldr	r3, [pc, #580]	@ (70103984 <HAL_RCCEx_PeriphCLKConfig+0x14c4>)
7010373e:	4298      	cmp	r0, r3
70103740:	bf02      	ittt	eq
70103742:	2240      	moveq	r2, #64	@ 0x40
70103744:	4b89      	ldreq	r3, [pc, #548]	@ (7010396c <HAL_RCCEx_PeriphCLKConfig+0x14ac>)
70103746:	f8c3 2a48 	streq.w	r2, [r3, #2632]	@ 0xa48
7010374a:	f7ff ba07 	b.w	70102b5c <HAL_RCCEx_PeriphCLKConfig+0x69c>
7010374e:	4b8e      	ldr	r3, [pc, #568]	@ (70103988 <HAL_RCCEx_PeriphCLKConfig+0x14c8>)
70103750:	4298      	cmp	r0, r3
70103752:	bf02      	ittt	eq
70103754:	2240      	moveq	r2, #64	@ 0x40
70103756:	4b85      	ldreq	r3, [pc, #532]	@ (7010396c <HAL_RCCEx_PeriphCLKConfig+0x14ac>)
70103758:	f8c3 2a48 	streq.w	r2, [r3, #2632]	@ 0xa48
7010375c:	f7ff ba1b 	b.w	70102b96 <HAL_RCCEx_PeriphCLKConfig+0x6d6>
70103760:	4b8a      	ldr	r3, [pc, #552]	@ (7010398c <HAL_RCCEx_PeriphCLKConfig+0x14cc>)
70103762:	4298      	cmp	r0, r3
70103764:	bf02      	ittt	eq
70103766:	2240      	moveq	r2, #64	@ 0x40
70103768:	4b80      	ldreq	r3, [pc, #512]	@ (7010396c <HAL_RCCEx_PeriphCLKConfig+0x14ac>)
7010376a:	f8c3 2a48 	streq.w	r2, [r3, #2632]	@ 0xa48
7010376e:	f7ff ba2f 	b.w	70102bd0 <HAL_RCCEx_PeriphCLKConfig+0x710>
70103772:	f5b1 7f40 	cmp.w	r1, #768	@ 0x300
70103776:	d111      	bne.n	7010379c <HAL_RCCEx_PeriphCLKConfig+0x12dc>
70103778:	f8d2 30f8 	ldr.w	r3, [r2, #248]	@ 0xf8
7010377c:	6f60      	ldr	r0, [r4, #116]	@ 0x74
7010377e:	6f27      	ldr	r7, [r4, #112]	@ 0x70
70103780:	f023 5343 	bic.w	r3, r3, #817889280	@ 0x30c00000
70103784:	f423 137c 	bic.w	r3, r3, #4128768	@ 0x3f0000
70103788:	3801      	subs	r0, #1
7010378a:	433b      	orrs	r3, r7
7010378c:	ea43 4300 	orr.w	r3, r3, r0, lsl #16
70103790:	f8c2 30f8 	str.w	r3, [r2, #248]	@ 0xf8
70103794:	f44f 5300 	mov.w	r3, #8192	@ 0x2000
70103798:	f7ff ba35 	b.w	70102c06 <HAL_RCCEx_PeriphCLKConfig+0x746>
7010379c:	f5b1 7f80 	cmp.w	r1, #256	@ 0x100
701037a0:	bf04      	itt	eq
701037a2:	2340      	moveq	r3, #64	@ 0x40
701037a4:	f8c2 3a48 	streq.w	r3, [r2, #2632]	@ 0xa48
701037a8:	f7ff ba2f 	b.w	70102c0a <HAL_RCCEx_PeriphCLKConfig+0x74a>
701037ac:	f1b1 7f80 	cmp.w	r1, #16777216	@ 0x1000000
701037b0:	bf04      	itt	eq
701037b2:	2340      	moveq	r3, #64	@ 0x40
701037b4:	f8c2 3a48 	streq.w	r3, [r2, #2632]	@ 0xa48
701037b8:	f7ff ba65 	b.w	70102c86 <HAL_RCCEx_PeriphCLKConfig+0x7c6>
701037bc:	f5b1 3f40 	cmp.w	r1, #196608	@ 0x30000
701037c0:	d110      	bne.n	701037e4 <HAL_RCCEx_PeriphCLKConfig+0x1324>
701037c2:	f8d2 30e0 	ldr.w	r3, [r2, #224]	@ 0xe0
701037c6:	6c60      	ldr	r0, [r4, #68]	@ 0x44
701037c8:	6c27      	ldr	r7, [r4, #64]	@ 0x40
701037ca:	f023 5343 	bic.w	r3, r3, #817889280	@ 0x30c00000
701037ce:	f423 137c 	bic.w	r3, r3, #4128768	@ 0x3f0000
701037d2:	3801      	subs	r0, #1
701037d4:	433b      	orrs	r3, r7
701037d6:	ea43 4300 	orr.w	r3, r3, r0, lsl #16
701037da:	f8c2 30e0 	str.w	r3, [r2, #224]	@ 0xe0
701037de:	2380      	movs	r3, #128	@ 0x80
701037e0:	f7ff ba71 	b.w	70102cc6 <HAL_RCCEx_PeriphCLKConfig+0x806>
701037e4:	f5b1 3f80 	cmp.w	r1, #65536	@ 0x10000
701037e8:	bf04      	itt	eq
701037ea:	2340      	moveq	r3, #64	@ 0x40
701037ec:	f8c2 3a48 	streq.w	r3, [r2, #2632]	@ 0xa48
701037f0:	f7ff ba6b 	b.w	70102cca <HAL_RCCEx_PeriphCLKConfig+0x80a>
701037f4:	2910      	cmp	r1, #16
701037f6:	bf04      	itt	eq
701037f8:	2340      	moveq	r3, #64	@ 0x40
701037fa:	f8c2 3a48 	streq.w	r3, [r2, #2632]	@ 0xa48
701037fe:	f7ff ba88 	b.w	70102d12 <HAL_RCCEx_PeriphCLKConfig+0x852>
70103802:	4b63      	ldr	r3, [pc, #396]	@ (70103990 <HAL_RCCEx_PeriphCLKConfig+0x14d0>)
70103804:	4298      	cmp	r0, r3
70103806:	d111      	bne.n	7010382c <HAL_RCCEx_PeriphCLKConfig+0x136c>
70103808:	4a58      	ldr	r2, [pc, #352]	@ (7010396c <HAL_RCCEx_PeriphCLKConfig+0x14ac>)
7010380a:	6c61      	ldr	r1, [r4, #68]	@ 0x44
7010380c:	f8d2 30e0 	ldr.w	r3, [r2, #224]	@ 0xe0
70103810:	6c27      	ldr	r7, [r4, #64]	@ 0x40
70103812:	f023 5343 	bic.w	r3, r3, #817889280	@ 0x30c00000
70103816:	f423 137c 	bic.w	r3, r3, #4128768	@ 0x3f0000
7010381a:	3901      	subs	r1, #1
7010381c:	433b      	orrs	r3, r7
7010381e:	ea43 4301 	orr.w	r3, r3, r1, lsl #16
70103822:	f8c2 30e0 	str.w	r3, [r2, #224]	@ 0xe0
70103826:	2380      	movs	r3, #128	@ 0x80
70103828:	f7ff ba93 	b.w	70102d52 <HAL_RCCEx_PeriphCLKConfig+0x892>
7010382c:	4b59      	ldr	r3, [pc, #356]	@ (70103994 <HAL_RCCEx_PeriphCLKConfig+0x14d4>)
7010382e:	4298      	cmp	r0, r3
70103830:	bf02      	ittt	eq
70103832:	2240      	moveq	r2, #64	@ 0x40
70103834:	4b4d      	ldreq	r3, [pc, #308]	@ (7010396c <HAL_RCCEx_PeriphCLKConfig+0x14ac>)
70103836:	f8c3 2a48 	streq.w	r2, [r3, #2632]	@ 0xa48
7010383a:	f7ff ba8c 	b.w	70102d56 <HAL_RCCEx_PeriphCLKConfig+0x896>
7010383e:	4b56      	ldr	r3, [pc, #344]	@ (70103998 <HAL_RCCEx_PeriphCLKConfig+0x14d8>)
70103840:	4298      	cmp	r0, r3
70103842:	d111      	bne.n	70103868 <HAL_RCCEx_PeriphCLKConfig+0x13a8>
70103844:	4a49      	ldr	r2, [pc, #292]	@ (7010396c <HAL_RCCEx_PeriphCLKConfig+0x14ac>)
70103846:	6c61      	ldr	r1, [r4, #68]	@ 0x44
70103848:	f8d2 30e0 	ldr.w	r3, [r2, #224]	@ 0xe0
7010384c:	6c25      	ldr	r5, [r4, #64]	@ 0x40
7010384e:	f023 5343 	bic.w	r3, r3, #817889280	@ 0x30c00000
70103852:	f423 137c 	bic.w	r3, r3, #4128768	@ 0x3f0000
70103856:	3901      	subs	r1, #1
70103858:	432b      	orrs	r3, r5
7010385a:	ea43 4301 	orr.w	r3, r3, r1, lsl #16
7010385e:	f8c2 30e0 	str.w	r3, [r2, #224]	@ 0xe0
70103862:	2380      	movs	r3, #128	@ 0x80
70103864:	f7ff ba91 	b.w	70102d8a <HAL_RCCEx_PeriphCLKConfig+0x8ca>
70103868:	4b4c      	ldr	r3, [pc, #304]	@ (7010399c <HAL_RCCEx_PeriphCLKConfig+0x14dc>)
7010386a:	4298      	cmp	r0, r3
7010386c:	bf02      	ittt	eq
7010386e:	2240      	moveq	r2, #64	@ 0x40
70103870:	4b3e      	ldreq	r3, [pc, #248]	@ (7010396c <HAL_RCCEx_PeriphCLKConfig+0x14ac>)
70103872:	f8c3 2a48 	streq.w	r2, [r3, #2632]	@ 0xa48
70103876:	f7ff ba8a 	b.w	70102d8e <HAL_RCCEx_PeriphCLKConfig+0x8ce>
7010387a:	2903      	cmp	r1, #3
7010387c:	d110      	bne.n	701038a0 <HAL_RCCEx_PeriphCLKConfig+0x13e0>
7010387e:	f8d2 30e0 	ldr.w	r3, [r2, #224]	@ 0xe0
70103882:	6c60      	ldr	r0, [r4, #68]	@ 0x44
70103884:	6c25      	ldr	r5, [r4, #64]	@ 0x40
70103886:	f023 5343 	bic.w	r3, r3, #817889280	@ 0x30c00000
7010388a:	f423 137c 	bic.w	r3, r3, #4128768	@ 0x3f0000
7010388e:	3801      	subs	r0, #1
70103890:	432b      	orrs	r3, r5
70103892:	ea43 4300 	orr.w	r3, r3, r0, lsl #16
70103896:	f8c2 30e0 	str.w	r3, [r2, #224]	@ 0xe0
7010389a:	2380      	movs	r3, #128	@ 0x80
7010389c:	f7ff ba90 	b.w	70102dc0 <HAL_RCCEx_PeriphCLKConfig+0x900>
701038a0:	2901      	cmp	r1, #1
701038a2:	bf04      	itt	eq
701038a4:	2340      	moveq	r3, #64	@ 0x40
701038a6:	f8c2 3a48 	streq.w	r3, [r2, #2632]	@ 0xa48
701038aa:	f7ff ba8b 	b.w	70102dc4 <HAL_RCCEx_PeriphCLKConfig+0x904>
701038ae:	4b3c      	ldr	r3, [pc, #240]	@ (701039a0 <HAL_RCCEx_PeriphCLKConfig+0x14e0>)
701038b0:	4298      	cmp	r0, r3
701038b2:	d112      	bne.n	701038da <HAL_RCCEx_PeriphCLKConfig+0x141a>
701038b4:	4a2d      	ldr	r2, [pc, #180]	@ (7010396c <HAL_RCCEx_PeriphCLKConfig+0x14ac>)
701038b6:	6ce1      	ldr	r1, [r4, #76]	@ 0x4c
701038b8:	f8d2 30e4 	ldr.w	r3, [r2, #228]	@ 0xe4
701038bc:	6ca5      	ldr	r5, [r4, #72]	@ 0x48
701038be:	f023 5343 	bic.w	r3, r3, #817889280	@ 0x30c00000
701038c2:	f423 137c 	bic.w	r3, r3, #4128768	@ 0x3f0000
701038c6:	3901      	subs	r1, #1
701038c8:	432b      	orrs	r3, r5
701038ca:	ea43 4301 	orr.w	r3, r3, r1, lsl #16
701038ce:	f8c2 30e4 	str.w	r3, [r2, #228]	@ 0xe4
701038d2:	f44f 7380 	mov.w	r3, #256	@ 0x100
701038d6:	f7ff ba95 	b.w	70102e04 <HAL_RCCEx_PeriphCLKConfig+0x944>
701038da:	4b32      	ldr	r3, [pc, #200]	@ (701039a4 <HAL_RCCEx_PeriphCLKConfig+0x14e4>)
701038dc:	4298      	cmp	r0, r3
701038de:	bf02      	ittt	eq
701038e0:	2240      	moveq	r2, #64	@ 0x40
701038e2:	4b22      	ldreq	r3, [pc, #136]	@ (7010396c <HAL_RCCEx_PeriphCLKConfig+0x14ac>)
701038e4:	f8c3 2a48 	streq.w	r2, [r3, #2632]	@ 0xa48
701038e8:	f7ff ba8e 	b.w	70102e08 <HAL_RCCEx_PeriphCLKConfig+0x948>
701038ec:	4b2e      	ldr	r3, [pc, #184]	@ (701039a8 <HAL_RCCEx_PeriphCLKConfig+0x14e8>)
701038ee:	4298      	cmp	r0, r3
701038f0:	d112      	bne.n	70103918 <HAL_RCCEx_PeriphCLKConfig+0x1458>
701038f2:	4a1e      	ldr	r2, [pc, #120]	@ (7010396c <HAL_RCCEx_PeriphCLKConfig+0x14ac>)
701038f4:	6ce1      	ldr	r1, [r4, #76]	@ 0x4c
701038f6:	f8d2 30e4 	ldr.w	r3, [r2, #228]	@ 0xe4
701038fa:	6ca5      	ldr	r5, [r4, #72]	@ 0x48
701038fc:	f023 5343 	bic.w	r3, r3, #817889280	@ 0x30c00000
70103900:	f423 137c 	bic.w	r3, r3, #4128768	@ 0x3f0000
70103904:	3901      	subs	r1, #1
70103906:	432b      	orrs	r3, r5
70103908:	ea43 4301 	orr.w	r3, r3, r1, lsl #16
7010390c:	f8c2 30e4 	str.w	r3, [r2, #228]	@ 0xe4
70103910:	f44f 7380 	mov.w	r3, #256	@ 0x100
70103914:	f7ff ba92 	b.w	70102e3c <HAL_RCCEx_PeriphCLKConfig+0x97c>
70103918:	4b24      	ldr	r3, [pc, #144]	@ (701039ac <HAL_RCCEx_PeriphCLKConfig+0x14ec>)
7010391a:	4298      	cmp	r0, r3
7010391c:	bf02      	ittt	eq
7010391e:	2240      	moveq	r2, #64	@ 0x40
70103920:	4b12      	ldreq	r3, [pc, #72]	@ (7010396c <HAL_RCCEx_PeriphCLKConfig+0x14ac>)
70103922:	f8c3 2a48 	streq.w	r2, [r3, #2632]	@ 0xa48
70103926:	f7ff ba8b 	b.w	70102e40 <HAL_RCCEx_PeriphCLKConfig+0x980>
7010392a:	4b21      	ldr	r3, [pc, #132]	@ (701039b0 <HAL_RCCEx_PeriphCLKConfig+0x14f0>)
7010392c:	4298      	cmp	r0, r3
7010392e:	d112      	bne.n	70103956 <HAL_RCCEx_PeriphCLKConfig+0x1496>
70103930:	4a0e      	ldr	r2, [pc, #56]	@ (7010396c <HAL_RCCEx_PeriphCLKConfig+0x14ac>)
70103932:	6ce1      	ldr	r1, [r4, #76]	@ 0x4c
70103934:	f8d2 30e4 	ldr.w	r3, [r2, #228]	@ 0xe4
70103938:	6ca5      	ldr	r5, [r4, #72]	@ 0x48
7010393a:	f023 5343 	bic.w	r3, r3, #817889280	@ 0x30c00000
7010393e:	f423 137c 	bic.w	r3, r3, #4128768	@ 0x3f0000
70103942:	3901      	subs	r1, #1
70103944:	432b      	orrs	r3, r5
70103946:	ea43 4301 	orr.w	r3, r3, r1, lsl #16
7010394a:	f8c2 30e4 	str.w	r3, [r2, #228]	@ 0xe4
7010394e:	f44f 7380 	mov.w	r3, #256	@ 0x100
70103952:	f7ff ba8f 	b.w	70102e74 <HAL_RCCEx_PeriphCLKConfig+0x9b4>
70103956:	4b17      	ldr	r3, [pc, #92]	@ (701039b4 <HAL_RCCEx_PeriphCLKConfig+0x14f4>)
70103958:	4298      	cmp	r0, r3
7010395a:	bf02      	ittt	eq
7010395c:	2240      	moveq	r2, #64	@ 0x40
7010395e:	4b03      	ldreq	r3, [pc, #12]	@ (7010396c <HAL_RCCEx_PeriphCLKConfig+0x14ac>)
70103960:	f8c3 2a48 	streq.w	r2, [r3, #2632]	@ 0xa48
70103964:	f7ff ba88 	b.w	70102e78 <HAL_RCCEx_PeriphCLKConfig+0x9b8>
70103968:	0703100c 	.word	0x0703100c
7010396c:	56028000 	.word	0x56028000
70103970:	0701100c 	.word	0x0701100c
70103974:	0703140c 	.word	0x0703140c
70103978:	0701140c 	.word	0x0701140c
7010397c:	0701082c 	.word	0x0701082c
70103980:	07010c2c 	.word	0x07010c2c
70103984:	0701102c 	.word	0x0701102c
70103988:	0701142c 	.word	0x0701142c
7010398c:	0701182c 	.word	0x0701182c
70103990:	07031418 	.word	0x07031418
70103994:	07011418 	.word	0x07011418
70103998:	07031818 	.word	0x07031818
7010399c:	07011818 	.word	0x07011818
701039a0:	07030420 	.word	0x07030420
701039a4:	07010420 	.word	0x07010420
701039a8:	07030820 	.word	0x07030820
701039ac:	07010820 	.word	0x07010820
701039b0:	07030c20 	.word	0x07030c20
701039b4:	07010c20 	.word	0x07010c20
701039b8:	4bb9      	ldr	r3, [pc, #740]	@ (70103ca0 <HAL_RCCEx_PeriphCLKConfig+0x17e0>)
701039ba:	4298      	cmp	r0, r3
701039bc:	d112      	bne.n	701039e4 <HAL_RCCEx_PeriphCLKConfig+0x1524>
701039be:	4ab9      	ldr	r2, [pc, #740]	@ (70103ca4 <HAL_RCCEx_PeriphCLKConfig+0x17e4>)
701039c0:	6f61      	ldr	r1, [r4, #116]	@ 0x74
701039c2:	f8d2 30f8 	ldr.w	r3, [r2, #248]	@ 0xf8
701039c6:	6f25      	ldr	r5, [r4, #112]	@ 0x70
701039c8:	f023 5343 	bic.w	r3, r3, #817889280	@ 0x30c00000
701039cc:	f423 137c 	bic.w	r3, r3, #4128768	@ 0x3f0000
701039d0:	3901      	subs	r1, #1
701039d2:	432b      	orrs	r3, r5
701039d4:	ea43 4301 	orr.w	r3, r3, r1, lsl #16
701039d8:	f8c2 30f8 	str.w	r3, [r2, #248]	@ 0xf8
701039dc:	f44f 5300 	mov.w	r3, #8192	@ 0x2000
701039e0:	f7ff ba65 	b.w	70102eae <HAL_RCCEx_PeriphCLKConfig+0x9ee>
701039e4:	4bb0      	ldr	r3, [pc, #704]	@ (70103ca8 <HAL_RCCEx_PeriphCLKConfig+0x17e8>)
701039e6:	4298      	cmp	r0, r3
701039e8:	bf02      	ittt	eq
701039ea:	2240      	moveq	r2, #64	@ 0x40
701039ec:	4bad      	ldreq	r3, [pc, #692]	@ (70103ca4 <HAL_RCCEx_PeriphCLKConfig+0x17e4>)
701039ee:	f8c3 2a48 	streq.w	r2, [r3, #2632]	@ 0xa48
701039f2:	f7ff ba5e 	b.w	70102eb2 <HAL_RCCEx_PeriphCLKConfig+0x9f2>
701039f6:	4bad      	ldr	r3, [pc, #692]	@ (70103cac <HAL_RCCEx_PeriphCLKConfig+0x17ec>)
701039f8:	4298      	cmp	r0, r3
701039fa:	d112      	bne.n	70103a22 <HAL_RCCEx_PeriphCLKConfig+0x1562>
701039fc:	4aa9      	ldr	r2, [pc, #676]	@ (70103ca4 <HAL_RCCEx_PeriphCLKConfig+0x17e4>)
701039fe:	6f61      	ldr	r1, [r4, #116]	@ 0x74
70103a00:	f8d2 30f8 	ldr.w	r3, [r2, #248]	@ 0xf8
70103a04:	6f25      	ldr	r5, [r4, #112]	@ 0x70
70103a06:	f023 5343 	bic.w	r3, r3, #817889280	@ 0x30c00000
70103a0a:	f423 137c 	bic.w	r3, r3, #4128768	@ 0x3f0000
70103a0e:	3901      	subs	r1, #1
70103a10:	432b      	orrs	r3, r5
70103a12:	ea43 4301 	orr.w	r3, r3, r1, lsl #16
70103a16:	f8c2 30f8 	str.w	r3, [r2, #248]	@ 0xf8
70103a1a:	f44f 5300 	mov.w	r3, #8192	@ 0x2000
70103a1e:	f7ff ba63 	b.w	70102ee8 <HAL_RCCEx_PeriphCLKConfig+0xa28>
70103a22:	4ba3      	ldr	r3, [pc, #652]	@ (70103cb0 <HAL_RCCEx_PeriphCLKConfig+0x17f0>)
70103a24:	4298      	cmp	r0, r3
70103a26:	bf02      	ittt	eq
70103a28:	2240      	moveq	r2, #64	@ 0x40
70103a2a:	4b9e      	ldreq	r3, [pc, #632]	@ (70103ca4 <HAL_RCCEx_PeriphCLKConfig+0x17e4>)
70103a2c:	f8c3 2a48 	streq.w	r2, [r3, #2632]	@ 0xa48
70103a30:	f7ff ba5c 	b.w	70102eec <HAL_RCCEx_PeriphCLKConfig+0xa2c>
70103a34:	4b9f      	ldr	r3, [pc, #636]	@ (70103cb4 <HAL_RCCEx_PeriphCLKConfig+0x17f4>)
70103a36:	4298      	cmp	r0, r3
70103a38:	d112      	bne.n	70103a60 <HAL_RCCEx_PeriphCLKConfig+0x15a0>
70103a3a:	4a9a      	ldr	r2, [pc, #616]	@ (70103ca4 <HAL_RCCEx_PeriphCLKConfig+0x17e4>)
70103a3c:	6ce1      	ldr	r1, [r4, #76]	@ 0x4c
70103a3e:	f8d2 30e4 	ldr.w	r3, [r2, #228]	@ 0xe4
70103a42:	6ca5      	ldr	r5, [r4, #72]	@ 0x48
70103a44:	f023 5343 	bic.w	r3, r3, #817889280	@ 0x30c00000
70103a48:	f423 137c 	bic.w	r3, r3, #4128768	@ 0x3f0000
70103a4c:	3901      	subs	r1, #1
70103a4e:	432b      	orrs	r3, r5
70103a50:	ea43 4301 	orr.w	r3, r3, r1, lsl #16
70103a54:	f8c2 30e4 	str.w	r3, [r2, #228]	@ 0xe4
70103a58:	f44f 7380 	mov.w	r3, #256	@ 0x100
70103a5c:	f7ff ba60 	b.w	70102f20 <HAL_RCCEx_PeriphCLKConfig+0xa60>
70103a60:	4b95      	ldr	r3, [pc, #596]	@ (70103cb8 <HAL_RCCEx_PeriphCLKConfig+0x17f8>)
70103a62:	4298      	cmp	r0, r3
70103a64:	bf02      	ittt	eq
70103a66:	2240      	moveq	r2, #64	@ 0x40
70103a68:	4b8e      	ldreq	r3, [pc, #568]	@ (70103ca4 <HAL_RCCEx_PeriphCLKConfig+0x17e4>)
70103a6a:	f8c3 2a48 	streq.w	r2, [r3, #2632]	@ 0xa48
70103a6e:	f7ff ba59 	b.w	70102f24 <HAL_RCCEx_PeriphCLKConfig+0xa64>
70103a72:	4b92      	ldr	r3, [pc, #584]	@ (70103cbc <HAL_RCCEx_PeriphCLKConfig+0x17fc>)
70103a74:	4298      	cmp	r0, r3
70103a76:	d112      	bne.n	70103a9e <HAL_RCCEx_PeriphCLKConfig+0x15de>
70103a78:	4a8a      	ldr	r2, [pc, #552]	@ (70103ca4 <HAL_RCCEx_PeriphCLKConfig+0x17e4>)
70103a7a:	6f61      	ldr	r1, [r4, #116]	@ 0x74
70103a7c:	f8d2 30f8 	ldr.w	r3, [r2, #248]	@ 0xf8
70103a80:	6f25      	ldr	r5, [r4, #112]	@ 0x70
70103a82:	f023 5343 	bic.w	r3, r3, #817889280	@ 0x30c00000
70103a86:	f423 137c 	bic.w	r3, r3, #4128768	@ 0x3f0000
70103a8a:	3901      	subs	r1, #1
70103a8c:	432b      	orrs	r3, r5
70103a8e:	ea43 4301 	orr.w	r3, r3, r1, lsl #16
70103a92:	f8c2 30f8 	str.w	r3, [r2, #248]	@ 0xf8
70103a96:	f44f 5300 	mov.w	r3, #8192	@ 0x2000
70103a9a:	f7ff ba5e 	b.w	70102f5a <HAL_RCCEx_PeriphCLKConfig+0xa9a>
70103a9e:	4b88      	ldr	r3, [pc, #544]	@ (70103cc0 <HAL_RCCEx_PeriphCLKConfig+0x1800>)
70103aa0:	4298      	cmp	r0, r3
70103aa2:	bf02      	ittt	eq
70103aa4:	2240      	moveq	r2, #64	@ 0x40
70103aa6:	4b7f      	ldreq	r3, [pc, #508]	@ (70103ca4 <HAL_RCCEx_PeriphCLKConfig+0x17e4>)
70103aa8:	f8c3 2a48 	streq.w	r2, [r3, #2632]	@ 0xa48
70103aac:	f7ff ba57 	b.w	70102f5e <HAL_RCCEx_PeriphCLKConfig+0xa9e>
70103ab0:	4b84      	ldr	r3, [pc, #528]	@ (70103cc4 <HAL_RCCEx_PeriphCLKConfig+0x1804>)
70103ab2:	4298      	cmp	r0, r3
70103ab4:	d112      	bne.n	70103adc <HAL_RCCEx_PeriphCLKConfig+0x161c>
70103ab6:	4a7b      	ldr	r2, [pc, #492]	@ (70103ca4 <HAL_RCCEx_PeriphCLKConfig+0x17e4>)
70103ab8:	6f61      	ldr	r1, [r4, #116]	@ 0x74
70103aba:	f8d2 30f8 	ldr.w	r3, [r2, #248]	@ 0xf8
70103abe:	6f25      	ldr	r5, [r4, #112]	@ 0x70
70103ac0:	f023 5343 	bic.w	r3, r3, #817889280	@ 0x30c00000
70103ac4:	f423 137c 	bic.w	r3, r3, #4128768	@ 0x3f0000
70103ac8:	3901      	subs	r1, #1
70103aca:	432b      	orrs	r3, r5
70103acc:	ea43 4301 	orr.w	r3, r3, r1, lsl #16
70103ad0:	f8c2 30f8 	str.w	r3, [r2, #248]	@ 0xf8
70103ad4:	f44f 5300 	mov.w	r3, #8192	@ 0x2000
70103ad8:	f7ff ba73 	b.w	70102fc2 <HAL_RCCEx_PeriphCLKConfig+0xb02>
70103adc:	4b7a      	ldr	r3, [pc, #488]	@ (70103cc8 <HAL_RCCEx_PeriphCLKConfig+0x1808>)
70103ade:	4298      	cmp	r0, r3
70103ae0:	bf02      	ittt	eq
70103ae2:	2240      	moveq	r2, #64	@ 0x40
70103ae4:	4b6f      	ldreq	r3, [pc, #444]	@ (70103ca4 <HAL_RCCEx_PeriphCLKConfig+0x17e4>)
70103ae6:	f8c3 2a48 	streq.w	r2, [r3, #2632]	@ 0xa48
70103aea:	f7ff ba6c 	b.w	70102fc6 <HAL_RCCEx_PeriphCLKConfig+0xb06>
70103aee:	4b77      	ldr	r3, [pc, #476]	@ (70103ccc <HAL_RCCEx_PeriphCLKConfig+0x180c>)
70103af0:	4298      	cmp	r0, r3
70103af2:	d112      	bne.n	70103b1a <HAL_RCCEx_PeriphCLKConfig+0x165a>
70103af4:	4a6b      	ldr	r2, [pc, #428]	@ (70103ca4 <HAL_RCCEx_PeriphCLKConfig+0x17e4>)
70103af6:	6f61      	ldr	r1, [r4, #116]	@ 0x74
70103af8:	f8d2 30f8 	ldr.w	r3, [r2, #248]	@ 0xf8
70103afc:	6f25      	ldr	r5, [r4, #112]	@ 0x70
70103afe:	f023 5343 	bic.w	r3, r3, #817889280	@ 0x30c00000
70103b02:	f423 137c 	bic.w	r3, r3, #4128768	@ 0x3f0000
70103b06:	3901      	subs	r1, #1
70103b08:	432b      	orrs	r3, r5
70103b0a:	ea43 4301 	orr.w	r3, r3, r1, lsl #16
70103b0e:	f8c2 30f8 	str.w	r3, [r2, #248]	@ 0xf8
70103b12:	f44f 5300 	mov.w	r3, #8192	@ 0x2000
70103b16:	f7ff ba71 	b.w	70102ffc <HAL_RCCEx_PeriphCLKConfig+0xb3c>
70103b1a:	4b6d      	ldr	r3, [pc, #436]	@ (70103cd0 <HAL_RCCEx_PeriphCLKConfig+0x1810>)
70103b1c:	4298      	cmp	r0, r3
70103b1e:	bf02      	ittt	eq
70103b20:	2240      	moveq	r2, #64	@ 0x40
70103b22:	4b60      	ldreq	r3, [pc, #384]	@ (70103ca4 <HAL_RCCEx_PeriphCLKConfig+0x17e4>)
70103b24:	f8c3 2a48 	streq.w	r2, [r3, #2632]	@ 0xa48
70103b28:	f7ff ba6a 	b.w	70103000 <HAL_RCCEx_PeriphCLKConfig+0xb40>
70103b2c:	4b69      	ldr	r3, [pc, #420]	@ (70103cd4 <HAL_RCCEx_PeriphCLKConfig+0x1814>)
70103b2e:	4298      	cmp	r0, r3
70103b30:	d112      	bne.n	70103b58 <HAL_RCCEx_PeriphCLKConfig+0x1698>
70103b32:	4a5c      	ldr	r2, [pc, #368]	@ (70103ca4 <HAL_RCCEx_PeriphCLKConfig+0x17e4>)
70103b34:	6f61      	ldr	r1, [r4, #116]	@ 0x74
70103b36:	f8d2 30f8 	ldr.w	r3, [r2, #248]	@ 0xf8
70103b3a:	6f25      	ldr	r5, [r4, #112]	@ 0x70
70103b3c:	f023 5343 	bic.w	r3, r3, #817889280	@ 0x30c00000
70103b40:	f423 137c 	bic.w	r3, r3, #4128768	@ 0x3f0000
70103b44:	3901      	subs	r1, #1
70103b46:	432b      	orrs	r3, r5
70103b48:	ea43 4301 	orr.w	r3, r3, r1, lsl #16
70103b4c:	f8c2 30f8 	str.w	r3, [r2, #248]	@ 0xf8
70103b50:	f44f 5300 	mov.w	r3, #8192	@ 0x2000
70103b54:	f7ff ba6f 	b.w	70103036 <HAL_RCCEx_PeriphCLKConfig+0xb76>
70103b58:	4b5f      	ldr	r3, [pc, #380]	@ (70103cd8 <HAL_RCCEx_PeriphCLKConfig+0x1818>)
70103b5a:	4298      	cmp	r0, r3
70103b5c:	bf02      	ittt	eq
70103b5e:	2240      	moveq	r2, #64	@ 0x40
70103b60:	4b50      	ldreq	r3, [pc, #320]	@ (70103ca4 <HAL_RCCEx_PeriphCLKConfig+0x17e4>)
70103b62:	f8c3 2a48 	streq.w	r2, [r3, #2632]	@ 0xa48
70103b66:	f7ff ba68 	b.w	7010303a <HAL_RCCEx_PeriphCLKConfig+0xb7a>
70103b6a:	4b5c      	ldr	r3, [pc, #368]	@ (70103cdc <HAL_RCCEx_PeriphCLKConfig+0x181c>)
70103b6c:	4298      	cmp	r0, r3
70103b6e:	d112      	bne.n	70103b96 <HAL_RCCEx_PeriphCLKConfig+0x16d6>
70103b70:	4a4c      	ldr	r2, [pc, #304]	@ (70103ca4 <HAL_RCCEx_PeriphCLKConfig+0x17e4>)
70103b72:	6f61      	ldr	r1, [r4, #116]	@ 0x74
70103b74:	f8d2 30f8 	ldr.w	r3, [r2, #248]	@ 0xf8
70103b78:	6f25      	ldr	r5, [r4, #112]	@ 0x70
70103b7a:	f023 5343 	bic.w	r3, r3, #817889280	@ 0x30c00000
70103b7e:	f423 137c 	bic.w	r3, r3, #4128768	@ 0x3f0000
70103b82:	3901      	subs	r1, #1
70103b84:	432b      	orrs	r3, r5
70103b86:	ea43 4301 	orr.w	r3, r3, r1, lsl #16
70103b8a:	f8c2 30f8 	str.w	r3, [r2, #248]	@ 0xf8
70103b8e:	f44f 5300 	mov.w	r3, #8192	@ 0x2000
70103b92:	f7ff ba6d 	b.w	70103070 <HAL_RCCEx_PeriphCLKConfig+0xbb0>
70103b96:	4b52      	ldr	r3, [pc, #328]	@ (70103ce0 <HAL_RCCEx_PeriphCLKConfig+0x1820>)
70103b98:	4298      	cmp	r0, r3
70103b9a:	bf02      	ittt	eq
70103b9c:	2240      	moveq	r2, #64	@ 0x40
70103b9e:	4b41      	ldreq	r3, [pc, #260]	@ (70103ca4 <HAL_RCCEx_PeriphCLKConfig+0x17e4>)
70103ba0:	f8c3 2a48 	streq.w	r2, [r3, #2632]	@ 0xa48
70103ba4:	f7ff ba66 	b.w	70103074 <HAL_RCCEx_PeriphCLKConfig+0xbb4>
70103ba8:	4b4e      	ldr	r3, [pc, #312]	@ (70103ce4 <HAL_RCCEx_PeriphCLKConfig+0x1824>)
70103baa:	4298      	cmp	r0, r3
70103bac:	d112      	bne.n	70103bd4 <HAL_RCCEx_PeriphCLKConfig+0x1714>
70103bae:	4a3d      	ldr	r2, [pc, #244]	@ (70103ca4 <HAL_RCCEx_PeriphCLKConfig+0x17e4>)
70103bb0:	6f61      	ldr	r1, [r4, #116]	@ 0x74
70103bb2:	f8d2 30f8 	ldr.w	r3, [r2, #248]	@ 0xf8
70103bb6:	6f25      	ldr	r5, [r4, #112]	@ 0x70
70103bb8:	f023 5343 	bic.w	r3, r3, #817889280	@ 0x30c00000
70103bbc:	f423 137c 	bic.w	r3, r3, #4128768	@ 0x3f0000
70103bc0:	3901      	subs	r1, #1
70103bc2:	432b      	orrs	r3, r5
70103bc4:	ea43 4301 	orr.w	r3, r3, r1, lsl #16
70103bc8:	f8c2 30f8 	str.w	r3, [r2, #248]	@ 0xf8
70103bcc:	f44f 5300 	mov.w	r3, #8192	@ 0x2000
70103bd0:	f7ff ba6b 	b.w	701030aa <HAL_RCCEx_PeriphCLKConfig+0xbea>
70103bd4:	4b44      	ldr	r3, [pc, #272]	@ (70103ce8 <HAL_RCCEx_PeriphCLKConfig+0x1828>)
70103bd6:	4298      	cmp	r0, r3
70103bd8:	bf02      	ittt	eq
70103bda:	2240      	moveq	r2, #64	@ 0x40
70103bdc:	4b31      	ldreq	r3, [pc, #196]	@ (70103ca4 <HAL_RCCEx_PeriphCLKConfig+0x17e4>)
70103bde:	f8c3 2a48 	streq.w	r2, [r3, #2632]	@ 0xa48
70103be2:	f7ff ba64 	b.w	701030ae <HAL_RCCEx_PeriphCLKConfig+0xbee>
70103be6:	4b41      	ldr	r3, [pc, #260]	@ (70103cec <HAL_RCCEx_PeriphCLKConfig+0x182c>)
70103be8:	4298      	cmp	r0, r3
70103bea:	d112      	bne.n	70103c12 <HAL_RCCEx_PeriphCLKConfig+0x1752>
70103bec:	4a2d      	ldr	r2, [pc, #180]	@ (70103ca4 <HAL_RCCEx_PeriphCLKConfig+0x17e4>)
70103bee:	6f61      	ldr	r1, [r4, #116]	@ 0x74
70103bf0:	f8d2 30f8 	ldr.w	r3, [r2, #248]	@ 0xf8
70103bf4:	6f25      	ldr	r5, [r4, #112]	@ 0x70
70103bf6:	f023 5343 	bic.w	r3, r3, #817889280	@ 0x30c00000
70103bfa:	f423 137c 	bic.w	r3, r3, #4128768	@ 0x3f0000
70103bfe:	3901      	subs	r1, #1
70103c00:	432b      	orrs	r3, r5
70103c02:	ea43 4301 	orr.w	r3, r3, r1, lsl #16
70103c06:	f8c2 30f8 	str.w	r3, [r2, #248]	@ 0xf8
70103c0a:	f44f 5300 	mov.w	r3, #8192	@ 0x2000
70103c0e:	f7ff ba69 	b.w	701030e4 <HAL_RCCEx_PeriphCLKConfig+0xc24>
70103c12:	4b37      	ldr	r3, [pc, #220]	@ (70103cf0 <HAL_RCCEx_PeriphCLKConfig+0x1830>)
70103c14:	4298      	cmp	r0, r3
70103c16:	bf02      	ittt	eq
70103c18:	2240      	moveq	r2, #64	@ 0x40
70103c1a:	4b22      	ldreq	r3, [pc, #136]	@ (70103ca4 <HAL_RCCEx_PeriphCLKConfig+0x17e4>)
70103c1c:	f8c3 2a48 	streq.w	r2, [r3, #2632]	@ 0xa48
70103c20:	f7ff ba62 	b.w	701030e8 <HAL_RCCEx_PeriphCLKConfig+0xc28>
70103c24:	4b33      	ldr	r3, [pc, #204]	@ (70103cf4 <HAL_RCCEx_PeriphCLKConfig+0x1834>)
70103c26:	4298      	cmp	r0, r3
70103c28:	d112      	bne.n	70103c50 <HAL_RCCEx_PeriphCLKConfig+0x1790>
70103c2a:	4a1e      	ldr	r2, [pc, #120]	@ (70103ca4 <HAL_RCCEx_PeriphCLKConfig+0x17e4>)
70103c2c:	6f61      	ldr	r1, [r4, #116]	@ 0x74
70103c2e:	f8d2 30f8 	ldr.w	r3, [r2, #248]	@ 0xf8
70103c32:	6f25      	ldr	r5, [r4, #112]	@ 0x70
70103c34:	f023 5343 	bic.w	r3, r3, #817889280	@ 0x30c00000
70103c38:	f423 137c 	bic.w	r3, r3, #4128768	@ 0x3f0000
70103c3c:	3901      	subs	r1, #1
70103c3e:	432b      	orrs	r3, r5
70103c40:	ea43 4301 	orr.w	r3, r3, r1, lsl #16
70103c44:	f8c2 30f8 	str.w	r3, [r2, #248]	@ 0xf8
70103c48:	f44f 5300 	mov.w	r3, #8192	@ 0x2000
70103c4c:	f7ff ba67 	b.w	7010311e <HAL_RCCEx_PeriphCLKConfig+0xc5e>
70103c50:	4b29      	ldr	r3, [pc, #164]	@ (70103cf8 <HAL_RCCEx_PeriphCLKConfig+0x1838>)
70103c52:	4298      	cmp	r0, r3
70103c54:	bf02      	ittt	eq
70103c56:	2240      	moveq	r2, #64	@ 0x40
70103c58:	4b12      	ldreq	r3, [pc, #72]	@ (70103ca4 <HAL_RCCEx_PeriphCLKConfig+0x17e4>)
70103c5a:	f8c3 2a48 	streq.w	r2, [r3, #2632]	@ 0xa48
70103c5e:	f7ff ba60 	b.w	70103122 <HAL_RCCEx_PeriphCLKConfig+0xc62>
70103c62:	4b26      	ldr	r3, [pc, #152]	@ (70103cfc <HAL_RCCEx_PeriphCLKConfig+0x183c>)
70103c64:	4298      	cmp	r0, r3
70103c66:	d112      	bne.n	70103c8e <HAL_RCCEx_PeriphCLKConfig+0x17ce>
70103c68:	4a0e      	ldr	r2, [pc, #56]	@ (70103ca4 <HAL_RCCEx_PeriphCLKConfig+0x17e4>)
70103c6a:	6f61      	ldr	r1, [r4, #116]	@ 0x74
70103c6c:	f8d2 30f8 	ldr.w	r3, [r2, #248]	@ 0xf8
70103c70:	6f25      	ldr	r5, [r4, #112]	@ 0x70
70103c72:	f023 5343 	bic.w	r3, r3, #817889280	@ 0x30c00000
70103c76:	f423 137c 	bic.w	r3, r3, #4128768	@ 0x3f0000
70103c7a:	3901      	subs	r1, #1
70103c7c:	432b      	orrs	r3, r5
70103c7e:	ea43 4301 	orr.w	r3, r3, r1, lsl #16
70103c82:	f8c2 30f8 	str.w	r3, [r2, #248]	@ 0xf8
70103c86:	f44f 5300 	mov.w	r3, #8192	@ 0x2000
70103c8a:	f7ff ba65 	b.w	70103158 <HAL_RCCEx_PeriphCLKConfig+0xc98>
70103c8e:	4b1c      	ldr	r3, [pc, #112]	@ (70103d00 <HAL_RCCEx_PeriphCLKConfig+0x1840>)
70103c90:	4298      	cmp	r0, r3
70103c92:	bf02      	ittt	eq
70103c94:	2240      	moveq	r2, #64	@ 0x40
70103c96:	4b03      	ldreq	r3, [pc, #12]	@ (70103ca4 <HAL_RCCEx_PeriphCLKConfig+0x17e4>)
70103c98:	f8c3 2a48 	streq.w	r2, [r3, #2632]	@ 0xa48
70103c9c:	f7ff ba5e 	b.w	7010315c <HAL_RCCEx_PeriphCLKConfig+0xc9c>
70103ca0:	07031020 	.word	0x07031020
70103ca4:	56028000 	.word	0x56028000
70103ca8:	07011020 	.word	0x07011020
70103cac:	07031420 	.word	0x07031420
70103cb0:	07011420 	.word	0x07011420
70103cb4:	07031820 	.word	0x07031820
70103cb8:	07011820 	.word	0x07011820
70103cbc:	07030030 	.word	0x07030030
70103cc0:	07010030 	.word	0x07010030
70103cc4:	07030430 	.word	0x07030430
70103cc8:	07010430 	.word	0x07010430
70103ccc:	07030830 	.word	0x07030830
70103cd0:	07010830 	.word	0x07010830
70103cd4:	07030c30 	.word	0x07030c30
70103cd8:	07010c30 	.word	0x07010c30
70103cdc:	07031030 	.word	0x07031030
70103ce0:	07011030 	.word	0x07011030
70103ce4:	07031430 	.word	0x07031430
70103ce8:	07011430 	.word	0x07011430
70103cec:	07031830 	.word	0x07031830
70103cf0:	07011830 	.word	0x07011830
70103cf4:	07031c30 	.word	0x07031c30
70103cf8:	07011c30 	.word	0x07011c30
70103cfc:	07030034 	.word	0x07030034
70103d00:	07010034 	.word	0x07010034
70103d04:	4b20      	ldr	r3, [pc, #128]	@ (70103d88 <HAL_RCCEx_PeriphCLKConfig+0x18c8>)
70103d06:	4298      	cmp	r0, r3
70103d08:	d112      	bne.n	70103d30 <HAL_RCCEx_PeriphCLKConfig+0x1870>
70103d0a:	4a20      	ldr	r2, [pc, #128]	@ (70103d8c <HAL_RCCEx_PeriphCLKConfig+0x18cc>)
70103d0c:	6f61      	ldr	r1, [r4, #116]	@ 0x74
70103d0e:	f8d2 30f8 	ldr.w	r3, [r2, #248]	@ 0xf8
70103d12:	6f25      	ldr	r5, [r4, #112]	@ 0x70
70103d14:	f023 5343 	bic.w	r3, r3, #817889280	@ 0x30c00000
70103d18:	f423 137c 	bic.w	r3, r3, #4128768	@ 0x3f0000
70103d1c:	3901      	subs	r1, #1
70103d1e:	432b      	orrs	r3, r5
70103d20:	ea43 4301 	orr.w	r3, r3, r1, lsl #16
70103d24:	f8c2 30f8 	str.w	r3, [r2, #248]	@ 0xf8
70103d28:	f44f 5300 	mov.w	r3, #8192	@ 0x2000
70103d2c:	f7ff ba31 	b.w	70103192 <HAL_RCCEx_PeriphCLKConfig+0xcd2>
70103d30:	4b17      	ldr	r3, [pc, #92]	@ (70103d90 <HAL_RCCEx_PeriphCLKConfig+0x18d0>)
70103d32:	4298      	cmp	r0, r3
70103d34:	bf02      	ittt	eq
70103d36:	2240      	moveq	r2, #64	@ 0x40
70103d38:	4b14      	ldreq	r3, [pc, #80]	@ (70103d8c <HAL_RCCEx_PeriphCLKConfig+0x18cc>)
70103d3a:	f8c3 2a48 	streq.w	r2, [r3, #2632]	@ 0xa48
70103d3e:	f7ff ba2a 	b.w	70103196 <HAL_RCCEx_PeriphCLKConfig+0xcd6>
70103d42:	4b14      	ldr	r3, [pc, #80]	@ (70103d94 <HAL_RCCEx_PeriphCLKConfig+0x18d4>)
70103d44:	4298      	cmp	r0, r3
70103d46:	bf02      	ittt	eq
70103d48:	2240      	moveq	r2, #64	@ 0x40
70103d4a:	4b10      	ldreq	r3, [pc, #64]	@ (70103d8c <HAL_RCCEx_PeriphCLKConfig+0x18cc>)
70103d4c:	f8c3 2a48 	streq.w	r2, [r3, #2632]	@ 0xa48
70103d50:	f7ff ba3e 	b.w	701031d0 <HAL_RCCEx_PeriphCLKConfig+0xd10>
70103d54:	f7fe fa98 	bl	70102288 <LL_RCC_HSE_SelectHSEAsDiv2Clock>
70103d58:	f7ff ba45 	b.w	701031e6 <HAL_RCCEx_PeriphCLKConfig+0xd26>
70103d5c:	4b0e      	ldr	r3, [pc, #56]	@ (70103d98 <HAL_RCCEx_PeriphCLKConfig+0x18d8>)
70103d5e:	4298      	cmp	r0, r3
70103d60:	bf02      	ittt	eq
70103d62:	2240      	moveq	r2, #64	@ 0x40
70103d64:	4b09      	ldreq	r3, [pc, #36]	@ (70103d8c <HAL_RCCEx_PeriphCLKConfig+0x18cc>)
70103d66:	f8c3 2a48 	streq.w	r2, [r3, #2632]	@ 0xa48
70103d6a:	f7ff ba57 	b.w	7010321c <HAL_RCCEx_PeriphCLKConfig+0xd5c>
70103d6e:	f7fe fa8b 	bl	70102288 <LL_RCC_HSE_SelectHSEAsDiv2Clock>
70103d72:	f7ff ba5e 	b.w	70103232 <HAL_RCCEx_PeriphCLKConfig+0xd72>
70103d76:	f7fe fa87 	bl	70102288 <LL_RCC_HSE_SelectHSEAsDiv2Clock>
70103d7a:	f7ff ba69 	b.w	70103250 <HAL_RCCEx_PeriphCLKConfig+0xd90>
70103d7e:	f7fe fa83 	bl	70102288 <LL_RCC_HSE_SelectHSEAsDiv2Clock>
70103d82:	f7ff ba74 	b.w	7010326e <HAL_RCCEx_PeriphCLKConfig+0xdae>
70103d86:	bf00      	nop
70103d88:	07030434 	.word	0x07030434
70103d8c:	56028000 	.word	0x56028000
70103d90:	07010434 	.word	0x07010434
70103d94:	03010c14 	.word	0x03010c14
70103d98:	03011414 	.word	0x03011414

70103d9c <HAL_RCCEx_GetPLL1CLKFreq>:
70103d9c:	b537      	push	{r0, r1, r2, r4, r5, lr}
70103d9e:	4c1e      	ldr	r4, [pc, #120]	@ (70103e18 <HAL_RCCEx_GetPLL1CLKFreq+0x7c>)
70103da0:	6863      	ldr	r3, [r4, #4]
70103da2:	05d9      	lsls	r1, r3, #23
70103da4:	d506      	bpl.n	70103db4 <HAL_RCCEx_GetPLL1CLKFreq+0x18>
70103da6:	f8d4 3088 	ldr.w	r3, [r4, #136]	@ 0x88
70103daa:	005a      	lsls	r2, r3, #1
70103dac:	d40f      	bmi.n	70103dce <HAL_RCCEx_GetPLL1CLKFreq+0x32>
70103dae:	2000      	movs	r0, #0
70103db0:	b003      	add	sp, #12
70103db2:	bd30      	pop	{r4, r5, pc}
70103db4:	f8d4 3080 	ldr.w	r3, [r4, #128]	@ 0x80
70103db8:	011b      	lsls	r3, r3, #4
70103dba:	d5f8      	bpl.n	70103dae <HAL_RCCEx_GetPLL1CLKFreq+0x12>
70103dbc:	f8d4 0080 	ldr.w	r0, [r4, #128]	@ 0x80
70103dc0:	f000 40e0 	and.w	r0, r0, #1879048192	@ 0x70000000
70103dc4:	b003      	add	sp, #12
70103dc6:	e8bd 4030 	ldmia.w	sp!, {r4, r5, lr}
70103dca:	f7fe bb17 	b.w	701023fc <RCCEx_GetPLLSourceFreq>
70103dce:	f8d4 0080 	ldr.w	r0, [r4, #128]	@ 0x80
70103dd2:	f000 40e0 	and.w	r0, r0, #1879048192	@ 0x70000000
70103dd6:	f7fe fb11 	bl	701023fc <RCCEx_GetPLLSourceFreq>
70103dda:	2800      	cmp	r0, #0
70103ddc:	d0e7      	beq.n	70103dae <HAL_RCCEx_GetPLL1CLKFreq+0x12>
70103dde:	f8d4 3080 	ldr.w	r3, [r4, #128]	@ 0x80
70103de2:	f013 7f7c 	tst.w	r3, #66060288	@ 0x3f00000
70103de6:	f3c3 5105 	ubfx	r1, r3, #20, #6
70103dea:	d0e0      	beq.n	70103dae <HAL_RCCEx_GetPLL1CLKFreq+0x12>
70103dec:	f8d4 2080 	ldr.w	r2, [r4, #128]	@ 0x80
70103df0:	f8d4 3084 	ldr.w	r3, [r4, #132]	@ 0x84
70103df4:	f8d4 5088 	ldr.w	r5, [r4, #136]	@ 0x88
70103df8:	f8d4 4088 	ldr.w	r4, [r4, #136]	@ 0x88
70103dfc:	f3c5 65c2 	ubfx	r5, r5, #27, #3
70103e00:	f3c4 6402 	ubfx	r4, r4, #24, #3
70103e04:	9401      	str	r4, [sp, #4]
70103e06:	9500      	str	r5, [sp, #0]
70103e08:	f023 437f 	bic.w	r3, r3, #4278190080	@ 0xff000000
70103e0c:	f3c2 220b 	ubfx	r2, r2, #8, #12
70103e10:	f7fe fb2a 	bl	70102468 <RCCEx_CalcPLLFreq>
70103e14:	e7cc      	b.n	70103db0 <HAL_RCCEx_GetPLL1CLKFreq+0x14>
70103e16:	bf00      	nop
70103e18:	56028000 	.word	0x56028000

70103e1c <HAL_RCCEx_GetPLL2CLKFreq>:
70103e1c:	b537      	push	{r0, r1, r2, r4, r5, lr}
70103e1e:	4c1e      	ldr	r4, [pc, #120]	@ (70103e98 <HAL_RCCEx_GetPLL2CLKFreq+0x7c>)
70103e20:	6863      	ldr	r3, [r4, #4]
70103e22:	0599      	lsls	r1, r3, #22
70103e24:	d506      	bpl.n	70103e34 <HAL_RCCEx_GetPLL2CLKFreq+0x18>
70103e26:	f8d4 3098 	ldr.w	r3, [r4, #152]	@ 0x98
70103e2a:	005a      	lsls	r2, r3, #1
70103e2c:	d40f      	bmi.n	70103e4e <HAL_RCCEx_GetPLL2CLKFreq+0x32>
70103e2e:	2000      	movs	r0, #0
70103e30:	b003      	add	sp, #12
70103e32:	bd30      	pop	{r4, r5, pc}
70103e34:	f8d4 3090 	ldr.w	r3, [r4, #144]	@ 0x90
70103e38:	011b      	lsls	r3, r3, #4
70103e3a:	d5f8      	bpl.n	70103e2e <HAL_RCCEx_GetPLL2CLKFreq+0x12>
70103e3c:	f8d4 0090 	ldr.w	r0, [r4, #144]	@ 0x90
70103e40:	f000 40e0 	and.w	r0, r0, #1879048192	@ 0x70000000
70103e44:	b003      	add	sp, #12
70103e46:	e8bd 4030 	ldmia.w	sp!, {r4, r5, lr}
70103e4a:	f7fe bad7 	b.w	701023fc <RCCEx_GetPLLSourceFreq>
70103e4e:	f8d4 0090 	ldr.w	r0, [r4, #144]	@ 0x90
70103e52:	f000 40e0 	and.w	r0, r0, #1879048192	@ 0x70000000
70103e56:	f7fe fad1 	bl	701023fc <RCCEx_GetPLLSourceFreq>
70103e5a:	2800      	cmp	r0, #0
70103e5c:	d0e7      	beq.n	70103e2e <HAL_RCCEx_GetPLL2CLKFreq+0x12>
70103e5e:	f8d4 3090 	ldr.w	r3, [r4, #144]	@ 0x90
70103e62:	f013 7f7c 	tst.w	r3, #66060288	@ 0x3f00000
70103e66:	f3c3 5105 	ubfx	r1, r3, #20, #6
70103e6a:	d0e0      	beq.n	70103e2e <HAL_RCCEx_GetPLL2CLKFreq+0x12>
70103e6c:	f8d4 2090 	ldr.w	r2, [r4, #144]	@ 0x90
70103e70:	f8d4 3094 	ldr.w	r3, [r4, #148]	@ 0x94
70103e74:	f8d4 5098 	ldr.w	r5, [r4, #152]	@ 0x98
70103e78:	f8d4 4098 	ldr.w	r4, [r4, #152]	@ 0x98
70103e7c:	f3c5 65c2 	ubfx	r5, r5, #27, #3
70103e80:	f3c4 6402 	ubfx	r4, r4, #24, #3
70103e84:	9401      	str	r4, [sp, #4]
70103e86:	9500      	str	r5, [sp, #0]
70103e88:	f023 437f 	bic.w	r3, r3, #4278190080	@ 0xff000000
70103e8c:	f3c2 220b 	ubfx	r2, r2, #8, #12
70103e90:	f7fe faea 	bl	70102468 <RCCEx_CalcPLLFreq>
70103e94:	e7cc      	b.n	70103e30 <HAL_RCCEx_GetPLL2CLKFreq+0x14>
70103e96:	bf00      	nop
70103e98:	56028000 	.word	0x56028000

70103e9c <HAL_RCCEx_GetPLL3CLKFreq>:
70103e9c:	b537      	push	{r0, r1, r2, r4, r5, lr}
70103e9e:	4c1e      	ldr	r4, [pc, #120]	@ (70103f18 <HAL_RCCEx_GetPLL3CLKFreq+0x7c>)
70103ea0:	6863      	ldr	r3, [r4, #4]
70103ea2:	0559      	lsls	r1, r3, #21
70103ea4:	d506      	bpl.n	70103eb4 <HAL_RCCEx_GetPLL3CLKFreq+0x18>
70103ea6:	f8d4 30a8 	ldr.w	r3, [r4, #168]	@ 0xa8
70103eaa:	005a      	lsls	r2, r3, #1
70103eac:	d40f      	bmi.n	70103ece <HAL_RCCEx_GetPLL3CLKFreq+0x32>
70103eae:	2000      	movs	r0, #0
70103eb0:	b003      	add	sp, #12
70103eb2:	bd30      	pop	{r4, r5, pc}
70103eb4:	f8d4 30a0 	ldr.w	r3, [r4, #160]	@ 0xa0
70103eb8:	011b      	lsls	r3, r3, #4
70103eba:	d5f8      	bpl.n	70103eae <HAL_RCCEx_GetPLL3CLKFreq+0x12>
70103ebc:	f8d4 00a0 	ldr.w	r0, [r4, #160]	@ 0xa0
70103ec0:	f000 40e0 	and.w	r0, r0, #1879048192	@ 0x70000000
70103ec4:	b003      	add	sp, #12
70103ec6:	e8bd 4030 	ldmia.w	sp!, {r4, r5, lr}
70103eca:	f7fe ba97 	b.w	701023fc <RCCEx_GetPLLSourceFreq>
70103ece:	f8d4 00a0 	ldr.w	r0, [r4, #160]	@ 0xa0
70103ed2:	f000 40e0 	and.w	r0, r0, #1879048192	@ 0x70000000
70103ed6:	f7fe fa91 	bl	701023fc <RCCEx_GetPLLSourceFreq>
70103eda:	2800      	cmp	r0, #0
70103edc:	d0e7      	beq.n	70103eae <HAL_RCCEx_GetPLL3CLKFreq+0x12>
70103ede:	f8d4 30a0 	ldr.w	r3, [r4, #160]	@ 0xa0
70103ee2:	f013 7f7c 	tst.w	r3, #66060288	@ 0x3f00000
70103ee6:	f3c3 5105 	ubfx	r1, r3, #20, #6
70103eea:	d0e0      	beq.n	70103eae <HAL_RCCEx_GetPLL3CLKFreq+0x12>
70103eec:	f8d4 20a0 	ldr.w	r2, [r4, #160]	@ 0xa0
70103ef0:	f8d4 30a4 	ldr.w	r3, [r4, #164]	@ 0xa4
70103ef4:	f8d4 50a8 	ldr.w	r5, [r4, #168]	@ 0xa8
70103ef8:	f8d4 40a8 	ldr.w	r4, [r4, #168]	@ 0xa8
70103efc:	f3c5 65c2 	ubfx	r5, r5, #27, #3
70103f00:	f3c4 6402 	ubfx	r4, r4, #24, #3
70103f04:	9401      	str	r4, [sp, #4]
70103f06:	9500      	str	r5, [sp, #0]
70103f08:	f023 437f 	bic.w	r3, r3, #4278190080	@ 0xff000000
70103f0c:	f3c2 220b 	ubfx	r2, r2, #8, #12
70103f10:	f7fe faaa 	bl	70102468 <RCCEx_CalcPLLFreq>
70103f14:	e7cc      	b.n	70103eb0 <HAL_RCCEx_GetPLL3CLKFreq+0x14>
70103f16:	bf00      	nop
70103f18:	56028000 	.word	0x56028000

70103f1c <HAL_RCCEx_GetPLL4CLKFreq>:
70103f1c:	b537      	push	{r0, r1, r2, r4, r5, lr}
70103f1e:	4c1e      	ldr	r4, [pc, #120]	@ (70103f98 <HAL_RCCEx_GetPLL4CLKFreq+0x7c>)
70103f20:	6863      	ldr	r3, [r4, #4]
70103f22:	0519      	lsls	r1, r3, #20
70103f24:	d506      	bpl.n	70103f34 <HAL_RCCEx_GetPLL4CLKFreq+0x18>
70103f26:	f8d4 30b8 	ldr.w	r3, [r4, #184]	@ 0xb8
70103f2a:	005a      	lsls	r2, r3, #1
70103f2c:	d40f      	bmi.n	70103f4e <HAL_RCCEx_GetPLL4CLKFreq+0x32>
70103f2e:	2000      	movs	r0, #0
70103f30:	b003      	add	sp, #12
70103f32:	bd30      	pop	{r4, r5, pc}
70103f34:	f8d4 30b0 	ldr.w	r3, [r4, #176]	@ 0xb0
70103f38:	011b      	lsls	r3, r3, #4
70103f3a:	d5f8      	bpl.n	70103f2e <HAL_RCCEx_GetPLL4CLKFreq+0x12>
70103f3c:	f8d4 00b0 	ldr.w	r0, [r4, #176]	@ 0xb0
70103f40:	f000 40e0 	and.w	r0, r0, #1879048192	@ 0x70000000
70103f44:	b003      	add	sp, #12
70103f46:	e8bd 4030 	ldmia.w	sp!, {r4, r5, lr}
70103f4a:	f7fe ba57 	b.w	701023fc <RCCEx_GetPLLSourceFreq>
70103f4e:	f8d4 00b0 	ldr.w	r0, [r4, #176]	@ 0xb0
70103f52:	f000 40e0 	and.w	r0, r0, #1879048192	@ 0x70000000
70103f56:	f7fe fa51 	bl	701023fc <RCCEx_GetPLLSourceFreq>
70103f5a:	2800      	cmp	r0, #0
70103f5c:	d0e7      	beq.n	70103f2e <HAL_RCCEx_GetPLL4CLKFreq+0x12>
70103f5e:	f8d4 30b0 	ldr.w	r3, [r4, #176]	@ 0xb0
70103f62:	f013 7f7c 	tst.w	r3, #66060288	@ 0x3f00000
70103f66:	f3c3 5105 	ubfx	r1, r3, #20, #6
70103f6a:	d0e0      	beq.n	70103f2e <HAL_RCCEx_GetPLL4CLKFreq+0x12>
70103f6c:	f8d4 20b0 	ldr.w	r2, [r4, #176]	@ 0xb0
70103f70:	f8d4 30b4 	ldr.w	r3, [r4, #180]	@ 0xb4
70103f74:	f8d4 50b8 	ldr.w	r5, [r4, #184]	@ 0xb8
70103f78:	f8d4 40b8 	ldr.w	r4, [r4, #184]	@ 0xb8
70103f7c:	f3c5 65c2 	ubfx	r5, r5, #27, #3
70103f80:	f3c4 6402 	ubfx	r4, r4, #24, #3
70103f84:	9401      	str	r4, [sp, #4]
70103f86:	9500      	str	r5, [sp, #0]
70103f88:	f023 437f 	bic.w	r3, r3, #4278190080	@ 0xff000000
70103f8c:	f3c2 220b 	ubfx	r2, r2, #8, #12
70103f90:	f7fe fa6a 	bl	70102468 <RCCEx_CalcPLLFreq>
70103f94:	e7cc      	b.n	70103f30 <HAL_RCCEx_GetPLL4CLKFreq+0x14>
70103f96:	bf00      	nop
70103f98:	56028000 	.word	0x56028000

70103f9c <RCCEx_GetCLKPCLKFreq.constprop.0>:
70103f9c:	4b3e      	ldr	r3, [pc, #248]	@ (70104098 <RCCEx_GetCLKPCLKFreq.constprop.0+0xfc>)
70103f9e:	b510      	push	{r4, lr}
70103fa0:	f8d3 2248 	ldr.w	r2, [r3, #584]	@ 0x248
70103fa4:	0652      	lsls	r2, r2, #25
70103fa6:	d56b      	bpl.n	70104080 <RCCEx_GetCLKPCLKFreq.constprop.0+0xe4>
70103fa8:	f8d3 215c 	ldr.w	r2, [r3, #348]	@ 0x15c
70103fac:	f002 0207 	and.w	r2, r2, #7
70103fb0:	3a01      	subs	r2, #1
70103fb2:	2a06      	cmp	r2, #6
70103fb4:	d805      	bhi.n	70103fc2 <RCCEx_GetCLKPCLKFreq.constprop.0+0x26>
70103fb6:	e8df f002 	tbb	[pc, r2]
70103fba:	150f      	.short	0x150f
70103fbc:	3e321b48 	.word	0x3e321b48
70103fc0:	54          	.byte	0x54
70103fc1:	00          	.byte	0x00
70103fc2:	f7fe f981 	bl	701022c8 <LL_RCC_HSI_IsReady>
70103fc6:	2800      	cmp	r0, #0
70103fc8:	d05a      	beq.n	70104080 <RCCEx_GetCLKPCLKFreq.constprop.0+0xe4>
70103fca:	4b33      	ldr	r3, [pc, #204]	@ (70104098 <RCCEx_GetCLKPCLKFreq.constprop.0+0xfc>)
70103fcc:	4833      	ldr	r0, [pc, #204]	@ (7010409c <RCCEx_GetCLKPCLKFreq.constprop.0+0x100>)
70103fce:	6c9b      	ldr	r3, [r3, #72]	@ 0x48
70103fd0:	f3c3 13c1 	ubfx	r3, r3, #7, #2
70103fd4:	40d8      	lsrs	r0, r3
70103fd6:	e054      	b.n	70104082 <RCCEx_GetCLKPCLKFreq.constprop.0+0xe6>
70103fd8:	f7fe f97e 	bl	701022d8 <LL_RCC_MSI_IsReady>
70103fdc:	2800      	cmp	r0, #0
70103fde:	d04f      	beq.n	70104080 <RCCEx_GetCLKPCLKFreq.constprop.0+0xe4>
70103fe0:	482f      	ldr	r0, [pc, #188]	@ (701040a0 <RCCEx_GetCLKPCLKFreq.constprop.0+0x104>)
70103fe2:	e04e      	b.n	70104082 <RCCEx_GetCLKPCLKFreq.constprop.0+0xe6>
70103fe4:	f7fe f968 	bl	701022b8 <LL_RCC_HSE_IsReady>
70103fe8:	2800      	cmp	r0, #0
70103fea:	d049      	beq.n	70104080 <RCCEx_GetCLKPCLKFreq.constprop.0+0xe4>
70103fec:	482d      	ldr	r0, [pc, #180]	@ (701040a4 <RCCEx_GetCLKPCLKFreq.constprop.0+0x108>)
70103fee:	e048      	b.n	70104082 <RCCEx_GetCLKPCLKFreq.constprop.0+0xe6>
70103ff0:	f8d3 2240 	ldr.w	r2, [r3, #576]	@ 0x240
70103ff4:	06d4      	lsls	r4, r2, #27
70103ff6:	d543      	bpl.n	70104080 <RCCEx_GetCLKPCLKFreq.constprop.0+0xe4>
70103ff8:	f8d3 00d4 	ldr.w	r0, [r3, #212]	@ 0xd4
70103ffc:	f8d3 30d4 	ldr.w	r3, [r3, #212]	@ 0xd4
70104000:	f3c0 4007 	ubfx	r0, r0, #16, #8
70104004:	1c44      	adds	r4, r0, #1
70104006:	f003 5340 	and.w	r3, r3, #805306368	@ 0x30000000
7010400a:	f1b3 5f00 	cmp.w	r3, #536870912	@ 0x20000000
7010400e:	d03c      	beq.n	7010408a <RCCEx_GetCLKPCLKFreq.constprop.0+0xee>
70104010:	d833      	bhi.n	7010407a <RCCEx_GetCLKPCLKFreq.constprop.0+0xde>
70104012:	bbbb      	cbnz	r3, 70104084 <RCCEx_GetCLKPCLKFreq.constprop.0+0xe8>
70104014:	f7ff fec2 	bl	70103d9c <HAL_RCCEx_GetPLL1CLKFreq>
70104018:	fbb0 f0f4 	udiv	r0, r0, r4
7010401c:	e031      	b.n	70104082 <RCCEx_GetCLKPCLKFreq.constprop.0+0xe6>
7010401e:	f8d3 2240 	ldr.w	r2, [r3, #576]	@ 0x240
70104022:	0590      	lsls	r0, r2, #22
70104024:	d52c      	bpl.n	70104080 <RCCEx_GetCLKPCLKFreq.constprop.0+0xe4>
70104026:	f8d3 00e8 	ldr.w	r0, [r3, #232]	@ 0xe8
7010402a:	f8d3 30e8 	ldr.w	r3, [r3, #232]	@ 0xe8
7010402e:	f3c0 4007 	ubfx	r0, r0, #16, #8
70104032:	1c44      	adds	r4, r0, #1
70104034:	e7e7      	b.n	70104006 <RCCEx_GetCLKPCLKFreq.constprop.0+0x6a>
70104036:	f7fe f9c7 	bl	701023c8 <LL_RCC_IC15_IsEnabled>
7010403a:	b308      	cbz	r0, 70104080 <RCCEx_GetCLKPCLKFreq.constprop.0+0xe4>
7010403c:	f7fe f9cc 	bl	701023d8 <LL_RCC_IC15_GetDivider>
70104040:	4b15      	ldr	r3, [pc, #84]	@ (70104098 <RCCEx_GetCLKPCLKFreq.constprop.0+0xfc>)
70104042:	4604      	mov	r4, r0
70104044:	f8d3 30fc 	ldr.w	r3, [r3, #252]	@ 0xfc
70104048:	e7dd      	b.n	70104006 <RCCEx_GetCLKPCLKFreq.constprop.0+0x6a>
7010404a:	f8d3 2240 	ldr.w	r2, [r3, #576]	@ 0x240
7010404e:	0351      	lsls	r1, r2, #13
70104050:	d516      	bpl.n	70104080 <RCCEx_GetCLKPCLKFreq.constprop.0+0xe4>
70104052:	f8d3 010c 	ldr.w	r0, [r3, #268]	@ 0x10c
70104056:	f8d3 310c 	ldr.w	r3, [r3, #268]	@ 0x10c
7010405a:	f3c0 4007 	ubfx	r0, r0, #16, #8
7010405e:	1c44      	adds	r4, r0, #1
70104060:	e7d1      	b.n	70104006 <RCCEx_GetCLKPCLKFreq.constprop.0+0x6a>
70104062:	f8d3 2240 	ldr.w	r2, [r3, #576]	@ 0x240
70104066:	0312      	lsls	r2, r2, #12
70104068:	d50a      	bpl.n	70104080 <RCCEx_GetCLKPCLKFreq.constprop.0+0xe4>
7010406a:	f8d3 0110 	ldr.w	r0, [r3, #272]	@ 0x110
7010406e:	f8d3 3110 	ldr.w	r3, [r3, #272]	@ 0x110
70104072:	f3c0 4007 	ubfx	r0, r0, #16, #8
70104076:	1c44      	adds	r4, r0, #1
70104078:	e7c5      	b.n	70104006 <RCCEx_GetCLKPCLKFreq.constprop.0+0x6a>
7010407a:	f1b3 5f40 	cmp.w	r3, #805306368	@ 0x30000000
7010407e:	d007      	beq.n	70104090 <RCCEx_GetCLKPCLKFreq.constprop.0+0xf4>
70104080:	2000      	movs	r0, #0
70104082:	bd10      	pop	{r4, pc}
70104084:	f7ff feca 	bl	70103e1c <HAL_RCCEx_GetPLL2CLKFreq>
70104088:	e7c6      	b.n	70104018 <RCCEx_GetCLKPCLKFreq.constprop.0+0x7c>
7010408a:	f7ff ff07 	bl	70103e9c <HAL_RCCEx_GetPLL3CLKFreq>
7010408e:	e7c3      	b.n	70104018 <RCCEx_GetCLKPCLKFreq.constprop.0+0x7c>
70104090:	f7ff ff44 	bl	70103f1c <HAL_RCCEx_GetPLL4CLKFreq>
70104094:	e7c0      	b.n	70104018 <RCCEx_GetCLKPCLKFreq.constprop.0+0x7c>
70104096:	bf00      	nop
70104098:	56028000 	.word	0x56028000
7010409c:	03d09000 	.word	0x03d09000
701040a0:	003d0900 	.word	0x003d0900
701040a4:	016e3600 	.word	0x016e3600

701040a8 <RCCEx_GetSPDIFRXCLKFreq.constprop.0>:
701040a8:	b538      	push	{r3, r4, r5, lr}
701040aa:	4d2b      	ldr	r5, [pc, #172]	@ (70104158 <RCCEx_GetSPDIFRXCLKFreq.constprop.0+0xb0>)
701040ac:	f8d5 3164 	ldr.w	r3, [r5, #356]	@ 0x164
701040b0:	f003 0307 	and.w	r3, r3, #7
701040b4:	2b06      	cmp	r3, #6
701040b6:	d835      	bhi.n	70104124 <RCCEx_GetSPDIFRXCLKFreq.constprop.0+0x7c>
701040b8:	e8df f003 	tbb	[pc, r3]
701040bc:	28110d04 	.word	0x28110d04
701040c0:	3c45      	.short	0x3c45
701040c2:	4b          	.byte	0x4b
701040c3:	00          	.byte	0x00
701040c4:	f7fe f890 	bl	701021e8 <HAL_RCC_GetSysClockFreq>
701040c8:	f7fe f990 	bl	701023ec <RCCEx_GetHCLKFreq>
701040cc:	6a6b      	ldr	r3, [r5, #36]	@ 0x24
701040ce:	f003 0307 	and.w	r3, r3, #7
701040d2:	40d8      	lsrs	r0, r3
701040d4:	e027      	b.n	70104126 <RCCEx_GetSPDIFRXCLKFreq.constprop.0+0x7e>
701040d6:	e8bd 4038 	ldmia.w	sp!, {r3, r4, r5, lr}
701040da:	f7ff bf5f 	b.w	70103f9c <RCCEx_GetCLKPCLKFreq.constprop.0>
701040de:	f7fe f92b 	bl	70102338 <LL_RCC_IC7_IsEnabled>
701040e2:	b1f8      	cbz	r0, 70104124 <RCCEx_GetSPDIFRXCLKFreq.constprop.0+0x7c>
701040e4:	f7fe f930 	bl	70102348 <LL_RCC_IC7_GetDivider>
701040e8:	4604      	mov	r4, r0
701040ea:	f8d5 30dc 	ldr.w	r3, [r5, #220]	@ 0xdc
701040ee:	f003 5340 	and.w	r3, r3, #805306368	@ 0x30000000
701040f2:	f1b3 5f00 	cmp.w	r3, #536870912	@ 0x20000000
701040f6:	d017      	beq.n	70104128 <RCCEx_GetSPDIFRXCLKFreq.constprop.0+0x80>
701040f8:	d811      	bhi.n	7010411e <RCCEx_GetSPDIFRXCLKFreq.constprop.0+0x76>
701040fa:	b913      	cbnz	r3, 70104102 <RCCEx_GetSPDIFRXCLKFreq.constprop.0+0x5a>
701040fc:	f7ff fe4e 	bl	70103d9c <HAL_RCCEx_GetPLL1CLKFreq>
70104100:	e001      	b.n	70104106 <RCCEx_GetSPDIFRXCLKFreq.constprop.0+0x5e>
70104102:	f7ff fe8b 	bl	70103e1c <HAL_RCCEx_GetPLL2CLKFreq>
70104106:	fbb0 f0f4 	udiv	r0, r0, r4
7010410a:	e00c      	b.n	70104126 <RCCEx_GetSPDIFRXCLKFreq.constprop.0+0x7e>
7010410c:	f7fe f926 	bl	7010235c <LL_RCC_IC8_IsEnabled>
70104110:	b140      	cbz	r0, 70104124 <RCCEx_GetSPDIFRXCLKFreq.constprop.0+0x7c>
70104112:	f7fe f92b 	bl	7010236c <LL_RCC_IC8_GetDivider>
70104116:	f8d5 30e0 	ldr.w	r3, [r5, #224]	@ 0xe0
7010411a:	4604      	mov	r4, r0
7010411c:	e7e7      	b.n	701040ee <RCCEx_GetSPDIFRXCLKFreq.constprop.0+0x46>
7010411e:	f1b3 5f40 	cmp.w	r3, #805306368	@ 0x30000000
70104122:	d004      	beq.n	7010412e <RCCEx_GetSPDIFRXCLKFreq.constprop.0+0x86>
70104124:	2000      	movs	r0, #0
70104126:	bd38      	pop	{r3, r4, r5, pc}
70104128:	f7ff feb8 	bl	70103e9c <HAL_RCCEx_GetPLL3CLKFreq>
7010412c:	e7eb      	b.n	70104106 <RCCEx_GetSPDIFRXCLKFreq.constprop.0+0x5e>
7010412e:	f7ff fef5 	bl	70103f1c <HAL_RCCEx_GetPLL4CLKFreq>
70104132:	e7e8      	b.n	70104106 <RCCEx_GetSPDIFRXCLKFreq.constprop.0+0x5e>
70104134:	f7fe f8c8 	bl	701022c8 <LL_RCC_HSI_IsReady>
70104138:	2800      	cmp	r0, #0
7010413a:	d0f3      	beq.n	70104124 <RCCEx_GetSPDIFRXCLKFreq.constprop.0+0x7c>
7010413c:	6cab      	ldr	r3, [r5, #72]	@ 0x48
7010413e:	4807      	ldr	r0, [pc, #28]	@ (7010415c <RCCEx_GetSPDIFRXCLKFreq.constprop.0+0xb4>)
70104140:	f3c3 13c1 	ubfx	r3, r3, #7, #2
70104144:	e7c5      	b.n	701040d2 <RCCEx_GetSPDIFRXCLKFreq.constprop.0+0x2a>
70104146:	f7fe f8c7 	bl	701022d8 <LL_RCC_MSI_IsReady>
7010414a:	2800      	cmp	r0, #0
7010414c:	d0ea      	beq.n	70104124 <RCCEx_GetSPDIFRXCLKFreq.constprop.0+0x7c>
7010414e:	4804      	ldr	r0, [pc, #16]	@ (70104160 <RCCEx_GetSPDIFRXCLKFreq.constprop.0+0xb8>)
70104150:	e7e9      	b.n	70104126 <RCCEx_GetSPDIFRXCLKFreq.constprop.0+0x7e>
70104152:	4804      	ldr	r0, [pc, #16]	@ (70104164 <RCCEx_GetSPDIFRXCLKFreq.constprop.0+0xbc>)
70104154:	e7e7      	b.n	70104126 <RCCEx_GetSPDIFRXCLKFreq.constprop.0+0x7e>
70104156:	bf00      	nop
70104158:	56028000 	.word	0x56028000
7010415c:	03d09000 	.word	0x03d09000
70104160:	003d0900 	.word	0x003d0900
70104164:	00bb8000 	.word	0x00bb8000

70104168 <RCCEx_GetXSPICLKFreq>:
70104168:	b510      	push	{r4, lr}
7010416a:	f7fe f8d7 	bl	7010231c <LL_RCC_GetClockSource>
7010416e:	4b36      	ldr	r3, [pc, #216]	@ (70104248 <RCCEx_GetXSPICLKFreq+0xe0>)
70104170:	4298      	cmp	r0, r3
70104172:	d028      	beq.n	701041c6 <RCCEx_GetXSPICLKFreq+0x5e>
70104174:	d81b      	bhi.n	701041ae <RCCEx_GetXSPICLKFreq+0x46>
70104176:	f5a3 3380 	sub.w	r3, r3, #65536	@ 0x10000
7010417a:	4298      	cmp	r0, r3
7010417c:	d013      	beq.n	701041a6 <RCCEx_GetXSPICLKFreq+0x3e>
7010417e:	d80b      	bhi.n	70104198 <RCCEx_GetXSPICLKFreq+0x30>
70104180:	f420 6280 	bic.w	r2, r0, #1024	@ 0x400
70104184:	f5a3 3380 	sub.w	r3, r3, #65536	@ 0x10000
70104188:	429a      	cmp	r2, r3
7010418a:	d04a      	beq.n	70104222 <RCCEx_GetXSPICLKFreq+0xba>
7010418c:	f503 6300 	add.w	r3, r3, #2048	@ 0x800
70104190:	4298      	cmp	r0, r3
70104192:	d046      	beq.n	70104222 <RCCEx_GetXSPICLKFreq+0xba>
70104194:	2000      	movs	r0, #0
70104196:	bd10      	pop	{r4, pc}
70104198:	4b2c      	ldr	r3, [pc, #176]	@ (7010424c <RCCEx_GetXSPICLKFreq+0xe4>)
7010419a:	4298      	cmp	r0, r3
7010419c:	d003      	beq.n	701041a6 <RCCEx_GetXSPICLKFreq+0x3e>
7010419e:	f503 6380 	add.w	r3, r3, #1024	@ 0x400
701041a2:	4298      	cmp	r0, r3
701041a4:	d1f6      	bne.n	70104194 <RCCEx_GetXSPICLKFreq+0x2c>
701041a6:	e8bd 4010 	ldmia.w	sp!, {r4, lr}
701041aa:	f7ff bef7 	b.w	70103f9c <RCCEx_GetCLKPCLKFreq.constprop.0>
701041ae:	4b28      	ldr	r3, [pc, #160]	@ (70104250 <RCCEx_GetXSPICLKFreq+0xe8>)
701041b0:	4298      	cmp	r0, r3
701041b2:	d028      	beq.n	70104206 <RCCEx_GetXSPICLKFreq+0x9e>
701041b4:	d820      	bhi.n	701041f8 <RCCEx_GetXSPICLKFreq+0x90>
701041b6:	f5a3 437c 	sub.w	r3, r3, #64512	@ 0xfc00
701041ba:	4298      	cmp	r0, r3
701041bc:	d003      	beq.n	701041c6 <RCCEx_GetXSPICLKFreq+0x5e>
701041be:	f503 6380 	add.w	r3, r3, #1024	@ 0x400
701041c2:	4298      	cmp	r0, r3
701041c4:	d1e6      	bne.n	70104194 <RCCEx_GetXSPICLKFreq+0x2c>
701041c6:	4b23      	ldr	r3, [pc, #140]	@ (70104254 <RCCEx_GetXSPICLKFreq+0xec>)
701041c8:	f8d3 0240 	ldr.w	r0, [r3, #576]	@ 0x240
701041cc:	f010 0004 	ands.w	r0, r0, #4
701041d0:	d0e1      	beq.n	70104196 <RCCEx_GetXSPICLKFreq+0x2e>
701041d2:	f8d3 00cc 	ldr.w	r0, [r3, #204]	@ 0xcc
701041d6:	f8d3 30cc 	ldr.w	r3, [r3, #204]	@ 0xcc
701041da:	f3c0 4007 	ubfx	r0, r0, #16, #8
701041de:	1c44      	adds	r4, r0, #1
701041e0:	f003 5340 	and.w	r3, r3, #805306368	@ 0x30000000
701041e4:	f1b3 5f00 	cmp.w	r3, #536870912	@ 0x20000000
701041e8:	d02a      	beq.n	70104240 <RCCEx_GetXSPICLKFreq+0xd8>
701041ea:	d820      	bhi.n	7010422e <RCCEx_GetXSPICLKFreq+0xc6>
701041ec:	bb2b      	cbnz	r3, 7010423a <RCCEx_GetXSPICLKFreq+0xd2>
701041ee:	f7ff fdd5 	bl	70103d9c <HAL_RCCEx_GetPLL1CLKFreq>
701041f2:	fbb0 f0f4 	udiv	r0, r0, r4
701041f6:	e7ce      	b.n	70104196 <RCCEx_GetXSPICLKFreq+0x2e>
701041f8:	4b17      	ldr	r3, [pc, #92]	@ (70104258 <RCCEx_GetXSPICLKFreq+0xf0>)
701041fa:	4298      	cmp	r0, r3
701041fc:	d003      	beq.n	70104206 <RCCEx_GetXSPICLKFreq+0x9e>
701041fe:	f503 6380 	add.w	r3, r3, #1024	@ 0x400
70104202:	4298      	cmp	r0, r3
70104204:	d1c6      	bne.n	70104194 <RCCEx_GetXSPICLKFreq+0x2c>
70104206:	4b13      	ldr	r3, [pc, #76]	@ (70104254 <RCCEx_GetXSPICLKFreq+0xec>)
70104208:	f8d3 0240 	ldr.w	r0, [r3, #576]	@ 0x240
7010420c:	f010 0008 	ands.w	r0, r0, #8
70104210:	d0c1      	beq.n	70104196 <RCCEx_GetXSPICLKFreq+0x2e>
70104212:	f8d3 00d0 	ldr.w	r0, [r3, #208]	@ 0xd0
70104216:	f8d3 30d0 	ldr.w	r3, [r3, #208]	@ 0xd0
7010421a:	f3c0 4007 	ubfx	r0, r0, #16, #8
7010421e:	1c44      	adds	r4, r0, #1
70104220:	e7de      	b.n	701041e0 <RCCEx_GetXSPICLKFreq+0x78>
70104222:	f7fd ffe1 	bl	701021e8 <HAL_RCC_GetSysClockFreq>
70104226:	e8bd 4010 	ldmia.w	sp!, {r4, lr}
7010422a:	f7fe b8df 	b.w	701023ec <RCCEx_GetHCLKFreq>
7010422e:	f1b3 5f40 	cmp.w	r3, #805306368	@ 0x30000000
70104232:	d1af      	bne.n	70104194 <RCCEx_GetXSPICLKFreq+0x2c>
70104234:	f7ff fe72 	bl	70103f1c <HAL_RCCEx_GetPLL4CLKFreq>
70104238:	e7db      	b.n	701041f2 <RCCEx_GetXSPICLKFreq+0x8a>
7010423a:	f7ff fdef 	bl	70103e1c <HAL_RCCEx_GetPLL2CLKFreq>
7010423e:	e7d8      	b.n	701041f2 <RCCEx_GetXSPICLKFreq+0x8a>
70104240:	f7ff fe2c 	bl	70103e9c <HAL_RCCEx_GetPLL3CLKFreq>
70104244:	e7d5      	b.n	701041f2 <RCCEx_GetXSPICLKFreq+0x8a>
70104246:	bf00      	nop
70104248:	03020014 	.word	0x03020014
7010424c:	03010414 	.word	0x03010414
70104250:	03030014 	.word	0x03030014
70104254:	56028000 	.word	0x56028000
70104258:	03030414 	.word	0x03030414

7010425c <RCCEx_GetOTGPHYCLKFreq>:
7010425c:	b510      	push	{r4, lr}
7010425e:	f7fe f85d 	bl	7010231c <LL_RCC_GetClockSource>
70104262:	4b2b      	ldr	r3, [pc, #172]	@ (70104310 <RCCEx_GetOTGPHYCLKFreq+0xb4>)
70104264:	4298      	cmp	r0, r3
70104266:	d021      	beq.n	701042ac <RCCEx_GetOTGPHYCLKFreq+0x50>
70104268:	d815      	bhi.n	70104296 <RCCEx_GetOTGPHYCLKFreq+0x3a>
7010426a:	f5a3 3380 	sub.w	r3, r3, #65536	@ 0x10000
7010426e:	4298      	cmp	r0, r3
70104270:	d00d      	beq.n	7010428e <RCCEx_GetOTGPHYCLKFreq+0x32>
70104272:	d809      	bhi.n	70104288 <RCCEx_GetOTGPHYCLKFreq+0x2c>
70104274:	f5a3 3380 	sub.w	r3, r3, #65536	@ 0x10000
70104278:	4298      	cmp	r0, r3
7010427a:	d02d      	beq.n	701042d8 <RCCEx_GetOTGPHYCLKFreq+0x7c>
7010427c:	f503 6300 	add.w	r3, r3, #2048	@ 0x800
70104280:	4298      	cmp	r0, r3
70104282:	d029      	beq.n	701042d8 <RCCEx_GetOTGPHYCLKFreq+0x7c>
70104284:	2000      	movs	r0, #0
70104286:	bd10      	pop	{r4, pc}
70104288:	4b22      	ldr	r3, [pc, #136]	@ (70104314 <RCCEx_GetOTGPHYCLKFreq+0xb8>)
7010428a:	4298      	cmp	r0, r3
7010428c:	d1fa      	bne.n	70104284 <RCCEx_GetOTGPHYCLKFreq+0x28>
7010428e:	e8bd 4010 	ldmia.w	sp!, {r4, lr}
70104292:	f7ff be83 	b.w	70103f9c <RCCEx_GetCLKPCLKFreq.constprop.0>
70104296:	4b20      	ldr	r3, [pc, #128]	@ (70104318 <RCCEx_GetOTGPHYCLKFreq+0xbc>)
70104298:	4298      	cmp	r0, r3
7010429a:	d023      	beq.n	701042e4 <RCCEx_GetOTGPHYCLKFreq+0x88>
7010429c:	f503 6300 	add.w	r3, r3, #2048	@ 0x800
701042a0:	4298      	cmp	r0, r3
701042a2:	d01f      	beq.n	701042e4 <RCCEx_GetOTGPHYCLKFreq+0x88>
701042a4:	f5a3 3380 	sub.w	r3, r3, #65536	@ 0x10000
701042a8:	4298      	cmp	r0, r3
701042aa:	d1eb      	bne.n	70104284 <RCCEx_GetOTGPHYCLKFreq+0x28>
701042ac:	f7fe f88c 	bl	701023c8 <LL_RCC_IC15_IsEnabled>
701042b0:	2800      	cmp	r0, #0
701042b2:	d0e7      	beq.n	70104284 <RCCEx_GetOTGPHYCLKFreq+0x28>
701042b4:	f7fe f890 	bl	701023d8 <LL_RCC_IC15_GetDivider>
701042b8:	4b18      	ldr	r3, [pc, #96]	@ (7010431c <RCCEx_GetOTGPHYCLKFreq+0xc0>)
701042ba:	4604      	mov	r4, r0
701042bc:	f8d3 30fc 	ldr.w	r3, [r3, #252]	@ 0xfc
701042c0:	f003 5340 	and.w	r3, r3, #805306368	@ 0x30000000
701042c4:	f1b3 5f00 	cmp.w	r3, #536870912	@ 0x20000000
701042c8:	d01f      	beq.n	7010430a <RCCEx_GetOTGPHYCLKFreq+0xae>
701042ca:	d815      	bhi.n	701042f8 <RCCEx_GetOTGPHYCLKFreq+0x9c>
701042cc:	b9d3      	cbnz	r3, 70104304 <RCCEx_GetOTGPHYCLKFreq+0xa8>
701042ce:	f7ff fd65 	bl	70103d9c <HAL_RCCEx_GetPLL1CLKFreq>
701042d2:	fbb0 f0f4 	udiv	r0, r0, r4
701042d6:	e7d6      	b.n	70104286 <RCCEx_GetOTGPHYCLKFreq+0x2a>
701042d8:	f7fd ffee 	bl	701022b8 <LL_RCC_HSE_IsReady>
701042dc:	2800      	cmp	r0, #0
701042de:	d0d1      	beq.n	70104284 <RCCEx_GetOTGPHYCLKFreq+0x28>
701042e0:	480f      	ldr	r0, [pc, #60]	@ (70104320 <RCCEx_GetOTGPHYCLKFreq+0xc4>)
701042e2:	e7d0      	b.n	70104286 <RCCEx_GetOTGPHYCLKFreq+0x2a>
701042e4:	f7fd ffe8 	bl	701022b8 <LL_RCC_HSE_IsReady>
701042e8:	2800      	cmp	r0, #0
701042ea:	d0cb      	beq.n	70104284 <RCCEx_GetOTGPHYCLKFreq+0x28>
701042ec:	f7fd ffdc 	bl	701022a8 <LL_RCC_HSE_IsSelectedHSEDiv2AsDiv2Clock>
701042f0:	2800      	cmp	r0, #0
701042f2:	d1f5      	bne.n	701042e0 <RCCEx_GetOTGPHYCLKFreq+0x84>
701042f4:	480b      	ldr	r0, [pc, #44]	@ (70104324 <RCCEx_GetOTGPHYCLKFreq+0xc8>)
701042f6:	e7c6      	b.n	70104286 <RCCEx_GetOTGPHYCLKFreq+0x2a>
701042f8:	f1b3 5f40 	cmp.w	r3, #805306368	@ 0x30000000
701042fc:	d1c2      	bne.n	70104284 <RCCEx_GetOTGPHYCLKFreq+0x28>
701042fe:	f7ff fe0d 	bl	70103f1c <HAL_RCCEx_GetPLL4CLKFreq>
70104302:	e7e6      	b.n	701042d2 <RCCEx_GetOTGPHYCLKFreq+0x76>
70104304:	f7ff fd8a 	bl	70103e1c <HAL_RCCEx_GetPLL2CLKFreq>
70104308:	e7e3      	b.n	701042d2 <RCCEx_GetOTGPHYCLKFreq+0x76>
7010430a:	f7ff fdc7 	bl	70103e9c <HAL_RCCEx_GetPLL3CLKFreq>
7010430e:	e7e0      	b.n	701042d2 <RCCEx_GetOTGPHYCLKFreq+0x76>
70104310:	03020c14 	.word	0x03020c14
70104314:	03011414 	.word	0x03011414
70104318:	03030c14 	.word	0x03030c14
7010431c:	56028000 	.word	0x56028000
70104320:	00b71b00 	.word	0x00b71b00
70104324:	016e3600 	.word	0x016e3600

70104328 <RCCEx_GetOTGPHYCKREFCLKFreq>:
70104328:	b508      	push	{r3, lr}
7010432a:	f7fd fff7 	bl	7010231c <LL_RCC_GetClockSource>
7010432e:	4b10      	ldr	r3, [pc, #64]	@ (70104370 <RCCEx_GetOTGPHYCKREFCLKFreq+0x48>)
70104330:	4298      	cmp	r0, r3
70104332:	d019      	beq.n	70104368 <RCCEx_GetOTGPHYCKREFCLKFreq+0x40>
70104334:	d805      	bhi.n	70104342 <RCCEx_GetOTGPHYCKREFCLKFreq+0x1a>
70104336:	f5a3 6300 	sub.w	r3, r3, #2048	@ 0x800
7010433a:	4298      	cmp	r0, r3
7010433c:	d00f      	beq.n	7010435e <RCCEx_GetOTGPHYCKREFCLKFreq+0x36>
7010433e:	2000      	movs	r0, #0
70104340:	bd08      	pop	{r3, pc}
70104342:	4b0c      	ldr	r3, [pc, #48]	@ (70104374 <RCCEx_GetOTGPHYCKREFCLKFreq+0x4c>)
70104344:	f420 6000 	bic.w	r0, r0, #2048	@ 0x800
70104348:	4298      	cmp	r0, r3
7010434a:	d1f8      	bne.n	7010433e <RCCEx_GetOTGPHYCKREFCLKFreq+0x16>
7010434c:	f7fd ffb4 	bl	701022b8 <LL_RCC_HSE_IsReady>
70104350:	2800      	cmp	r0, #0
70104352:	d0f4      	beq.n	7010433e <RCCEx_GetOTGPHYCKREFCLKFreq+0x16>
70104354:	f7fd ffa8 	bl	701022a8 <LL_RCC_HSE_IsSelectedHSEDiv2AsDiv2Clock>
70104358:	b940      	cbnz	r0, 7010436c <RCCEx_GetOTGPHYCKREFCLKFreq+0x44>
7010435a:	4807      	ldr	r0, [pc, #28]	@ (70104378 <RCCEx_GetOTGPHYCKREFCLKFreq+0x50>)
7010435c:	e7f0      	b.n	70104340 <RCCEx_GetOTGPHYCKREFCLKFreq+0x18>
7010435e:	4807      	ldr	r0, [pc, #28]	@ (7010437c <RCCEx_GetOTGPHYCKREFCLKFreq+0x54>)
70104360:	e8bd 4008 	ldmia.w	sp!, {r3, lr}
70104364:	f7ff bf7a 	b.w	7010425c <RCCEx_GetOTGPHYCLKFreq>
70104368:	4805      	ldr	r0, [pc, #20]	@ (70104380 <RCCEx_GetOTGPHYCKREFCLKFreq+0x58>)
7010436a:	e7f9      	b.n	70104360 <RCCEx_GetOTGPHYCKREFCLKFreq+0x38>
7010436c:	4805      	ldr	r0, [pc, #20]	@ (70104384 <RCCEx_GetOTGPHYCKREFCLKFreq+0x5c>)
7010436e:	e7e7      	b.n	70104340 <RCCEx_GetOTGPHYCKREFCLKFreq+0x18>
70104370:	01001814 	.word	0x01001814
70104374:	01011014 	.word	0x01011014
70104378:	016e3600 	.word	0x016e3600
7010437c:	03000c14 	.word	0x03000c14
70104380:	03001414 	.word	0x03001414
70104384:	00b71b00 	.word	0x00b71b00

70104388 <RCCEx_GetUSARTCLKFreq>:
70104388:	b510      	push	{r4, lr}
7010438a:	f7fd ffc7 	bl	7010231c <LL_RCC_GetClockSource>
7010438e:	4b6d      	ldr	r3, [pc, #436]	@ (70104544 <RCCEx_GetUSARTCLKFreq+0x1bc>)
70104390:	4298      	cmp	r0, r3
70104392:	d039      	beq.n	70104408 <RCCEx_GetUSARTCLKFreq+0x80>
70104394:	d851      	bhi.n	7010443a <RCCEx_GetUSARTCLKFreq+0xb2>
70104396:	f5a3 3300 	sub.w	r3, r3, #131072	@ 0x20000
7010439a:	4298      	cmp	r0, r3
7010439c:	f000 80b1 	beq.w	70104502 <RCCEx_GetUSARTCLKFreq+0x17a>
701043a0:	d813      	bhi.n	701043ca <RCCEx_GetUSARTCLKFreq+0x42>
701043a2:	f6a3 73fc 	subw	r3, r3, #4092	@ 0xffc
701043a6:	4298      	cmp	r0, r3
701043a8:	f000 80ab 	beq.w	70104502 <RCCEx_GetUSARTCLKFreq+0x17a>
701043ac:	d80b      	bhi.n	701043c6 <RCCEx_GetUSARTCLKFreq+0x3e>
701043ae:	f2a3 4304 	subw	r3, r3, #1028	@ 0x404
701043b2:	4298      	cmp	r0, r3
701043b4:	f000 80a5 	beq.w	70104502 <RCCEx_GetUSARTCLKFreq+0x17a>
701043b8:	f503 6380 	add.w	r3, r3, #1024	@ 0x400
701043bc:	4298      	cmp	r0, r3
701043be:	f000 80aa 	beq.w	70104516 <RCCEx_GetUSARTCLKFreq+0x18e>
701043c2:	2000      	movs	r0, #0
701043c4:	bd10      	pop	{r4, pc}
701043c6:	4b60      	ldr	r3, [pc, #384]	@ (70104548 <RCCEx_GetUSARTCLKFreq+0x1c0>)
701043c8:	e7f8      	b.n	701043bc <RCCEx_GetUSARTCLKFreq+0x34>
701043ca:	4b60      	ldr	r3, [pc, #384]	@ (7010454c <RCCEx_GetUSARTCLKFreq+0x1c4>)
701043cc:	4298      	cmp	r0, r3
701043ce:	d00c      	beq.n	701043ea <RCCEx_GetUSARTCLKFreq+0x62>
701043d0:	d80f      	bhi.n	701043f2 <RCCEx_GetUSARTCLKFreq+0x6a>
701043d2:	f6a3 73fc 	subw	r3, r3, #4092	@ 0xffc
701043d6:	4298      	cmp	r0, r3
701043d8:	d007      	beq.n	701043ea <RCCEx_GetUSARTCLKFreq+0x62>
701043da:	bf8e      	itee	hi
701043dc:	4b5c      	ldrhi	r3, [pc, #368]	@ (70104550 <RCCEx_GetUSARTCLKFreq+0x1c8>)
701043de:	f420 6080 	bicls.w	r0, r0, #1024	@ 0x400
701043e2:	f2a3 4304 	subwls	r3, r3, #1028	@ 0x404
701043e6:	4298      	cmp	r0, r3
701043e8:	d1eb      	bne.n	701043c2 <RCCEx_GetUSARTCLKFreq+0x3a>
701043ea:	e8bd 4010 	ldmia.w	sp!, {r4, lr}
701043ee:	f7ff bdd5 	b.w	70103f9c <RCCEx_GetCLKPCLKFreq.constprop.0>
701043f2:	4b58      	ldr	r3, [pc, #352]	@ (70104554 <RCCEx_GetUSARTCLKFreq+0x1cc>)
701043f4:	4298      	cmp	r0, r3
701043f6:	d007      	beq.n	70104408 <RCCEx_GetUSARTCLKFreq+0x80>
701043f8:	bf8e      	itee	hi
701043fa:	4b57      	ldrhi	r3, [pc, #348]	@ (70104558 <RCCEx_GetUSARTCLKFreq+0x1d0>)
701043fc:	f420 6080 	bicls.w	r0, r0, #1024	@ 0x400
70104400:	f2a3 4304 	subwls	r3, r3, #1028	@ 0x404
70104404:	4298      	cmp	r0, r3
70104406:	d1dc      	bne.n	701043c2 <RCCEx_GetUSARTCLKFreq+0x3a>
70104408:	f7fd ffba 	bl	70102380 <LL_RCC_IC9_IsEnabled>
7010440c:	2800      	cmp	r0, #0
7010440e:	d0d8      	beq.n	701043c2 <RCCEx_GetUSARTCLKFreq+0x3a>
70104410:	f7fd ffbe 	bl	70102390 <LL_RCC_IC9_GetDivider>
70104414:	4604      	mov	r4, r0
70104416:	4b51      	ldr	r3, [pc, #324]	@ (7010455c <RCCEx_GetUSARTCLKFreq+0x1d4>)
70104418:	f8d3 30e4 	ldr.w	r3, [r3, #228]	@ 0xe4
7010441c:	f003 5340 	and.w	r3, r3, #805306368	@ 0x30000000
70104420:	f1b3 5f00 	cmp.w	r3, #536870912	@ 0x20000000
70104424:	f000 808a 	beq.w	7010453c <RCCEx_GetUSARTCLKFreq+0x1b4>
70104428:	d87e      	bhi.n	70104528 <RCCEx_GetUSARTCLKFreq+0x1a0>
7010442a:	2b00      	cmp	r3, #0
7010442c:	f040 8083 	bne.w	70104536 <RCCEx_GetUSARTCLKFreq+0x1ae>
70104430:	f7ff fcb4 	bl	70103d9c <HAL_RCCEx_GetPLL1CLKFreq>
70104434:	fbb0 f0f4 	udiv	r0, r0, r4
70104438:	e7c4      	b.n	701043c4 <RCCEx_GetUSARTCLKFreq+0x3c>
7010443a:	4b49      	ldr	r3, [pc, #292]	@ (70104560 <RCCEx_GetUSARTCLKFreq+0x1d8>)
7010443c:	4298      	cmp	r0, r3
7010443e:	d042      	beq.n	701044c6 <RCCEx_GetUSARTCLKFreq+0x13e>
70104440:	d830      	bhi.n	701044a4 <RCCEx_GetUSARTCLKFreq+0x11c>
70104442:	f5a3 3380 	sub.w	r3, r3, #65536	@ 0x10000
70104446:	4298      	cmp	r0, r3
70104448:	d028      	beq.n	7010449c <RCCEx_GetUSARTCLKFreq+0x114>
7010444a:	d81c      	bhi.n	70104486 <RCCEx_GetUSARTCLKFreq+0xfe>
7010444c:	f5a3 437b 	sub.w	r3, r3, #64256	@ 0xfb00
70104450:	3bfc      	subs	r3, #252	@ 0xfc
70104452:	4298      	cmp	r0, r3
70104454:	d006      	beq.n	70104464 <RCCEx_GetUSARTCLKFreq+0xdc>
70104456:	d810      	bhi.n	7010447a <RCCEx_GetUSARTCLKFreq+0xf2>
70104458:	f420 6080 	bic.w	r0, r0, #1024	@ 0x400
7010445c:	f2a3 4304 	subw	r3, r3, #1028	@ 0x404
70104460:	4298      	cmp	r0, r3
70104462:	d1ae      	bne.n	701043c2 <RCCEx_GetUSARTCLKFreq+0x3a>
70104464:	f7fd ff9e 	bl	701023a4 <LL_RCC_IC14_IsEnabled>
70104468:	2800      	cmp	r0, #0
7010446a:	d0aa      	beq.n	701043c2 <RCCEx_GetUSARTCLKFreq+0x3a>
7010446c:	f7fd ffa2 	bl	701023b4 <LL_RCC_IC14_GetDivider>
70104470:	4b3a      	ldr	r3, [pc, #232]	@ (7010455c <RCCEx_GetUSARTCLKFreq+0x1d4>)
70104472:	4604      	mov	r4, r0
70104474:	f8d3 30f8 	ldr.w	r3, [r3, #248]	@ 0xf8
70104478:	e7d0      	b.n	7010441c <RCCEx_GetUSARTCLKFreq+0x94>
7010447a:	4b3a      	ldr	r3, [pc, #232]	@ (70104564 <RCCEx_GetUSARTCLKFreq+0x1dc>)
7010447c:	4298      	cmp	r0, r3
7010447e:	d0f1      	beq.n	70104464 <RCCEx_GetUSARTCLKFreq+0xdc>
70104480:	f503 6340 	add.w	r3, r3, #3072	@ 0xc00
70104484:	e7ec      	b.n	70104460 <RCCEx_GetUSARTCLKFreq+0xd8>
70104486:	4b38      	ldr	r3, [pc, #224]	@ (70104568 <RCCEx_GetUSARTCLKFreq+0x1e0>)
70104488:	4298      	cmp	r0, r3
7010448a:	d007      	beq.n	7010449c <RCCEx_GetUSARTCLKFreq+0x114>
7010448c:	bf8e      	itee	hi
7010448e:	4b37      	ldrhi	r3, [pc, #220]	@ (7010456c <RCCEx_GetUSARTCLKFreq+0x1e4>)
70104490:	f020 0004 	bicls.w	r0, r0, #4
70104494:	f5a3 6380 	subls.w	r3, r3, #1024	@ 0x400
70104498:	4298      	cmp	r0, r3
7010449a:	d192      	bne.n	701043c2 <RCCEx_GetUSARTCLKFreq+0x3a>
7010449c:	f7fd ff24 	bl	701022e8 <LL_RCC_LSE_IsReady>
701044a0:	03c0      	lsls	r0, r0, #15
701044a2:	e78f      	b.n	701043c4 <RCCEx_GetUSARTCLKFreq+0x3c>
701044a4:	4b32      	ldr	r3, [pc, #200]	@ (70104570 <RCCEx_GetUSARTCLKFreq+0x1e8>)
701044a6:	4298      	cmp	r0, r3
701044a8:	d020      	beq.n	701044ec <RCCEx_GetUSARTCLKFreq+0x164>
701044aa:	d813      	bhi.n	701044d4 <RCCEx_GetUSARTCLKFreq+0x14c>
701044ac:	f5a3 4378 	sub.w	r3, r3, #63488	@ 0xf800
701044b0:	4298      	cmp	r0, r3
701044b2:	d008      	beq.n	701044c6 <RCCEx_GetUSARTCLKFreq+0x13e>
701044b4:	bf8e      	itee	hi
701044b6:	4b2f      	ldrhi	r3, [pc, #188]	@ (70104574 <RCCEx_GetUSARTCLKFreq+0x1ec>)
701044b8:	f020 0004 	bicls.w	r0, r0, #4
701044bc:	f5a3 6380 	subls.w	r3, r3, #1024	@ 0x400
701044c0:	4298      	cmp	r0, r3
701044c2:	f47f af7e 	bne.w	701043c2 <RCCEx_GetUSARTCLKFreq+0x3a>
701044c6:	f7fd ff07 	bl	701022d8 <LL_RCC_MSI_IsReady>
701044ca:	2800      	cmp	r0, #0
701044cc:	f43f af79 	beq.w	701043c2 <RCCEx_GetUSARTCLKFreq+0x3a>
701044d0:	4829      	ldr	r0, [pc, #164]	@ (70104578 <RCCEx_GetUSARTCLKFreq+0x1f0>)
701044d2:	e777      	b.n	701043c4 <RCCEx_GetUSARTCLKFreq+0x3c>
701044d4:	4b29      	ldr	r3, [pc, #164]	@ (7010457c <RCCEx_GetUSARTCLKFreq+0x1f4>)
701044d6:	4298      	cmp	r0, r3
701044d8:	d008      	beq.n	701044ec <RCCEx_GetUSARTCLKFreq+0x164>
701044da:	bf8e      	itee	hi
701044dc:	4b28      	ldrhi	r3, [pc, #160]	@ (70104580 <RCCEx_GetUSARTCLKFreq+0x1f8>)
701044de:	f020 0004 	bicls.w	r0, r0, #4
701044e2:	f5a3 6380 	subls.w	r3, r3, #1024	@ 0x400
701044e6:	4298      	cmp	r0, r3
701044e8:	f47f af6b 	bne.w	701043c2 <RCCEx_GetUSARTCLKFreq+0x3a>
701044ec:	f7fd feec 	bl	701022c8 <LL_RCC_HSI_IsReady>
701044f0:	2800      	cmp	r0, #0
701044f2:	f43f af66 	beq.w	701043c2 <RCCEx_GetUSARTCLKFreq+0x3a>
701044f6:	4b19      	ldr	r3, [pc, #100]	@ (7010455c <RCCEx_GetUSARTCLKFreq+0x1d4>)
701044f8:	4822      	ldr	r0, [pc, #136]	@ (70104584 <RCCEx_GetUSARTCLKFreq+0x1fc>)
701044fa:	6c9b      	ldr	r3, [r3, #72]	@ 0x48
701044fc:	f3c3 13c1 	ubfx	r3, r3, #7, #2
70104500:	e007      	b.n	70104512 <RCCEx_GetUSARTCLKFreq+0x18a>
70104502:	f7fd fe71 	bl	701021e8 <HAL_RCC_GetSysClockFreq>
70104506:	f7fd ff71 	bl	701023ec <RCCEx_GetHCLKFreq>
7010450a:	4b14      	ldr	r3, [pc, #80]	@ (7010455c <RCCEx_GetUSARTCLKFreq+0x1d4>)
7010450c:	6a5b      	ldr	r3, [r3, #36]	@ 0x24
7010450e:	f3c3 1302 	ubfx	r3, r3, #4, #3
70104512:	40d8      	lsrs	r0, r3
70104514:	e756      	b.n	701043c4 <RCCEx_GetUSARTCLKFreq+0x3c>
70104516:	f7fd fe67 	bl	701021e8 <HAL_RCC_GetSysClockFreq>
7010451a:	f7fd ff67 	bl	701023ec <RCCEx_GetHCLKFreq>
7010451e:	4b0f      	ldr	r3, [pc, #60]	@ (7010455c <RCCEx_GetUSARTCLKFreq+0x1d4>)
70104520:	6a5b      	ldr	r3, [r3, #36]	@ 0x24
70104522:	f003 0307 	and.w	r3, r3, #7
70104526:	e7f4      	b.n	70104512 <RCCEx_GetUSARTCLKFreq+0x18a>
70104528:	f1b3 5f40 	cmp.w	r3, #805306368	@ 0x30000000
7010452c:	f47f af49 	bne.w	701043c2 <RCCEx_GetUSARTCLKFreq+0x3a>
70104530:	f7ff fcf4 	bl	70103f1c <HAL_RCCEx_GetPLL4CLKFreq>
70104534:	e77e      	b.n	70104434 <RCCEx_GetUSARTCLKFreq+0xac>
70104536:	f7ff fc71 	bl	70103e1c <HAL_RCCEx_GetPLL2CLKFreq>
7010453a:	e77b      	b.n	70104434 <RCCEx_GetUSARTCLKFreq+0xac>
7010453c:	f7ff fcae 	bl	70103e9c <HAL_RCCEx_GetPLL3CLKFreq>
70104540:	e778      	b.n	70104434 <RCCEx_GetUSARTCLKFreq+0xac>
70104542:	bf00      	nop
70104544:	07021430 	.word	0x07021430
70104548:	07000830 	.word	0x07000830
7010454c:	07011430 	.word	0x07011430
70104550:	07010830 	.word	0x07010830
70104554:	07020434 	.word	0x07020434
70104558:	07020830 	.word	0x07020830
7010455c:	56028000 	.word	0x56028000
70104560:	07050030 	.word	0x07050030
70104564:	07030830 	.word	0x07030830
70104568:	07040830 	.word	0x07040830
7010456c:	07041430 	.word	0x07041430
70104570:	07060030 	.word	0x07060030
70104574:	07051430 	.word	0x07051430
70104578:	003d0900 	.word	0x003d0900
7010457c:	07060830 	.word	0x07060830
70104580:	07061430 	.word	0x07061430
70104584:	03d09000 	.word	0x03d09000

70104588 <RCCEx_GetUARTCLKFreq>:
70104588:	b510      	push	{r4, lr}
7010458a:	f7fd fec7 	bl	7010231c <LL_RCC_GetClockSource>
7010458e:	4b76      	ldr	r3, [pc, #472]	@ (70104768 <RCCEx_GetUARTCLKFreq+0x1e0>)
70104590:	4298      	cmp	r0, r3
70104592:	d03e      	beq.n	70104612 <RCCEx_GetUARTCLKFreq+0x8a>
70104594:	d859      	bhi.n	7010464a <RCCEx_GetUARTCLKFreq+0xc2>
70104596:	f5a3 3300 	sub.w	r3, r3, #131072	@ 0x20000
7010459a:	4298      	cmp	r0, r3
7010459c:	f000 80c3 	beq.w	70104726 <RCCEx_GetUARTCLKFreq+0x19e>
701045a0:	d814      	bhi.n	701045cc <RCCEx_GetUARTCLKFreq+0x44>
701045a2:	4b72      	ldr	r3, [pc, #456]	@ (7010476c <RCCEx_GetUARTCLKFreq+0x1e4>)
701045a4:	4298      	cmp	r0, r3
701045a6:	f000 80c8 	beq.w	7010473a <RCCEx_GetUARTCLKFreq+0x1b2>
701045aa:	3b01      	subs	r3, #1
701045ac:	4298      	cmp	r0, r3
701045ae:	d90b      	bls.n	701045c8 <RCCEx_GetUARTCLKFreq+0x40>
701045b0:	f420 6200 	bic.w	r2, r0, #2048	@ 0x800
701045b4:	f603 73fd 	addw	r3, r3, #4093	@ 0xffd
701045b8:	429a      	cmp	r2, r3
701045ba:	f000 80b4 	beq.w	70104726 <RCCEx_GetUARTCLKFreq+0x19e>
701045be:	f5a3 6380 	sub.w	r3, r3, #1024	@ 0x400
701045c2:	4298      	cmp	r0, r3
701045c4:	f000 80af 	beq.w	70104726 <RCCEx_GetUARTCLKFreq+0x19e>
701045c8:	2000      	movs	r0, #0
701045ca:	bd10      	pop	{r4, pc}
701045cc:	4b68      	ldr	r3, [pc, #416]	@ (70104770 <RCCEx_GetUARTCLKFreq+0x1e8>)
701045ce:	4298      	cmp	r0, r3
701045d0:	d00d      	beq.n	701045ee <RCCEx_GetUARTCLKFreq+0x66>
701045d2:	d812      	bhi.n	701045fa <RCCEx_GetUARTCLKFreq+0x72>
701045d4:	f5a3 6340 	sub.w	r3, r3, #3072	@ 0xc00
701045d8:	4298      	cmp	r0, r3
701045da:	d008      	beq.n	701045ee <RCCEx_GetUARTCLKFreq+0x66>
701045dc:	d80b      	bhi.n	701045f6 <RCCEx_GetUARTCLKFreq+0x6e>
701045de:	f6a3 73fc 	subw	r3, r3, #4092	@ 0xffc
701045e2:	4298      	cmp	r0, r3
701045e4:	d003      	beq.n	701045ee <RCCEx_GetUARTCLKFreq+0x66>
701045e6:	f603 33fc 	addw	r3, r3, #3068	@ 0xbfc
701045ea:	4298      	cmp	r0, r3
701045ec:	d1ec      	bne.n	701045c8 <RCCEx_GetUARTCLKFreq+0x40>
701045ee:	e8bd 4010 	ldmia.w	sp!, {r4, lr}
701045f2:	f7ff bcd3 	b.w	70103f9c <RCCEx_GetCLKPCLKFreq.constprop.0>
701045f6:	4b5f      	ldr	r3, [pc, #380]	@ (70104774 <RCCEx_GetUARTCLKFreq+0x1ec>)
701045f8:	e7f7      	b.n	701045ea <RCCEx_GetUARTCLKFreq+0x62>
701045fa:	4b5f      	ldr	r3, [pc, #380]	@ (70104778 <RCCEx_GetUARTCLKFreq+0x1f0>)
701045fc:	4298      	cmp	r0, r3
701045fe:	d008      	beq.n	70104612 <RCCEx_GetUARTCLKFreq+0x8a>
70104600:	d821      	bhi.n	70104646 <RCCEx_GetUARTCLKFreq+0xbe>
70104602:	f6a3 73fc 	subw	r3, r3, #4092	@ 0xffc
70104606:	4298      	cmp	r0, r3
70104608:	d003      	beq.n	70104612 <RCCEx_GetUARTCLKFreq+0x8a>
7010460a:	f603 33fc 	addw	r3, r3, #3068	@ 0xbfc
7010460e:	4298      	cmp	r0, r3
70104610:	d1da      	bne.n	701045c8 <RCCEx_GetUARTCLKFreq+0x40>
70104612:	f7fd feb5 	bl	70102380 <LL_RCC_IC9_IsEnabled>
70104616:	2800      	cmp	r0, #0
70104618:	d0d6      	beq.n	701045c8 <RCCEx_GetUARTCLKFreq+0x40>
7010461a:	f7fd feb9 	bl	70102390 <LL_RCC_IC9_GetDivider>
7010461e:	4604      	mov	r4, r0
70104620:	4b56      	ldr	r3, [pc, #344]	@ (7010477c <RCCEx_GetUARTCLKFreq+0x1f4>)
70104622:	f8d3 30e4 	ldr.w	r3, [r3, #228]	@ 0xe4
70104626:	f003 5340 	and.w	r3, r3, #805306368	@ 0x30000000
7010462a:	f1b3 5f00 	cmp.w	r3, #536870912	@ 0x20000000
7010462e:	f000 8097 	beq.w	70104760 <RCCEx_GetUARTCLKFreq+0x1d8>
70104632:	f200 808b 	bhi.w	7010474c <RCCEx_GetUARTCLKFreq+0x1c4>
70104636:	2b00      	cmp	r3, #0
70104638:	f040 808f 	bne.w	7010475a <RCCEx_GetUARTCLKFreq+0x1d2>
7010463c:	f7ff fbae 	bl	70103d9c <HAL_RCCEx_GetPLL1CLKFreq>
70104640:	fbb0 f0f4 	udiv	r0, r0, r4
70104644:	e7c1      	b.n	701045ca <RCCEx_GetUARTCLKFreq+0x42>
70104646:	4b4e      	ldr	r3, [pc, #312]	@ (70104780 <RCCEx_GetUARTCLKFreq+0x1f8>)
70104648:	e7e1      	b.n	7010460e <RCCEx_GetUARTCLKFreq+0x86>
7010464a:	4b4e      	ldr	r3, [pc, #312]	@ (70104784 <RCCEx_GetUARTCLKFreq+0x1fc>)
7010464c:	4298      	cmp	r0, r3
7010464e:	d047      	beq.n	701046e0 <RCCEx_GetUARTCLKFreq+0x158>
70104650:	d833      	bhi.n	701046ba <RCCEx_GetUARTCLKFreq+0x132>
70104652:	f5a3 3380 	sub.w	r3, r3, #65536	@ 0x10000
70104656:	4298      	cmp	r0, r3
70104658:	d029      	beq.n	701046ae <RCCEx_GetUARTCLKFreq+0x126>
7010465a:	d81c      	bhi.n	70104696 <RCCEx_GetUARTCLKFreq+0x10e>
7010465c:	f5a3 4370 	sub.w	r3, r3, #61440	@ 0xf000
70104660:	3b04      	subs	r3, #4
70104662:	4298      	cmp	r0, r3
70104664:	d008      	beq.n	70104678 <RCCEx_GetUARTCLKFreq+0xf0>
70104666:	d812      	bhi.n	7010468e <RCCEx_GetUARTCLKFreq+0x106>
70104668:	f6a3 73fc 	subw	r3, r3, #4092	@ 0xffc
7010466c:	4298      	cmp	r0, r3
7010466e:	d003      	beq.n	70104678 <RCCEx_GetUARTCLKFreq+0xf0>
70104670:	f603 33fc 	addw	r3, r3, #3068	@ 0xbfc
70104674:	4298      	cmp	r0, r3
70104676:	d1a7      	bne.n	701045c8 <RCCEx_GetUARTCLKFreq+0x40>
70104678:	f7fd fe94 	bl	701023a4 <LL_RCC_IC14_IsEnabled>
7010467c:	2800      	cmp	r0, #0
7010467e:	d0a3      	beq.n	701045c8 <RCCEx_GetUARTCLKFreq+0x40>
70104680:	f7fd fe98 	bl	701023b4 <LL_RCC_IC14_GetDivider>
70104684:	4b3d      	ldr	r3, [pc, #244]	@ (7010477c <RCCEx_GetUARTCLKFreq+0x1f4>)
70104686:	4604      	mov	r4, r0
70104688:	f8d3 30f8 	ldr.w	r3, [r3, #248]	@ 0xf8
7010468c:	e7cb      	b.n	70104626 <RCCEx_GetUARTCLKFreq+0x9e>
7010468e:	4b3e      	ldr	r3, [pc, #248]	@ (70104788 <RCCEx_GetUARTCLKFreq+0x200>)
70104690:	f420 6080 	bic.w	r0, r0, #1024	@ 0x400
70104694:	e7ee      	b.n	70104674 <RCCEx_GetUARTCLKFreq+0xec>
70104696:	4b3d      	ldr	r3, [pc, #244]	@ (7010478c <RCCEx_GetUARTCLKFreq+0x204>)
70104698:	4298      	cmp	r0, r3
7010469a:	d008      	beq.n	701046ae <RCCEx_GetUARTCLKFreq+0x126>
7010469c:	d80b      	bhi.n	701046b6 <RCCEx_GetUARTCLKFreq+0x12e>
7010469e:	f5a3 6340 	sub.w	r3, r3, #3072	@ 0xc00
701046a2:	4298      	cmp	r0, r3
701046a4:	d003      	beq.n	701046ae <RCCEx_GetUARTCLKFreq+0x126>
701046a6:	f503 6380 	add.w	r3, r3, #1024	@ 0x400
701046aa:	4298      	cmp	r0, r3
701046ac:	d18c      	bne.n	701045c8 <RCCEx_GetUARTCLKFreq+0x40>
701046ae:	f7fd fe1b 	bl	701022e8 <LL_RCC_LSE_IsReady>
701046b2:	03c0      	lsls	r0, r0, #15
701046b4:	e789      	b.n	701045ca <RCCEx_GetUARTCLKFreq+0x42>
701046b6:	4b36      	ldr	r3, [pc, #216]	@ (70104790 <RCCEx_GetUARTCLKFreq+0x208>)
701046b8:	e7f7      	b.n	701046aa <RCCEx_GetUARTCLKFreq+0x122>
701046ba:	4b36      	ldr	r3, [pc, #216]	@ (70104794 <RCCEx_GetUARTCLKFreq+0x20c>)
701046bc:	4298      	cmp	r0, r3
701046be:	d025      	beq.n	7010470c <RCCEx_GetUARTCLKFreq+0x184>
701046c0:	d817      	bhi.n	701046f2 <RCCEx_GetUARTCLKFreq+0x16a>
701046c2:	f5a3 4368 	sub.w	r3, r3, #59392	@ 0xe800
701046c6:	3b04      	subs	r3, #4
701046c8:	4298      	cmp	r0, r3
701046ca:	d009      	beq.n	701046e0 <RCCEx_GetUARTCLKFreq+0x158>
701046cc:	d80f      	bhi.n	701046ee <RCCEx_GetUARTCLKFreq+0x166>
701046ce:	f5a3 6340 	sub.w	r3, r3, #3072	@ 0xc00
701046d2:	4298      	cmp	r0, r3
701046d4:	d004      	beq.n	701046e0 <RCCEx_GetUARTCLKFreq+0x158>
701046d6:	f503 6380 	add.w	r3, r3, #1024	@ 0x400
701046da:	4298      	cmp	r0, r3
701046dc:	f47f af74 	bne.w	701045c8 <RCCEx_GetUARTCLKFreq+0x40>
701046e0:	f7fd fdfa 	bl	701022d8 <LL_RCC_MSI_IsReady>
701046e4:	2800      	cmp	r0, #0
701046e6:	f43f af6f 	beq.w	701045c8 <RCCEx_GetUARTCLKFreq+0x40>
701046ea:	482b      	ldr	r0, [pc, #172]	@ (70104798 <RCCEx_GetUARTCLKFreq+0x210>)
701046ec:	e76d      	b.n	701045ca <RCCEx_GetUARTCLKFreq+0x42>
701046ee:	4b2b      	ldr	r3, [pc, #172]	@ (7010479c <RCCEx_GetUARTCLKFreq+0x214>)
701046f0:	e7f3      	b.n	701046da <RCCEx_GetUARTCLKFreq+0x152>
701046f2:	4b2b      	ldr	r3, [pc, #172]	@ (701047a0 <RCCEx_GetUARTCLKFreq+0x218>)
701046f4:	4298      	cmp	r0, r3
701046f6:	d009      	beq.n	7010470c <RCCEx_GetUARTCLKFreq+0x184>
701046f8:	d813      	bhi.n	70104722 <RCCEx_GetUARTCLKFreq+0x19a>
701046fa:	f5a3 6340 	sub.w	r3, r3, #3072	@ 0xc00
701046fe:	4298      	cmp	r0, r3
70104700:	d004      	beq.n	7010470c <RCCEx_GetUARTCLKFreq+0x184>
70104702:	f503 6380 	add.w	r3, r3, #1024	@ 0x400
70104706:	4298      	cmp	r0, r3
70104708:	f47f af5e 	bne.w	701045c8 <RCCEx_GetUARTCLKFreq+0x40>
7010470c:	f7fd fddc 	bl	701022c8 <LL_RCC_HSI_IsReady>
70104710:	2800      	cmp	r0, #0
70104712:	f43f af59 	beq.w	701045c8 <RCCEx_GetUARTCLKFreq+0x40>
70104716:	4b19      	ldr	r3, [pc, #100]	@ (7010477c <RCCEx_GetUARTCLKFreq+0x1f4>)
70104718:	4822      	ldr	r0, [pc, #136]	@ (701047a4 <RCCEx_GetUARTCLKFreq+0x21c>)
7010471a:	6c9b      	ldr	r3, [r3, #72]	@ 0x48
7010471c:	f3c3 13c1 	ubfx	r3, r3, #7, #2
70104720:	e009      	b.n	70104736 <RCCEx_GetUARTCLKFreq+0x1ae>
70104722:	4b21      	ldr	r3, [pc, #132]	@ (701047a8 <RCCEx_GetUARTCLKFreq+0x220>)
70104724:	e7ef      	b.n	70104706 <RCCEx_GetUARTCLKFreq+0x17e>
70104726:	f7fd fd5f 	bl	701021e8 <HAL_RCC_GetSysClockFreq>
7010472a:	f7fd fe5f 	bl	701023ec <RCCEx_GetHCLKFreq>
7010472e:	4b13      	ldr	r3, [pc, #76]	@ (7010477c <RCCEx_GetUARTCLKFreq+0x1f4>)
70104730:	6a5b      	ldr	r3, [r3, #36]	@ 0x24
70104732:	f003 0307 	and.w	r3, r3, #7
70104736:	40d8      	lsrs	r0, r3
70104738:	e747      	b.n	701045ca <RCCEx_GetUARTCLKFreq+0x42>
7010473a:	f7fd fd55 	bl	701021e8 <HAL_RCC_GetSysClockFreq>
7010473e:	f7fd fe55 	bl	701023ec <RCCEx_GetHCLKFreq>
70104742:	4b0e      	ldr	r3, [pc, #56]	@ (7010477c <RCCEx_GetUARTCLKFreq+0x1f4>)
70104744:	6a5b      	ldr	r3, [r3, #36]	@ 0x24
70104746:	f3c3 1302 	ubfx	r3, r3, #4, #3
7010474a:	e7f4      	b.n	70104736 <RCCEx_GetUARTCLKFreq+0x1ae>
7010474c:	f1b3 5f40 	cmp.w	r3, #805306368	@ 0x30000000
70104750:	f47f af3a 	bne.w	701045c8 <RCCEx_GetUARTCLKFreq+0x40>
70104754:	f7ff fbe2 	bl	70103f1c <HAL_RCCEx_GetPLL4CLKFreq>
70104758:	e772      	b.n	70104640 <RCCEx_GetUARTCLKFreq+0xb8>
7010475a:	f7ff fb5f 	bl	70103e1c <HAL_RCCEx_GetPLL2CLKFreq>
7010475e:	e76f      	b.n	70104640 <RCCEx_GetUARTCLKFreq+0xb8>
70104760:	f7ff fb9c 	bl	70103e9c <HAL_RCCEx_GetPLL3CLKFreq>
70104764:	e76c      	b.n	70104640 <RCCEx_GetUARTCLKFreq+0xb8>
70104766:	bf00      	nop
70104768:	07021c30 	.word	0x07021c30
7010476c:	07000034 	.word	0x07000034
70104770:	07011c30 	.word	0x07011c30
70104774:	07011830 	.word	0x07011830
70104778:	07021030 	.word	0x07021030
7010477c:	56028000 	.word	0x56028000
70104780:	07021830 	.word	0x07021830
70104784:	07050034 	.word	0x07050034
70104788:	07031830 	.word	0x07031830
7010478c:	07041830 	.word	0x07041830
70104790:	07041c30 	.word	0x07041c30
70104794:	07060034 	.word	0x07060034
70104798:	003d0900 	.word	0x003d0900
7010479c:	07051c30 	.word	0x07051c30
701047a0:	07061830 	.word	0x07061830
701047a4:	03d09000 	.word	0x03d09000
701047a8:	07061c30 	.word	0x07061c30

701047ac <RCCEx_GetSPICLKFreq>:
701047ac:	b510      	push	{r4, lr}
701047ae:	f7fd fdb5 	bl	7010231c <LL_RCC_GetClockSource>
701047b2:	4b89      	ldr	r3, [pc, #548]	@ (701049d8 <RCCEx_GetSPICLKFreq+0x22c>)
701047b4:	4298      	cmp	r0, r3
701047b6:	d055      	beq.n	70104864 <RCCEx_GetSPICLKFreq+0xb8>
701047b8:	d865      	bhi.n	70104886 <RCCEx_GetSPICLKFreq+0xda>
701047ba:	f5a3 333c 	sub.w	r3, r3, #192512	@ 0x2f000
701047be:	4298      	cmp	r0, r3
701047c0:	f000 80ca 	beq.w	70104958 <RCCEx_GetSPICLKFreq+0x1ac>
701047c4:	d81e      	bhi.n	70104804 <RCCEx_GetSPICLKFreq+0x58>
701047c6:	f5a3 6340 	sub.w	r3, r3, #3072	@ 0xc00
701047ca:	4298      	cmp	r0, r3
701047cc:	f000 80ba 	beq.w	70104944 <RCCEx_GetSPICLKFreq+0x198>
701047d0:	d80a      	bhi.n	701047e8 <RCCEx_GetSPICLKFreq+0x3c>
701047d2:	f5a3 6300 	sub.w	r3, r3, #2048	@ 0x800
701047d6:	4298      	cmp	r0, r3
701047d8:	d00b      	beq.n	701047f2 <RCCEx_GetSPICLKFreq+0x46>
701047da:	f503 6380 	add.w	r3, r3, #1024	@ 0x400
701047de:	4298      	cmp	r0, r3
701047e0:	f000 80b0 	beq.w	70104944 <RCCEx_GetSPICLKFreq+0x198>
701047e4:	2000      	movs	r0, #0
701047e6:	bd10      	pop	{r4, pc}
701047e8:	4b7c      	ldr	r3, [pc, #496]	@ (701049dc <RCCEx_GetSPICLKFreq+0x230>)
701047ea:	f420 6080 	bic.w	r0, r0, #1024	@ 0x400
701047ee:	4298      	cmp	r0, r3
701047f0:	d1f8      	bne.n	701047e4 <RCCEx_GetSPICLKFreq+0x38>
701047f2:	f7fd fcf9 	bl	701021e8 <HAL_RCC_GetSysClockFreq>
701047f6:	f7fd fdf9 	bl	701023ec <RCCEx_GetHCLKFreq>
701047fa:	4b79      	ldr	r3, [pc, #484]	@ (701049e0 <RCCEx_GetSPICLKFreq+0x234>)
701047fc:	6a5b      	ldr	r3, [r3, #36]	@ 0x24
701047fe:	f3c3 1302 	ubfx	r3, r3, #4, #3
70104802:	e0a7      	b.n	70104954 <RCCEx_GetSPICLKFreq+0x1a8>
70104804:	4b77      	ldr	r3, [pc, #476]	@ (701049e4 <RCCEx_GetSPICLKFreq+0x238>)
70104806:	4298      	cmp	r0, r3
70104808:	f000 80af 	beq.w	7010496a <RCCEx_GetSPICLKFreq+0x1be>
7010480c:	d81d      	bhi.n	7010484a <RCCEx_GetSPICLKFreq+0x9e>
7010480e:	f5a3 4378 	sub.w	r3, r3, #63488	@ 0xf800
70104812:	4298      	cmp	r0, r3
70104814:	d00a      	beq.n	7010482c <RCCEx_GetSPICLKFreq+0x80>
70104816:	d80d      	bhi.n	70104834 <RCCEx_GetSPICLKFreq+0x88>
70104818:	f5a3 6300 	sub.w	r3, r3, #2048	@ 0x800
7010481c:	4298      	cmp	r0, r3
7010481e:	d005      	beq.n	7010482c <RCCEx_GetSPICLKFreq+0x80>
70104820:	f420 6000 	bic.w	r0, r0, #2048	@ 0x800
70104824:	f5a3 6380 	sub.w	r3, r3, #1024	@ 0x400
70104828:	4298      	cmp	r0, r3
7010482a:	d1db      	bne.n	701047e4 <RCCEx_GetSPICLKFreq+0x38>
7010482c:	e8bd 4010 	ldmia.w	sp!, {r4, lr}
70104830:	f7ff bbb4 	b.w	70103f9c <RCCEx_GetCLKPCLKFreq.constprop.0>
70104834:	4b6c      	ldr	r3, [pc, #432]	@ (701049e8 <RCCEx_GetSPICLKFreq+0x23c>)
70104836:	4298      	cmp	r0, r3
70104838:	d0f8      	beq.n	7010482c <RCCEx_GetSPICLKFreq+0x80>
7010483a:	f503 436c 	add.w	r3, r3, #60416	@ 0xec00
7010483e:	4298      	cmp	r0, r3
70104840:	f000 8093 	beq.w	7010496a <RCCEx_GetSPICLKFreq+0x1be>
70104844:	f5a3 4370 	sub.w	r3, r3, #61440	@ 0xf000
70104848:	e7ee      	b.n	70104828 <RCCEx_GetSPICLKFreq+0x7c>
7010484a:	4b68      	ldr	r3, [pc, #416]	@ (701049ec <RCCEx_GetSPICLKFreq+0x240>)
7010484c:	4298      	cmp	r0, r3
7010484e:	d009      	beq.n	70104864 <RCCEx_GetSPICLKFreq+0xb8>
70104850:	d813      	bhi.n	7010487a <RCCEx_GetSPICLKFreq+0xce>
70104852:	f5a3 6300 	sub.w	r3, r3, #2048	@ 0x800
70104856:	4298      	cmp	r0, r3
70104858:	f000 8087 	beq.w	7010496a <RCCEx_GetSPICLKFreq+0x1be>
7010485c:	f503 6380 	add.w	r3, r3, #1024	@ 0x400
70104860:	4298      	cmp	r0, r3
70104862:	d1bf      	bne.n	701047e4 <RCCEx_GetSPICLKFreq+0x38>
70104864:	f7fd fd8c 	bl	70102380 <LL_RCC_IC9_IsEnabled>
70104868:	2800      	cmp	r0, #0
7010486a:	d0bb      	beq.n	701047e4 <RCCEx_GetSPICLKFreq+0x38>
7010486c:	f7fd fd90 	bl	70102390 <LL_RCC_IC9_GetDivider>
70104870:	4b5b      	ldr	r3, [pc, #364]	@ (701049e0 <RCCEx_GetSPICLKFreq+0x234>)
70104872:	4604      	mov	r4, r0
70104874:	f8d3 30e4 	ldr.w	r3, [r3, #228]	@ 0xe4
70104878:	e082      	b.n	70104980 <RCCEx_GetSPICLKFreq+0x1d4>
7010487a:	4b5d      	ldr	r3, [pc, #372]	@ (701049f0 <RCCEx_GetSPICLKFreq+0x244>)
7010487c:	4298      	cmp	r0, r3
7010487e:	d074      	beq.n	7010496a <RCCEx_GetSPICLKFreq+0x1be>
70104880:	f503 436c 	add.w	r3, r3, #60416	@ 0xec00
70104884:	e7ec      	b.n	70104860 <RCCEx_GetSPICLKFreq+0xb4>
70104886:	4b5b      	ldr	r3, [pc, #364]	@ (701049f4 <RCCEx_GetSPICLKFreq+0x248>)
70104888:	4298      	cmp	r0, r3
7010488a:	d043      	beq.n	70104914 <RCCEx_GetSPICLKFreq+0x168>
7010488c:	d830      	bhi.n	701048f0 <RCCEx_GetSPICLKFreq+0x144>
7010488e:	f5a3 33fa 	sub.w	r3, r3, #128000	@ 0x1f400
70104892:	4298      	cmp	r0, r3
70104894:	d0e6      	beq.n	70104864 <RCCEx_GetSPICLKFreq+0xb8>
70104896:	d808      	bhi.n	701048aa <RCCEx_GetSPICLKFreq+0xfe>
70104898:	f420 6280 	bic.w	r2, r0, #1024	@ 0x400
7010489c:	f5a3 6300 	sub.w	r3, r3, #2048	@ 0x800
701048a0:	429a      	cmp	r2, r3
701048a2:	d079      	beq.n	70104998 <RCCEx_GetSPICLKFreq+0x1ec>
701048a4:	f5a3 6380 	sub.w	r3, r3, #1024	@ 0x400
701048a8:	e7da      	b.n	70104860 <RCCEx_GetSPICLKFreq+0xb4>
701048aa:	4b53      	ldr	r3, [pc, #332]	@ (701049f8 <RCCEx_GetSPICLKFreq+0x24c>)
701048ac:	4298      	cmp	r0, r3
701048ae:	d00d      	beq.n	701048cc <RCCEx_GetSPICLKFreq+0x120>
701048b0:	d814      	bhi.n	701048dc <RCCEx_GetSPICLKFreq+0x130>
701048b2:	f5a3 6300 	sub.w	r3, r3, #2048	@ 0x800
701048b6:	4298      	cmp	r0, r3
701048b8:	d008      	beq.n	701048cc <RCCEx_GetSPICLKFreq+0x120>
701048ba:	d80d      	bhi.n	701048d8 <RCCEx_GetSPICLKFreq+0x12c>
701048bc:	f5a3 6300 	sub.w	r3, r3, #2048	@ 0x800
701048c0:	4298      	cmp	r0, r3
701048c2:	d003      	beq.n	701048cc <RCCEx_GetSPICLKFreq+0x120>
701048c4:	f503 6380 	add.w	r3, r3, #1024	@ 0x400
701048c8:	4298      	cmp	r0, r3
701048ca:	d18b      	bne.n	701047e4 <RCCEx_GetSPICLKFreq+0x38>
701048cc:	f7fd fd04 	bl	701022d8 <LL_RCC_MSI_IsReady>
701048d0:	2800      	cmp	r0, #0
701048d2:	d087      	beq.n	701047e4 <RCCEx_GetSPICLKFreq+0x38>
701048d4:	4849      	ldr	r0, [pc, #292]	@ (701049fc <RCCEx_GetSPICLKFreq+0x250>)
701048d6:	e786      	b.n	701047e6 <RCCEx_GetSPICLKFreq+0x3a>
701048d8:	4b49      	ldr	r3, [pc, #292]	@ (70104a00 <RCCEx_GetSPICLKFreq+0x254>)
701048da:	e7f5      	b.n	701048c8 <RCCEx_GetSPICLKFreq+0x11c>
701048dc:	4b49      	ldr	r3, [pc, #292]	@ (70104a04 <RCCEx_GetSPICLKFreq+0x258>)
701048de:	4298      	cmp	r0, r3
701048e0:	d018      	beq.n	70104914 <RCCEx_GetSPICLKFreq+0x168>
701048e2:	f503 6380 	add.w	r3, r3, #1024	@ 0x400
701048e6:	4298      	cmp	r0, r3
701048e8:	d014      	beq.n	70104914 <RCCEx_GetSPICLKFreq+0x168>
701048ea:	f5a3 4370 	sub.w	r3, r3, #61440	@ 0xf000
701048ee:	e7eb      	b.n	701048c8 <RCCEx_GetSPICLKFreq+0x11c>
701048f0:	4b45      	ldr	r3, [pc, #276]	@ (70104a08 <RCCEx_GetSPICLKFreq+0x25c>)
701048f2:	4298      	cmp	r0, r3
701048f4:	d069      	beq.n	701049ca <RCCEx_GetSPICLKFreq+0x21e>
701048f6:	d81e      	bhi.n	70104936 <RCCEx_GetSPICLKFreq+0x18a>
701048f8:	f5a3 6340 	sub.w	r3, r3, #3072	@ 0xc00
701048fc:	4298      	cmp	r0, r3
701048fe:	d018      	beq.n	70104932 <RCCEx_GetSPICLKFreq+0x186>
70104900:	f420 6380 	bic.w	r3, r0, #1024	@ 0x400
70104904:	d811      	bhi.n	7010492a <RCCEx_GetSPICLKFreq+0x17e>
70104906:	4a41      	ldr	r2, [pc, #260]	@ (70104a0c <RCCEx_GetSPICLKFreq+0x260>)
70104908:	4293      	cmp	r3, r2
7010490a:	d003      	beq.n	70104914 <RCCEx_GetSPICLKFreq+0x168>
7010490c:	4b40      	ldr	r3, [pc, #256]	@ (70104a10 <RCCEx_GetSPICLKFreq+0x264>)
7010490e:	4298      	cmp	r0, r3
70104910:	f47f af68 	bne.w	701047e4 <RCCEx_GetSPICLKFreq+0x38>
70104914:	f7fd fcd8 	bl	701022c8 <LL_RCC_HSI_IsReady>
70104918:	2800      	cmp	r0, #0
7010491a:	f43f af63 	beq.w	701047e4 <RCCEx_GetSPICLKFreq+0x38>
7010491e:	4b30      	ldr	r3, [pc, #192]	@ (701049e0 <RCCEx_GetSPICLKFreq+0x234>)
70104920:	483c      	ldr	r0, [pc, #240]	@ (70104a14 <RCCEx_GetSPICLKFreq+0x268>)
70104922:	6c9b      	ldr	r3, [r3, #72]	@ 0x48
70104924:	f3c3 13c1 	ubfx	r3, r3, #7, #2
70104928:	e014      	b.n	70104954 <RCCEx_GetSPICLKFreq+0x1a8>
7010492a:	4a3b      	ldr	r2, [pc, #236]	@ (70104a18 <RCCEx_GetSPICLKFreq+0x26c>)
7010492c:	4293      	cmp	r3, r2
7010492e:	f47f af59 	bne.w	701047e4 <RCCEx_GetSPICLKFreq+0x38>
70104932:	483a      	ldr	r0, [pc, #232]	@ (70104a1c <RCCEx_GetSPICLKFreq+0x270>)
70104934:	e757      	b.n	701047e6 <RCCEx_GetSPICLKFreq+0x3a>
70104936:	4b3a      	ldr	r3, [pc, #232]	@ (70104a20 <RCCEx_GetSPICLKFreq+0x274>)
70104938:	4298      	cmp	r0, r3
7010493a:	d046      	beq.n	701049ca <RCCEx_GetSPICLKFreq+0x21e>
7010493c:	f503 6380 	add.w	r3, r3, #1024	@ 0x400
70104940:	4298      	cmp	r0, r3
70104942:	e7f4      	b.n	7010492e <RCCEx_GetSPICLKFreq+0x182>
70104944:	f7fd fc50 	bl	701021e8 <HAL_RCC_GetSysClockFreq>
70104948:	f7fd fd50 	bl	701023ec <RCCEx_GetHCLKFreq>
7010494c:	4b24      	ldr	r3, [pc, #144]	@ (701049e0 <RCCEx_GetSPICLKFreq+0x234>)
7010494e:	6a5b      	ldr	r3, [r3, #36]	@ 0x24
70104950:	f003 0307 	and.w	r3, r3, #7
70104954:	40d8      	lsrs	r0, r3
70104956:	e746      	b.n	701047e6 <RCCEx_GetSPICLKFreq+0x3a>
70104958:	f7fd fc46 	bl	701021e8 <HAL_RCC_GetSysClockFreq>
7010495c:	f7fd fd46 	bl	701023ec <RCCEx_GetHCLKFreq>
70104960:	4b1f      	ldr	r3, [pc, #124]	@ (701049e0 <RCCEx_GetSPICLKFreq+0x234>)
70104962:	6a5b      	ldr	r3, [r3, #36]	@ 0x24
70104964:	f3c3 3302 	ubfx	r3, r3, #12, #3
70104968:	e7f4      	b.n	70104954 <RCCEx_GetSPICLKFreq+0x1a8>
7010496a:	f7fd fcf7 	bl	7010235c <LL_RCC_IC8_IsEnabled>
7010496e:	2800      	cmp	r0, #0
70104970:	f43f af38 	beq.w	701047e4 <RCCEx_GetSPICLKFreq+0x38>
70104974:	f7fd fcfa 	bl	7010236c <LL_RCC_IC8_GetDivider>
70104978:	4604      	mov	r4, r0
7010497a:	4b19      	ldr	r3, [pc, #100]	@ (701049e0 <RCCEx_GetSPICLKFreq+0x234>)
7010497c:	f8d3 30e0 	ldr.w	r3, [r3, #224]	@ 0xe0
70104980:	f003 5340 	and.w	r3, r3, #805306368	@ 0x30000000
70104984:	f1b3 5f00 	cmp.w	r3, #536870912	@ 0x20000000
70104988:	d01c      	beq.n	701049c4 <RCCEx_GetSPICLKFreq+0x218>
7010498a:	d811      	bhi.n	701049b0 <RCCEx_GetSPICLKFreq+0x204>
7010498c:	b9bb      	cbnz	r3, 701049be <RCCEx_GetSPICLKFreq+0x212>
7010498e:	f7ff fa05 	bl	70103d9c <HAL_RCCEx_GetPLL1CLKFreq>
70104992:	fbb0 f0f4 	udiv	r0, r0, r4
70104996:	e726      	b.n	701047e6 <RCCEx_GetSPICLKFreq+0x3a>
70104998:	f7fd fd04 	bl	701023a4 <LL_RCC_IC14_IsEnabled>
7010499c:	2800      	cmp	r0, #0
7010499e:	f43f af21 	beq.w	701047e4 <RCCEx_GetSPICLKFreq+0x38>
701049a2:	f7fd fd07 	bl	701023b4 <LL_RCC_IC14_GetDivider>
701049a6:	4b0e      	ldr	r3, [pc, #56]	@ (701049e0 <RCCEx_GetSPICLKFreq+0x234>)
701049a8:	4604      	mov	r4, r0
701049aa:	f8d3 30f8 	ldr.w	r3, [r3, #248]	@ 0xf8
701049ae:	e7e7      	b.n	70104980 <RCCEx_GetSPICLKFreq+0x1d4>
701049b0:	f1b3 5f40 	cmp.w	r3, #805306368	@ 0x30000000
701049b4:	f47f af16 	bne.w	701047e4 <RCCEx_GetSPICLKFreq+0x38>
701049b8:	f7ff fab0 	bl	70103f1c <HAL_RCCEx_GetPLL4CLKFreq>
701049bc:	e7e9      	b.n	70104992 <RCCEx_GetSPICLKFreq+0x1e6>
701049be:	f7ff fa2d 	bl	70103e1c <HAL_RCCEx_GetPLL2CLKFreq>
701049c2:	e7e6      	b.n	70104992 <RCCEx_GetSPICLKFreq+0x1e6>
701049c4:	f7ff fa6a 	bl	70103e9c <HAL_RCCEx_GetPLL3CLKFreq>
701049c8:	e7e3      	b.n	70104992 <RCCEx_GetSPICLKFreq+0x1e6>
701049ca:	f7fd fc75 	bl	701022b8 <LL_RCC_HSE_IsReady>
701049ce:	2800      	cmp	r0, #0
701049d0:	f43f af08 	beq.w	701047e4 <RCCEx_GetSPICLKFreq+0x38>
701049d4:	4813      	ldr	r0, [pc, #76]	@ (70104a24 <RCCEx_GetSPICLKFreq+0x278>)
701049d6:	e706      	b.n	701047e6 <RCCEx_GetSPICLKFreq+0x3a>
701049d8:	07030820 	.word	0x07030820
701049dc:	07001020 	.word	0x07001020
701049e0:	56028000 	.word	0x56028000
701049e4:	07020820 	.word	0x07020820
701049e8:	07011820 	.word	0x07011820
701049ec:	07021420 	.word	0x07021420
701049f0:	07021820 	.word	0x07021820
701049f4:	07050c20 	.word	0x07050c20
701049f8:	07041420 	.word	0x07041420
701049fc:	003d0900 	.word	0x003d0900
70104a00:	07041020 	.word	0x07041020
70104a04:	07050420 	.word	0x07050420
70104a08:	07061020 	.word	0x07061020
70104a0c:	07051020 	.word	0x07051020
70104a10:	07051820 	.word	0x07051820
70104a14:	03d09000 	.word	0x03d09000
70104a18:	07060820 	.word	0x07060820
70104a1c:	00bb8000 	.word	0x00bb8000
70104a20:	07061420 	.word	0x07061420
70104a24:	016e3600 	.word	0x016e3600

70104a28 <RCCEx_GetSAICLKFreq>:
70104a28:	b510      	push	{r4, lr}
70104a2a:	f7fd fc77 	bl	7010231c <LL_RCC_GetClockSource>
70104a2e:	4b49      	ldr	r3, [pc, #292]	@ (70104b54 <RCCEx_GetSAICLKFreq+0x12c>)
70104a30:	4298      	cmp	r0, r3
70104a32:	d04a      	beq.n	70104aca <RCCEx_GetSAICLKFreq+0xa2>
70104a34:	d839      	bhi.n	70104aaa <RCCEx_GetSAICLKFreq+0x82>
70104a36:	f5a3 3300 	sub.w	r3, r3, #131072	@ 0x20000
70104a3a:	4298      	cmp	r0, r3
70104a3c:	d021      	beq.n	70104a82 <RCCEx_GetSAICLKFreq+0x5a>
70104a3e:	d815      	bhi.n	70104a6c <RCCEx_GetSAICLKFreq+0x44>
70104a40:	f5a3 3380 	sub.w	r3, r3, #65536	@ 0x10000
70104a44:	4298      	cmp	r0, r3
70104a46:	d00d      	beq.n	70104a64 <RCCEx_GetSAICLKFreq+0x3c>
70104a48:	d809      	bhi.n	70104a5e <RCCEx_GetSAICLKFreq+0x36>
70104a4a:	f5a3 3380 	sub.w	r3, r3, #65536	@ 0x10000
70104a4e:	4298      	cmp	r0, r3
70104a50:	d04e      	beq.n	70104af0 <RCCEx_GetSAICLKFreq+0xc8>
70104a52:	f503 6380 	add.w	r3, r3, #1024	@ 0x400
70104a56:	4298      	cmp	r0, r3
70104a58:	d04a      	beq.n	70104af0 <RCCEx_GetSAICLKFreq+0xc8>
70104a5a:	2000      	movs	r0, #0
70104a5c:	bd10      	pop	{r4, pc}
70104a5e:	4b3e      	ldr	r3, [pc, #248]	@ (70104b58 <RCCEx_GetSAICLKFreq+0x130>)
70104a60:	4298      	cmp	r0, r3
70104a62:	d1fa      	bne.n	70104a5a <RCCEx_GetSAICLKFreq+0x32>
70104a64:	e8bd 4010 	ldmia.w	sp!, {r4, lr}
70104a68:	f7ff ba98 	b.w	70103f9c <RCCEx_GetCLKPCLKFreq.constprop.0>
70104a6c:	4b3b      	ldr	r3, [pc, #236]	@ (70104b5c <RCCEx_GetSAICLKFreq+0x134>)
70104a6e:	4298      	cmp	r0, r3
70104a70:	d04d      	beq.n	70104b0e <RCCEx_GetSAICLKFreq+0xe6>
70104a72:	f503 6380 	add.w	r3, r3, #1024	@ 0x400
70104a76:	4298      	cmp	r0, r3
70104a78:	d049      	beq.n	70104b0e <RCCEx_GetSAICLKFreq+0xe6>
70104a7a:	f5a3 3380 	sub.w	r3, r3, #65536	@ 0x10000
70104a7e:	4298      	cmp	r0, r3
70104a80:	d1eb      	bne.n	70104a5a <RCCEx_GetSAICLKFreq+0x32>
70104a82:	f7fd fc59 	bl	70102338 <LL_RCC_IC7_IsEnabled>
70104a86:	2800      	cmp	r0, #0
70104a88:	d0e7      	beq.n	70104a5a <RCCEx_GetSAICLKFreq+0x32>
70104a8a:	f7fd fc5d 	bl	70102348 <LL_RCC_IC7_GetDivider>
70104a8e:	4604      	mov	r4, r0
70104a90:	4b33      	ldr	r3, [pc, #204]	@ (70104b60 <RCCEx_GetSAICLKFreq+0x138>)
70104a92:	f8d3 30dc 	ldr.w	r3, [r3, #220]	@ 0xdc
70104a96:	f003 5340 	and.w	r3, r3, #805306368	@ 0x30000000
70104a9a:	f1b3 5f00 	cmp.w	r3, #536870912	@ 0x20000000
70104a9e:	d047      	beq.n	70104b30 <RCCEx_GetSAICLKFreq+0x108>
70104aa0:	d840      	bhi.n	70104b24 <RCCEx_GetSAICLKFreq+0xfc>
70104aa2:	bb7b      	cbnz	r3, 70104b04 <RCCEx_GetSAICLKFreq+0xdc>
70104aa4:	f7ff f97a 	bl	70103d9c <HAL_RCCEx_GetPLL1CLKFreq>
70104aa8:	e02e      	b.n	70104b08 <RCCEx_GetSAICLKFreq+0xe0>
70104aaa:	4b2e      	ldr	r3, [pc, #184]	@ (70104b64 <RCCEx_GetSAICLKFreq+0x13c>)
70104aac:	4298      	cmp	r0, r3
70104aae:	d01d      	beq.n	70104aec <RCCEx_GetSAICLKFreq+0xc4>
70104ab0:	d811      	bhi.n	70104ad6 <RCCEx_GetSAICLKFreq+0xae>
70104ab2:	f5a3 3380 	sub.w	r3, r3, #65536	@ 0x10000
70104ab6:	4298      	cmp	r0, r3
70104ab8:	d03d      	beq.n	70104b36 <RCCEx_GetSAICLKFreq+0x10e>
70104aba:	f503 6380 	add.w	r3, r3, #1024	@ 0x400
70104abe:	4298      	cmp	r0, r3
70104ac0:	d039      	beq.n	70104b36 <RCCEx_GetSAICLKFreq+0x10e>
70104ac2:	f5a3 3380 	sub.w	r3, r3, #65536	@ 0x10000
70104ac6:	4298      	cmp	r0, r3
70104ac8:	d1c7      	bne.n	70104a5a <RCCEx_GetSAICLKFreq+0x32>
70104aca:	f7fd fc05 	bl	701022d8 <LL_RCC_MSI_IsReady>
70104ace:	2800      	cmp	r0, #0
70104ad0:	d0c3      	beq.n	70104a5a <RCCEx_GetSAICLKFreq+0x32>
70104ad2:	4825      	ldr	r0, [pc, #148]	@ (70104b68 <RCCEx_GetSAICLKFreq+0x140>)
70104ad4:	e7c2      	b.n	70104a5c <RCCEx_GetSAICLKFreq+0x34>
70104ad6:	4b25      	ldr	r3, [pc, #148]	@ (70104b6c <RCCEx_GetSAICLKFreq+0x144>)
70104ad8:	4298      	cmp	r0, r3
70104ada:	d036      	beq.n	70104b4a <RCCEx_GetSAICLKFreq+0x122>
70104adc:	f503 6380 	add.w	r3, r3, #1024	@ 0x400
70104ae0:	4298      	cmp	r0, r3
70104ae2:	d032      	beq.n	70104b4a <RCCEx_GetSAICLKFreq+0x122>
70104ae4:	f5a3 3380 	sub.w	r3, r3, #65536	@ 0x10000
70104ae8:	4298      	cmp	r0, r3
70104aea:	d1b6      	bne.n	70104a5a <RCCEx_GetSAICLKFreq+0x32>
70104aec:	4820      	ldr	r0, [pc, #128]	@ (70104b70 <RCCEx_GetSAICLKFreq+0x148>)
70104aee:	e7b5      	b.n	70104a5c <RCCEx_GetSAICLKFreq+0x34>
70104af0:	f7fd fb7a 	bl	701021e8 <HAL_RCC_GetSysClockFreq>
70104af4:	f7fd fc7a 	bl	701023ec <RCCEx_GetHCLKFreq>
70104af8:	4b19      	ldr	r3, [pc, #100]	@ (70104b60 <RCCEx_GetSAICLKFreq+0x138>)
70104afa:	6a5b      	ldr	r3, [r3, #36]	@ 0x24
70104afc:	f3c3 1302 	ubfx	r3, r3, #4, #3
70104b00:	40d8      	lsrs	r0, r3
70104b02:	e7ab      	b.n	70104a5c <RCCEx_GetSAICLKFreq+0x34>
70104b04:	f7ff f98a 	bl	70103e1c <HAL_RCCEx_GetPLL2CLKFreq>
70104b08:	fbb0 f0f4 	udiv	r0, r0, r4
70104b0c:	e7a6      	b.n	70104a5c <RCCEx_GetSAICLKFreq+0x34>
70104b0e:	f7fd fc25 	bl	7010235c <LL_RCC_IC8_IsEnabled>
70104b12:	2800      	cmp	r0, #0
70104b14:	d0a1      	beq.n	70104a5a <RCCEx_GetSAICLKFreq+0x32>
70104b16:	f7fd fc29 	bl	7010236c <LL_RCC_IC8_GetDivider>
70104b1a:	4b11      	ldr	r3, [pc, #68]	@ (70104b60 <RCCEx_GetSAICLKFreq+0x138>)
70104b1c:	4604      	mov	r4, r0
70104b1e:	f8d3 30e0 	ldr.w	r3, [r3, #224]	@ 0xe0
70104b22:	e7b8      	b.n	70104a96 <RCCEx_GetSAICLKFreq+0x6e>
70104b24:	f1b3 5f40 	cmp.w	r3, #805306368	@ 0x30000000
70104b28:	d197      	bne.n	70104a5a <RCCEx_GetSAICLKFreq+0x32>
70104b2a:	f7ff f9f7 	bl	70103f1c <HAL_RCCEx_GetPLL4CLKFreq>
70104b2e:	e7eb      	b.n	70104b08 <RCCEx_GetSAICLKFreq+0xe0>
70104b30:	f7ff f9b4 	bl	70103e9c <HAL_RCCEx_GetPLL3CLKFreq>
70104b34:	e7e8      	b.n	70104b08 <RCCEx_GetSAICLKFreq+0xe0>
70104b36:	f7fd fbc7 	bl	701022c8 <LL_RCC_HSI_IsReady>
70104b3a:	2800      	cmp	r0, #0
70104b3c:	d08d      	beq.n	70104a5a <RCCEx_GetSAICLKFreq+0x32>
70104b3e:	4b08      	ldr	r3, [pc, #32]	@ (70104b60 <RCCEx_GetSAICLKFreq+0x138>)
70104b40:	480c      	ldr	r0, [pc, #48]	@ (70104b74 <RCCEx_GetSAICLKFreq+0x14c>)
70104b42:	6c9b      	ldr	r3, [r3, #72]	@ 0x48
70104b44:	f3c3 13c1 	ubfx	r3, r3, #7, #2
70104b48:	e7da      	b.n	70104b00 <RCCEx_GetSAICLKFreq+0xd8>
70104b4a:	e8bd 4010 	ldmia.w	sp!, {r4, lr}
70104b4e:	f7ff baab 	b.w	701040a8 <RCCEx_GetSPDIFRXCLKFreq.constprop.0>
70104b52:	bf00      	nop
70104b54:	07041418 	.word	0x07041418
70104b58:	07011818 	.word	0x07011818
70104b5c:	07031418 	.word	0x07031418
70104b60:	56028000 	.word	0x56028000
70104b64:	07061418 	.word	0x07061418
70104b68:	003d0900 	.word	0x003d0900
70104b6c:	07071418 	.word	0x07071418
70104b70:	00bb8000 	.word	0x00bb8000
70104b74:	03d09000 	.word	0x03d09000

70104b78 <RCCEx_GetI3CCLKFreq>:
70104b78:	b510      	push	{r4, lr}
70104b7a:	f7fd fbcf 	bl	7010231c <LL_RCC_GetClockSource>
70104b7e:	4b3d      	ldr	r3, [pc, #244]	@ (70104c74 <RCCEx_GetI3CCLKFreq+0xfc>)
70104b80:	4298      	cmp	r0, r3
70104b82:	d060      	beq.n	70104c46 <RCCEx_GetI3CCLKFreq+0xce>
70104b84:	d830      	bhi.n	70104be8 <RCCEx_GetI3CCLKFreq+0x70>
70104b86:	f5a3 33fe 	sub.w	r3, r3, #130048	@ 0x1fc00
70104b8a:	4298      	cmp	r0, r3
70104b8c:	d057      	beq.n	70104c3e <RCCEx_GetI3CCLKFreq+0xc6>
70104b8e:	d80d      	bhi.n	70104bac <RCCEx_GetI3CCLKFreq+0x34>
70104b90:	f5a3 3380 	sub.w	r3, r3, #65536	@ 0x10000
70104b94:	4298      	cmp	r0, r3
70104b96:	d048      	beq.n	70104c2a <RCCEx_GetI3CCLKFreq+0xb2>
70104b98:	f503 437c 	add.w	r3, r3, #64512	@ 0xfc00
70104b9c:	4298      	cmp	r0, r3
70104b9e:	d04e      	beq.n	70104c3e <RCCEx_GetI3CCLKFreq+0xc6>
70104ba0:	f5a3 3380 	sub.w	r3, r3, #65536	@ 0x10000
70104ba4:	4298      	cmp	r0, r3
70104ba6:	d040      	beq.n	70104c2a <RCCEx_GetI3CCLKFreq+0xb2>
70104ba8:	2000      	movs	r0, #0
70104baa:	bd10      	pop	{r4, pc}
70104bac:	4b32      	ldr	r3, [pc, #200]	@ (70104c78 <RCCEx_GetI3CCLKFreq+0x100>)
70104bae:	f420 6080 	bic.w	r0, r0, #1024	@ 0x400
70104bb2:	4298      	cmp	r0, r3
70104bb4:	d1f8      	bne.n	70104ba8 <RCCEx_GetI3CCLKFreq+0x30>
70104bb6:	4b31      	ldr	r3, [pc, #196]	@ (70104c7c <RCCEx_GetI3CCLKFreq+0x104>)
70104bb8:	f8d3 2240 	ldr.w	r2, [r3, #576]	@ 0x240
70104bbc:	0592      	lsls	r2, r2, #22
70104bbe:	d5f3      	bpl.n	70104ba8 <RCCEx_GetI3CCLKFreq+0x30>
70104bc0:	f8d3 00e8 	ldr.w	r0, [r3, #232]	@ 0xe8
70104bc4:	f8d3 30e8 	ldr.w	r3, [r3, #232]	@ 0xe8
70104bc8:	f3c0 4007 	ubfx	r0, r0, #16, #8
70104bcc:	1c44      	adds	r4, r0, #1
70104bce:	f003 5340 	and.w	r3, r3, #805306368	@ 0x30000000
70104bd2:	f1b3 5f00 	cmp.w	r3, #536870912	@ 0x20000000
70104bd6:	d04a      	beq.n	70104c6e <RCCEx_GetI3CCLKFreq+0xf6>
70104bd8:	d840      	bhi.n	70104c5c <RCCEx_GetI3CCLKFreq+0xe4>
70104bda:	2b00      	cmp	r3, #0
70104bdc:	d144      	bne.n	70104c68 <RCCEx_GetI3CCLKFreq+0xf0>
70104bde:	f7ff f8dd 	bl	70103d9c <HAL_RCCEx_GetPLL1CLKFreq>
70104be2:	fbb0 f0f4 	udiv	r0, r0, r4
70104be6:	e7e0      	b.n	70104baa <RCCEx_GetI3CCLKFreq+0x32>
70104be8:	4b25      	ldr	r3, [pc, #148]	@ (70104c80 <RCCEx_GetI3CCLKFreq+0x108>)
70104bea:	4298      	cmp	r0, r3
70104bec:	d008      	beq.n	70104c00 <RCCEx_GetI3CCLKFreq+0x88>
70104bee:	d80d      	bhi.n	70104c0c <RCCEx_GetI3CCLKFreq+0x94>
70104bf0:	f5a3 3380 	sub.w	r3, r3, #65536	@ 0x10000
70104bf4:	4298      	cmp	r0, r3
70104bf6:	d026      	beq.n	70104c46 <RCCEx_GetI3CCLKFreq+0xce>
70104bf8:	f503 437c 	add.w	r3, r3, #64512	@ 0xfc00
70104bfc:	4298      	cmp	r0, r3
70104bfe:	d1d3      	bne.n	70104ba8 <RCCEx_GetI3CCLKFreq+0x30>
70104c00:	f7fd fb6a 	bl	701022d8 <LL_RCC_MSI_IsReady>
70104c04:	2800      	cmp	r0, #0
70104c06:	d0cf      	beq.n	70104ba8 <RCCEx_GetI3CCLKFreq+0x30>
70104c08:	481e      	ldr	r0, [pc, #120]	@ (70104c84 <RCCEx_GetI3CCLKFreq+0x10c>)
70104c0a:	e7ce      	b.n	70104baa <RCCEx_GetI3CCLKFreq+0x32>
70104c0c:	4b1e      	ldr	r3, [pc, #120]	@ (70104c88 <RCCEx_GetI3CCLKFreq+0x110>)
70104c0e:	f420 6080 	bic.w	r0, r0, #1024	@ 0x400
70104c12:	4298      	cmp	r0, r3
70104c14:	d1c8      	bne.n	70104ba8 <RCCEx_GetI3CCLKFreq+0x30>
70104c16:	f7fd fb57 	bl	701022c8 <LL_RCC_HSI_IsReady>
70104c1a:	2800      	cmp	r0, #0
70104c1c:	d0c4      	beq.n	70104ba8 <RCCEx_GetI3CCLKFreq+0x30>
70104c1e:	4b17      	ldr	r3, [pc, #92]	@ (70104c7c <RCCEx_GetI3CCLKFreq+0x104>)
70104c20:	481a      	ldr	r0, [pc, #104]	@ (70104c8c <RCCEx_GetI3CCLKFreq+0x114>)
70104c22:	6c9b      	ldr	r3, [r3, #72]	@ 0x48
70104c24:	f3c3 13c1 	ubfx	r3, r3, #7, #2
70104c28:	e007      	b.n	70104c3a <RCCEx_GetI3CCLKFreq+0xc2>
70104c2a:	f7fd fadd 	bl	701021e8 <HAL_RCC_GetSysClockFreq>
70104c2e:	f7fd fbdd 	bl	701023ec <RCCEx_GetHCLKFreq>
70104c32:	4b12      	ldr	r3, [pc, #72]	@ (70104c7c <RCCEx_GetI3CCLKFreq+0x104>)
70104c34:	6a5b      	ldr	r3, [r3, #36]	@ 0x24
70104c36:	f003 0307 	and.w	r3, r3, #7
70104c3a:	40d8      	lsrs	r0, r3
70104c3c:	e7b5      	b.n	70104baa <RCCEx_GetI3CCLKFreq+0x32>
70104c3e:	e8bd 4010 	ldmia.w	sp!, {r4, lr}
70104c42:	f7ff b9ab 	b.w	70103f9c <RCCEx_GetCLKPCLKFreq.constprop.0>
70104c46:	f7fd fbbf 	bl	701023c8 <LL_RCC_IC15_IsEnabled>
70104c4a:	2800      	cmp	r0, #0
70104c4c:	d0ac      	beq.n	70104ba8 <RCCEx_GetI3CCLKFreq+0x30>
70104c4e:	f7fd fbc3 	bl	701023d8 <LL_RCC_IC15_GetDivider>
70104c52:	4b0a      	ldr	r3, [pc, #40]	@ (70104c7c <RCCEx_GetI3CCLKFreq+0x104>)
70104c54:	4604      	mov	r4, r0
70104c56:	f8d3 30fc 	ldr.w	r3, [r3, #252]	@ 0xfc
70104c5a:	e7b8      	b.n	70104bce <RCCEx_GetI3CCLKFreq+0x56>
70104c5c:	f1b3 5f40 	cmp.w	r3, #805306368	@ 0x30000000
70104c60:	d1a2      	bne.n	70104ba8 <RCCEx_GetI3CCLKFreq+0x30>
70104c62:	f7ff f95b 	bl	70103f1c <HAL_RCCEx_GetPLL4CLKFreq>
70104c66:	e7bc      	b.n	70104be2 <RCCEx_GetI3CCLKFreq+0x6a>
70104c68:	f7ff f8d8 	bl	70103e1c <HAL_RCCEx_GetPLL2CLKFreq>
70104c6c:	e7b9      	b.n	70104be2 <RCCEx_GetI3CCLKFreq+0x6a>
70104c6e:	f7ff f915 	bl	70103e9c <HAL_RCCEx_GetPLL3CLKFreq>
70104c72:	e7b6      	b.n	70104be2 <RCCEx_GetI3CCLKFreq+0x6a>
70104c74:	0703100c 	.word	0x0703100c
70104c78:	0702100c 	.word	0x0702100c
70104c7c:	56028000 	.word	0x56028000
70104c80:	0704140c 	.word	0x0704140c
70104c84:	003d0900 	.word	0x003d0900
70104c88:	0705100c 	.word	0x0705100c
70104c8c:	03d09000 	.word	0x03d09000

70104c90 <RCCEx_GetSDMMCCLKFreq>:
70104c90:	b510      	push	{r4, lr}
70104c92:	f7fd fb43 	bl	7010231c <LL_RCC_GetClockSource>
70104c96:	4b2d      	ldr	r3, [pc, #180]	@ (70104d4c <RCCEx_GetSDMMCCLKFreq+0xbc>)
70104c98:	4298      	cmp	r0, r3
70104c9a:	d01d      	beq.n	70104cd8 <RCCEx_GetSDMMCCLKFreq+0x48>
70104c9c:	d813      	bhi.n	70104cc6 <RCCEx_GetSDMMCCLKFreq+0x36>
70104c9e:	f5a3 3380 	sub.w	r3, r3, #65536	@ 0x10000
70104ca2:	4298      	cmp	r0, r3
70104ca4:	d00b      	beq.n	70104cbe <RCCEx_GetSDMMCCLKFreq+0x2e>
70104ca6:	d807      	bhi.n	70104cb8 <RCCEx_GetSDMMCCLKFreq+0x28>
70104ca8:	f420 6080 	bic.w	r0, r0, #1024	@ 0x400
70104cac:	f5a3 3380 	sub.w	r3, r3, #65536	@ 0x10000
70104cb0:	4298      	cmp	r0, r3
70104cb2:	d02a      	beq.n	70104d0a <RCCEx_GetSDMMCCLKFreq+0x7a>
70104cb4:	2000      	movs	r0, #0
70104cb6:	bd10      	pop	{r4, pc}
70104cb8:	4b25      	ldr	r3, [pc, #148]	@ (70104d50 <RCCEx_GetSDMMCCLKFreq+0xc0>)
70104cba:	4298      	cmp	r0, r3
70104cbc:	d1fa      	bne.n	70104cb4 <RCCEx_GetSDMMCCLKFreq+0x24>
70104cbe:	e8bd 4010 	ldmia.w	sp!, {r4, lr}
70104cc2:	f7ff b96b 	b.w	70103f9c <RCCEx_GetCLKPCLKFreq.constprop.0>
70104cc6:	4b23      	ldr	r3, [pc, #140]	@ (70104d54 <RCCEx_GetSDMMCCLKFreq+0xc4>)
70104cc8:	f420 6280 	bic.w	r2, r0, #1024	@ 0x400
70104ccc:	429a      	cmp	r2, r3
70104cce:	d022      	beq.n	70104d16 <RCCEx_GetSDMMCCLKFreq+0x86>
70104cd0:	f5a3 437c 	sub.w	r3, r3, #64512	@ 0xfc00
70104cd4:	4298      	cmp	r0, r3
70104cd6:	d1ed      	bne.n	70104cb4 <RCCEx_GetSDMMCCLKFreq+0x24>
70104cd8:	4b1f      	ldr	r3, [pc, #124]	@ (70104d58 <RCCEx_GetSDMMCCLKFreq+0xc8>)
70104cda:	f8d3 0240 	ldr.w	r0, [r3, #576]	@ 0x240
70104cde:	f010 0008 	ands.w	r0, r0, #8
70104ce2:	d0e8      	beq.n	70104cb6 <RCCEx_GetSDMMCCLKFreq+0x26>
70104ce4:	f8d3 00d0 	ldr.w	r0, [r3, #208]	@ 0xd0
70104ce8:	f8d3 30d0 	ldr.w	r3, [r3, #208]	@ 0xd0
70104cec:	f3c0 4007 	ubfx	r0, r0, #16, #8
70104cf0:	1c44      	adds	r4, r0, #1
70104cf2:	f003 5340 	and.w	r3, r3, #805306368	@ 0x30000000
70104cf6:	f1b3 5f00 	cmp.w	r3, #536870912	@ 0x20000000
70104cfa:	d023      	beq.n	70104d44 <RCCEx_GetSDMMCCLKFreq+0xb4>
70104cfc:	d819      	bhi.n	70104d32 <RCCEx_GetSDMMCCLKFreq+0xa2>
70104cfe:	b9f3      	cbnz	r3, 70104d3e <RCCEx_GetSDMMCCLKFreq+0xae>
70104d00:	f7ff f84c 	bl	70103d9c <HAL_RCCEx_GetPLL1CLKFreq>
70104d04:	fbb0 f0f4 	udiv	r0, r0, r4
70104d08:	e7d5      	b.n	70104cb6 <RCCEx_GetSDMMCCLKFreq+0x26>
70104d0a:	f7fd fa6d 	bl	701021e8 <HAL_RCC_GetSysClockFreq>
70104d0e:	e8bd 4010 	ldmia.w	sp!, {r4, lr}
70104d12:	f7fd bb6b 	b.w	701023ec <RCCEx_GetHCLKFreq>
70104d16:	4b10      	ldr	r3, [pc, #64]	@ (70104d58 <RCCEx_GetSDMMCCLKFreq+0xc8>)
70104d18:	f8d3 0240 	ldr.w	r0, [r3, #576]	@ 0x240
70104d1c:	f010 0010 	ands.w	r0, r0, #16
70104d20:	d0c9      	beq.n	70104cb6 <RCCEx_GetSDMMCCLKFreq+0x26>
70104d22:	f8d3 00d4 	ldr.w	r0, [r3, #212]	@ 0xd4
70104d26:	f8d3 30d4 	ldr.w	r3, [r3, #212]	@ 0xd4
70104d2a:	f3c0 4007 	ubfx	r0, r0, #16, #8
70104d2e:	1c44      	adds	r4, r0, #1
70104d30:	e7df      	b.n	70104cf2 <RCCEx_GetSDMMCCLKFreq+0x62>
70104d32:	f1b3 5f40 	cmp.w	r3, #805306368	@ 0x30000000
70104d36:	d1bd      	bne.n	70104cb4 <RCCEx_GetSDMMCCLKFreq+0x24>
70104d38:	f7ff f8f0 	bl	70103f1c <HAL_RCCEx_GetPLL4CLKFreq>
70104d3c:	e7e2      	b.n	70104d04 <RCCEx_GetSDMMCCLKFreq+0x74>
70104d3e:	f7ff f86d 	bl	70103e1c <HAL_RCCEx_GetPLL2CLKFreq>
70104d42:	e7df      	b.n	70104d04 <RCCEx_GetSDMMCCLKFreq+0x74>
70104d44:	f7ff f8aa 	bl	70103e9c <HAL_RCCEx_GetPLL3CLKFreq>
70104d48:	e7dc      	b.n	70104d04 <RCCEx_GetSDMMCCLKFreq+0x74>
70104d4a:	bf00      	nop
70104d4c:	0302001c 	.word	0x0302001c
70104d50:	0301041c 	.word	0x0301041c
70104d54:	0303001c 	.word	0x0303001c
70104d58:	56028000 	.word	0x56028000

70104d5c <RCCEx_GetI2CCLKFreq>:
70104d5c:	b510      	push	{r4, lr}
70104d5e:	f7fd fadd 	bl	7010231c <LL_RCC_GetClockSource>
70104d62:	4b50      	ldr	r3, [pc, #320]	@ (70104ea4 <RCCEx_GetI2CCLKFreq+0x148>)
70104d64:	4298      	cmp	r0, r3
70104d66:	f000 8085 	beq.w	70104e74 <RCCEx_GetI2CCLKFreq+0x118>
70104d6a:	d84b      	bhi.n	70104e04 <RCCEx_GetI2CCLKFreq+0xa8>
70104d6c:	f5a3 33fc 	sub.w	r3, r3, #129024	@ 0x1f800
70104d70:	4298      	cmp	r0, r3
70104d72:	d01a      	beq.n	70104daa <RCCEx_GetI2CCLKFreq+0x4e>
70104d74:	d81d      	bhi.n	70104db2 <RCCEx_GetI2CCLKFreq+0x56>
70104d76:	f5a3 437c 	sub.w	r3, r3, #64512	@ 0xfc00
70104d7a:	4298      	cmp	r0, r3
70104d7c:	d008      	beq.n	70104d90 <RCCEx_GetI2CCLKFreq+0x34>
70104d7e:	f420 6380 	bic.w	r3, r0, #1024	@ 0x400
70104d82:	d80f      	bhi.n	70104da4 <RCCEx_GetI2CCLKFreq+0x48>
70104d84:	4a48      	ldr	r2, [pc, #288]	@ (70104ea8 <RCCEx_GetI2CCLKFreq+0x14c>)
70104d86:	4293      	cmp	r3, r2
70104d88:	d002      	beq.n	70104d90 <RCCEx_GetI2CCLKFreq+0x34>
70104d8a:	4b48      	ldr	r3, [pc, #288]	@ (70104eac <RCCEx_GetI2CCLKFreq+0x150>)
70104d8c:	4298      	cmp	r0, r3
70104d8e:	d14a      	bne.n	70104e26 <RCCEx_GetI2CCLKFreq+0xca>
70104d90:	f7fd fa2a 	bl	701021e8 <HAL_RCC_GetSysClockFreq>
70104d94:	f7fd fb2a 	bl	701023ec <RCCEx_GetHCLKFreq>
70104d98:	4b45      	ldr	r3, [pc, #276]	@ (70104eb0 <RCCEx_GetI2CCLKFreq+0x154>)
70104d9a:	6a5b      	ldr	r3, [r3, #36]	@ 0x24
70104d9c:	f003 0307 	and.w	r3, r3, #7
70104da0:	40d8      	lsrs	r0, r3
70104da2:	e041      	b.n	70104e28 <RCCEx_GetI2CCLKFreq+0xcc>
70104da4:	4a43      	ldr	r2, [pc, #268]	@ (70104eb4 <RCCEx_GetI2CCLKFreq+0x158>)
70104da6:	4293      	cmp	r3, r2
70104da8:	d13d      	bne.n	70104e26 <RCCEx_GetI2CCLKFreq+0xca>
70104daa:	e8bd 4010 	ldmia.w	sp!, {r4, lr}
70104dae:	f7ff b8f5 	b.w	70103f9c <RCCEx_GetCLKPCLKFreq.constprop.0>
70104db2:	4b41      	ldr	r3, [pc, #260]	@ (70104eb8 <RCCEx_GetI2CCLKFreq+0x15c>)
70104db4:	4298      	cmp	r0, r3
70104db6:	d008      	beq.n	70104dca <RCCEx_GetI2CCLKFreq+0x6e>
70104db8:	d820      	bhi.n	70104dfc <RCCEx_GetI2CCLKFreq+0xa0>
70104dba:	f5a3 4378 	sub.w	r3, r3, #63488	@ 0xf800
70104dbe:	4298      	cmp	r0, r3
70104dc0:	d0f3      	beq.n	70104daa <RCCEx_GetI2CCLKFreq+0x4e>
70104dc2:	f503 4374 	add.w	r3, r3, #62464	@ 0xf400
70104dc6:	4298      	cmp	r0, r3
70104dc8:	d12d      	bne.n	70104e26 <RCCEx_GetI2CCLKFreq+0xca>
70104dca:	4b39      	ldr	r3, [pc, #228]	@ (70104eb0 <RCCEx_GetI2CCLKFreq+0x154>)
70104dcc:	f8d3 2240 	ldr.w	r2, [r3, #576]	@ 0x240
70104dd0:	0592      	lsls	r2, r2, #22
70104dd2:	d528      	bpl.n	70104e26 <RCCEx_GetI2CCLKFreq+0xca>
70104dd4:	f8d3 00e8 	ldr.w	r0, [r3, #232]	@ 0xe8
70104dd8:	f8d3 30e8 	ldr.w	r3, [r3, #232]	@ 0xe8
70104ddc:	f3c0 4007 	ubfx	r0, r0, #16, #8
70104de0:	1c44      	adds	r4, r0, #1
70104de2:	f003 5340 	and.w	r3, r3, #805306368	@ 0x30000000
70104de6:	f1b3 5f00 	cmp.w	r3, #536870912	@ 0x20000000
70104dea:	d057      	beq.n	70104e9c <RCCEx_GetI2CCLKFreq+0x140>
70104dec:	d84d      	bhi.n	70104e8a <RCCEx_GetI2CCLKFreq+0x12e>
70104dee:	2b00      	cmp	r3, #0
70104df0:	d151      	bne.n	70104e96 <RCCEx_GetI2CCLKFreq+0x13a>
70104df2:	f7fe ffd3 	bl	70103d9c <HAL_RCCEx_GetPLL1CLKFreq>
70104df6:	fbb0 f0f4 	udiv	r0, r0, r4
70104dfa:	e015      	b.n	70104e28 <RCCEx_GetI2CCLKFreq+0xcc>
70104dfc:	4b2f      	ldr	r3, [pc, #188]	@ (70104ebc <RCCEx_GetI2CCLKFreq+0x160>)
70104dfe:	f420 6080 	bic.w	r0, r0, #1024	@ 0x400
70104e02:	e7e0      	b.n	70104dc6 <RCCEx_GetI2CCLKFreq+0x6a>
70104e04:	4b2e      	ldr	r3, [pc, #184]	@ (70104ec0 <RCCEx_GetI2CCLKFreq+0x164>)
70104e06:	4298      	cmp	r0, r3
70104e08:	d014      	beq.n	70104e34 <RCCEx_GetI2CCLKFreq+0xd8>
70104e0a:	d819      	bhi.n	70104e40 <RCCEx_GetI2CCLKFreq+0xe4>
70104e0c:	f5a3 437c 	sub.w	r3, r3, #64512	@ 0xfc00
70104e10:	4298      	cmp	r0, r3
70104e12:	d02f      	beq.n	70104e74 <RCCEx_GetI2CCLKFreq+0x118>
70104e14:	d809      	bhi.n	70104e2a <RCCEx_GetI2CCLKFreq+0xce>
70104e16:	f5a3 6300 	sub.w	r3, r3, #2048	@ 0x800
70104e1a:	4298      	cmp	r0, r3
70104e1c:	d02a      	beq.n	70104e74 <RCCEx_GetI2CCLKFreq+0x118>
70104e1e:	f503 6380 	add.w	r3, r3, #1024	@ 0x400
70104e22:	4298      	cmp	r0, r3
70104e24:	d026      	beq.n	70104e74 <RCCEx_GetI2CCLKFreq+0x118>
70104e26:	2000      	movs	r0, #0
70104e28:	bd10      	pop	{r4, pc}
70104e2a:	4b26      	ldr	r3, [pc, #152]	@ (70104ec4 <RCCEx_GetI2CCLKFreq+0x168>)
70104e2c:	f420 6080 	bic.w	r0, r0, #1024	@ 0x400
70104e30:	4298      	cmp	r0, r3
70104e32:	d1f8      	bne.n	70104e26 <RCCEx_GetI2CCLKFreq+0xca>
70104e34:	f7fd fa50 	bl	701022d8 <LL_RCC_MSI_IsReady>
70104e38:	2800      	cmp	r0, #0
70104e3a:	d0f4      	beq.n	70104e26 <RCCEx_GetI2CCLKFreq+0xca>
70104e3c:	4822      	ldr	r0, [pc, #136]	@ (70104ec8 <RCCEx_GetI2CCLKFreq+0x16c>)
70104e3e:	e7f3      	b.n	70104e28 <RCCEx_GetI2CCLKFreq+0xcc>
70104e40:	4b22      	ldr	r3, [pc, #136]	@ (70104ecc <RCCEx_GetI2CCLKFreq+0x170>)
70104e42:	4298      	cmp	r0, r3
70104e44:	d008      	beq.n	70104e58 <RCCEx_GetI2CCLKFreq+0xfc>
70104e46:	d811      	bhi.n	70104e6c <RCCEx_GetI2CCLKFreq+0x110>
70104e48:	f5a3 4378 	sub.w	r3, r3, #63488	@ 0xf800
70104e4c:	4298      	cmp	r0, r3
70104e4e:	d0f1      	beq.n	70104e34 <RCCEx_GetI2CCLKFreq+0xd8>
70104e50:	f503 4374 	add.w	r3, r3, #62464	@ 0xf400
70104e54:	4298      	cmp	r0, r3
70104e56:	d1e6      	bne.n	70104e26 <RCCEx_GetI2CCLKFreq+0xca>
70104e58:	f7fd fa36 	bl	701022c8 <LL_RCC_HSI_IsReady>
70104e5c:	2800      	cmp	r0, #0
70104e5e:	d0e2      	beq.n	70104e26 <RCCEx_GetI2CCLKFreq+0xca>
70104e60:	4b13      	ldr	r3, [pc, #76]	@ (70104eb0 <RCCEx_GetI2CCLKFreq+0x154>)
70104e62:	481b      	ldr	r0, [pc, #108]	@ (70104ed0 <RCCEx_GetI2CCLKFreq+0x174>)
70104e64:	6c9b      	ldr	r3, [r3, #72]	@ 0x48
70104e66:	f3c3 13c1 	ubfx	r3, r3, #7, #2
70104e6a:	e799      	b.n	70104da0 <RCCEx_GetI2CCLKFreq+0x44>
70104e6c:	4b19      	ldr	r3, [pc, #100]	@ (70104ed4 <RCCEx_GetI2CCLKFreq+0x178>)
70104e6e:	f420 6080 	bic.w	r0, r0, #1024	@ 0x400
70104e72:	e7ef      	b.n	70104e54 <RCCEx_GetI2CCLKFreq+0xf8>
70104e74:	f7fd faa8 	bl	701023c8 <LL_RCC_IC15_IsEnabled>
70104e78:	2800      	cmp	r0, #0
70104e7a:	d0d4      	beq.n	70104e26 <RCCEx_GetI2CCLKFreq+0xca>
70104e7c:	f7fd faac 	bl	701023d8 <LL_RCC_IC15_GetDivider>
70104e80:	4b0b      	ldr	r3, [pc, #44]	@ (70104eb0 <RCCEx_GetI2CCLKFreq+0x154>)
70104e82:	4604      	mov	r4, r0
70104e84:	f8d3 30fc 	ldr.w	r3, [r3, #252]	@ 0xfc
70104e88:	e7ab      	b.n	70104de2 <RCCEx_GetI2CCLKFreq+0x86>
70104e8a:	f1b3 5f40 	cmp.w	r3, #805306368	@ 0x30000000
70104e8e:	d1ca      	bne.n	70104e26 <RCCEx_GetI2CCLKFreq+0xca>
70104e90:	f7ff f844 	bl	70103f1c <HAL_RCCEx_GetPLL4CLKFreq>
70104e94:	e7af      	b.n	70104df6 <RCCEx_GetI2CCLKFreq+0x9a>
70104e96:	f7fe ffc1 	bl	70103e1c <HAL_RCCEx_GetPLL2CLKFreq>
70104e9a:	e7ac      	b.n	70104df6 <RCCEx_GetI2CCLKFreq+0x9a>
70104e9c:	f7fe fffe 	bl	70103e9c <HAL_RCCEx_GetPLL3CLKFreq>
70104ea0:	e7a9      	b.n	70104df6 <RCCEx_GetI2CCLKFreq+0x9a>
70104ea2:	bf00      	nop
70104ea4:	0703000c 	.word	0x0703000c
70104ea8:	0700000c 	.word	0x0700000c
70104eac:	0700080c 	.word	0x0700080c
70104eb0:	56028000 	.word	0x56028000
70104eb4:	0701000c 	.word	0x0701000c
70104eb8:	0702040c 	.word	0x0702040c
70104ebc:	0702080c 	.word	0x0702080c
70104ec0:	0704080c 	.word	0x0704080c
70104ec4:	0704000c 	.word	0x0704000c
70104ec8:	003d0900 	.word	0x003d0900
70104ecc:	0705040c 	.word	0x0705040c
70104ed0:	03d09000 	.word	0x03d09000
70104ed4:	0705080c 	.word	0x0705080c

70104ed8 <RCCEx_GetLPTIMCLKFreq>:
70104ed8:	b510      	push	{r4, lr}
70104eda:	f7fd fa1f 	bl	7010231c <LL_RCC_GetClockSource>
70104ede:	4b61      	ldr	r3, [pc, #388]	@ (70105064 <RCCEx_GetLPTIMCLKFreq+0x18c>)
70104ee0:	4298      	cmp	r0, r3
70104ee2:	d03a      	beq.n	70104f5a <RCCEx_GetLPTIMCLKFreq+0x82>
70104ee4:	d850      	bhi.n	70104f88 <RCCEx_GetLPTIMCLKFreq+0xb0>
70104ee6:	f5a3 33fe 	sub.w	r3, r3, #130048	@ 0x1fc00
70104eea:	4298      	cmp	r0, r3
70104eec:	f000 80a4 	beq.w	70105038 <RCCEx_GetLPTIMCLKFreq+0x160>
70104ef0:	d813      	bhi.n	70104f1a <RCCEx_GetLPTIMCLKFreq+0x42>
70104ef2:	f5a3 6340 	sub.w	r3, r3, #3072	@ 0xc00
70104ef6:	4298      	cmp	r0, r3
70104ef8:	f000 8094 	beq.w	70105024 <RCCEx_GetLPTIMCLKFreq+0x14c>
70104efc:	3b01      	subs	r3, #1
70104efe:	4298      	cmp	r0, r3
70104f00:	d909      	bls.n	70104f16 <RCCEx_GetLPTIMCLKFreq+0x3e>
70104f02:	f203 4301 	addw	r3, r3, #1025	@ 0x401
70104f06:	4298      	cmp	r0, r3
70104f08:	f000 8096 	beq.w	70105038 <RCCEx_GetLPTIMCLKFreq+0x160>
70104f0c:	f503 6380 	add.w	r3, r3, #1024	@ 0x400
70104f10:	4298      	cmp	r0, r3
70104f12:	f000 8091 	beq.w	70105038 <RCCEx_GetLPTIMCLKFreq+0x160>
70104f16:	2000      	movs	r0, #0
70104f18:	bd10      	pop	{r4, pc}
70104f1a:	4b53      	ldr	r3, [pc, #332]	@ (70105068 <RCCEx_GetLPTIMCLKFreq+0x190>)
70104f1c:	4298      	cmp	r0, r3
70104f1e:	d015      	beq.n	70104f4c <RCCEx_GetLPTIMCLKFreq+0x74>
70104f20:	d808      	bhi.n	70104f34 <RCCEx_GetLPTIMCLKFreq+0x5c>
70104f22:	f420 6280 	bic.w	r2, r0, #1024	@ 0x400
70104f26:	f5a3 6300 	sub.w	r3, r3, #2048	@ 0x800
70104f2a:	429a      	cmp	r2, r3
70104f2c:	d00e      	beq.n	70104f4c <RCCEx_GetLPTIMCLKFreq+0x74>
70104f2e:	f5a3 4370 	sub.w	r3, r3, #61440	@ 0xf000
70104f32:	e7ed      	b.n	70104f10 <RCCEx_GetLPTIMCLKFreq+0x38>
70104f34:	4b4d      	ldr	r3, [pc, #308]	@ (7010506c <RCCEx_GetLPTIMCLKFreq+0x194>)
70104f36:	4298      	cmp	r0, r3
70104f38:	d00f      	beq.n	70104f5a <RCCEx_GetLPTIMCLKFreq+0x82>
70104f3a:	d80b      	bhi.n	70104f54 <RCCEx_GetLPTIMCLKFreq+0x7c>
70104f3c:	f5a3 4374 	sub.w	r3, r3, #62464	@ 0xf400
70104f40:	4298      	cmp	r0, r3
70104f42:	d003      	beq.n	70104f4c <RCCEx_GetLPTIMCLKFreq+0x74>
70104f44:	f503 6380 	add.w	r3, r3, #1024	@ 0x400
70104f48:	4298      	cmp	r0, r3
70104f4a:	d1e4      	bne.n	70104f16 <RCCEx_GetLPTIMCLKFreq+0x3e>
70104f4c:	e8bd 4010 	ldmia.w	sp!, {r4, lr}
70104f50:	f7ff b824 	b.w	70103f9c <RCCEx_GetCLKPCLKFreq.constprop.0>
70104f54:	4b46      	ldr	r3, [pc, #280]	@ (70105070 <RCCEx_GetLPTIMCLKFreq+0x198>)
70104f56:	4298      	cmp	r0, r3
70104f58:	d1dd      	bne.n	70104f16 <RCCEx_GetLPTIMCLKFreq+0x3e>
70104f5a:	f7fd fa35 	bl	701023c8 <LL_RCC_IC15_IsEnabled>
70104f5e:	2800      	cmp	r0, #0
70104f60:	d0d9      	beq.n	70104f16 <RCCEx_GetLPTIMCLKFreq+0x3e>
70104f62:	f7fd fa39 	bl	701023d8 <LL_RCC_IC15_GetDivider>
70104f66:	4b43      	ldr	r3, [pc, #268]	@ (70105074 <RCCEx_GetLPTIMCLKFreq+0x19c>)
70104f68:	4604      	mov	r4, r0
70104f6a:	f8d3 30fc 	ldr.w	r3, [r3, #252]	@ 0xfc
70104f6e:	f003 5340 	and.w	r3, r3, #805306368	@ 0x30000000
70104f72:	f1b3 5f00 	cmp.w	r3, #536870912	@ 0x20000000
70104f76:	d072      	beq.n	7010505e <RCCEx_GetLPTIMCLKFreq+0x186>
70104f78:	d867      	bhi.n	7010504a <RCCEx_GetLPTIMCLKFreq+0x172>
70104f7a:	2b00      	cmp	r3, #0
70104f7c:	d16c      	bne.n	70105058 <RCCEx_GetLPTIMCLKFreq+0x180>
70104f7e:	f7fe ff0d 	bl	70103d9c <HAL_RCCEx_GetPLL1CLKFreq>
70104f82:	fbb0 f0f4 	udiv	r0, r0, r4
70104f86:	e7c7      	b.n	70104f18 <RCCEx_GetLPTIMCLKFreq+0x40>
70104f88:	4b3b      	ldr	r3, [pc, #236]	@ (70105078 <RCCEx_GetLPTIMCLKFreq+0x1a0>)
70104f8a:	4298      	cmp	r0, r3
70104f8c:	d031      	beq.n	70104ff2 <RCCEx_GetLPTIMCLKFreq+0x11a>
70104f8e:	d821      	bhi.n	70104fd4 <RCCEx_GetLPTIMCLKFreq+0xfc>
70104f90:	f5a3 437c 	sub.w	r3, r3, #64512	@ 0xfc00
70104f94:	4298      	cmp	r0, r3
70104f96:	d00f      	beq.n	70104fb8 <RCCEx_GetLPTIMCLKFreq+0xe0>
70104f98:	d812      	bhi.n	70104fc0 <RCCEx_GetLPTIMCLKFreq+0xe8>
70104f9a:	f5a3 6300 	sub.w	r3, r3, #2048	@ 0x800
70104f9e:	4298      	cmp	r0, r3
70104fa0:	d00a      	beq.n	70104fb8 <RCCEx_GetLPTIMCLKFreq+0xe0>
70104fa2:	d806      	bhi.n	70104fb2 <RCCEx_GetLPTIMCLKFreq+0xda>
70104fa4:	f5a3 4374 	sub.w	r3, r3, #62464	@ 0xf400
70104fa8:	4298      	cmp	r0, r3
70104faa:	d0d6      	beq.n	70104f5a <RCCEx_GetLPTIMCLKFreq+0x82>
70104fac:	f503 6380 	add.w	r3, r3, #1024	@ 0x400
70104fb0:	e7d1      	b.n	70104f56 <RCCEx_GetLPTIMCLKFreq+0x7e>
70104fb2:	4b32      	ldr	r3, [pc, #200]	@ (7010507c <RCCEx_GetLPTIMCLKFreq+0x1a4>)
70104fb4:	4298      	cmp	r0, r3
70104fb6:	d1ae      	bne.n	70104f16 <RCCEx_GetLPTIMCLKFreq+0x3e>
70104fb8:	f7fd f996 	bl	701022e8 <LL_RCC_LSE_IsReady>
70104fbc:	03c0      	lsls	r0, r0, #15
70104fbe:	e7ab      	b.n	70104f18 <RCCEx_GetLPTIMCLKFreq+0x40>
70104fc0:	4b2f      	ldr	r3, [pc, #188]	@ (70105080 <RCCEx_GetLPTIMCLKFreq+0x1a8>)
70104fc2:	4298      	cmp	r0, r3
70104fc4:	d0f8      	beq.n	70104fb8 <RCCEx_GetLPTIMCLKFreq+0xe0>
70104fc6:	f503 4370 	add.w	r3, r3, #61440	@ 0xf000
70104fca:	4298      	cmp	r0, r3
70104fcc:	d011      	beq.n	70104ff2 <RCCEx_GetLPTIMCLKFreq+0x11a>
70104fce:	f5a3 4374 	sub.w	r3, r3, #62464	@ 0xf400
70104fd2:	e7ef      	b.n	70104fb4 <RCCEx_GetLPTIMCLKFreq+0xdc>
70104fd4:	4b2b      	ldr	r3, [pc, #172]	@ (70105084 <RCCEx_GetLPTIMCLKFreq+0x1ac>)
70104fd6:	4298      	cmp	r0, r3
70104fd8:	d015      	beq.n	70105006 <RCCEx_GetLPTIMCLKFreq+0x12e>
70104fda:	d81b      	bhi.n	70105014 <RCCEx_GetLPTIMCLKFreq+0x13c>
70104fdc:	f5a3 4374 	sub.w	r3, r3, #62464	@ 0xf400
70104fe0:	4298      	cmp	r0, r3
70104fe2:	d006      	beq.n	70104ff2 <RCCEx_GetLPTIMCLKFreq+0x11a>
70104fe4:	d80c      	bhi.n	70105000 <RCCEx_GetLPTIMCLKFreq+0x128>
70104fe6:	f420 6080 	bic.w	r0, r0, #1024	@ 0x400
70104fea:	f5a3 6300 	sub.w	r3, r3, #2048	@ 0x800
70104fee:	4298      	cmp	r0, r3
70104ff0:	d191      	bne.n	70104f16 <RCCEx_GetLPTIMCLKFreq+0x3e>
70104ff2:	4b20      	ldr	r3, [pc, #128]	@ (70105074 <RCCEx_GetLPTIMCLKFreq+0x19c>)
70104ff4:	685b      	ldr	r3, [r3, #4]
70104ff6:	07db      	lsls	r3, r3, #31
70104ff8:	d58d      	bpl.n	70104f16 <RCCEx_GetLPTIMCLKFreq+0x3e>
70104ffa:	f44f 40fa 	mov.w	r0, #32000	@ 0x7d00
70104ffe:	e78b      	b.n	70104f18 <RCCEx_GetLPTIMCLKFreq+0x40>
70105000:	4b21      	ldr	r3, [pc, #132]	@ (70105088 <RCCEx_GetLPTIMCLKFreq+0x1b0>)
70105002:	4298      	cmp	r0, r3
70105004:	d187      	bne.n	70104f16 <RCCEx_GetLPTIMCLKFreq+0x3e>
70105006:	f7fd f8ef 	bl	701021e8 <HAL_RCC_GetSysClockFreq>
7010500a:	4b1a      	ldr	r3, [pc, #104]	@ (70105074 <RCCEx_GetLPTIMCLKFreq+0x19c>)
7010500c:	6a5b      	ldr	r3, [r3, #36]	@ 0x24
7010500e:	f3c3 6301 	ubfx	r3, r3, #24, #2
70105012:	e00f      	b.n	70105034 <RCCEx_GetLPTIMCLKFreq+0x15c>
70105014:	4b1d      	ldr	r3, [pc, #116]	@ (7010508c <RCCEx_GetLPTIMCLKFreq+0x1b4>)
70105016:	f420 6280 	bic.w	r2, r0, #1024	@ 0x400
7010501a:	429a      	cmp	r2, r3
7010501c:	d0f3      	beq.n	70105006 <RCCEx_GetLPTIMCLKFreq+0x12e>
7010501e:	f503 6300 	add.w	r3, r3, #2048	@ 0x800
70105022:	e7ee      	b.n	70105002 <RCCEx_GetLPTIMCLKFreq+0x12a>
70105024:	f7fd f8e0 	bl	701021e8 <HAL_RCC_GetSysClockFreq>
70105028:	f7fd f9e0 	bl	701023ec <RCCEx_GetHCLKFreq>
7010502c:	4b11      	ldr	r3, [pc, #68]	@ (70105074 <RCCEx_GetLPTIMCLKFreq+0x19c>)
7010502e:	6a5b      	ldr	r3, [r3, #36]	@ 0x24
70105030:	f003 0307 	and.w	r3, r3, #7
70105034:	40d8      	lsrs	r0, r3
70105036:	e76f      	b.n	70104f18 <RCCEx_GetLPTIMCLKFreq+0x40>
70105038:	f7fd f8d6 	bl	701021e8 <HAL_RCC_GetSysClockFreq>
7010503c:	f7fd f9d6 	bl	701023ec <RCCEx_GetHCLKFreq>
70105040:	4b0c      	ldr	r3, [pc, #48]	@ (70105074 <RCCEx_GetLPTIMCLKFreq+0x19c>)
70105042:	6a5b      	ldr	r3, [r3, #36]	@ 0x24
70105044:	f3c3 3302 	ubfx	r3, r3, #12, #3
70105048:	e7f4      	b.n	70105034 <RCCEx_GetLPTIMCLKFreq+0x15c>
7010504a:	f1b3 5f40 	cmp.w	r3, #805306368	@ 0x30000000
7010504e:	f47f af62 	bne.w	70104f16 <RCCEx_GetLPTIMCLKFreq+0x3e>
70105052:	f7fe ff63 	bl	70103f1c <HAL_RCCEx_GetPLL4CLKFreq>
70105056:	e794      	b.n	70104f82 <RCCEx_GetLPTIMCLKFreq+0xaa>
70105058:	f7fe fee0 	bl	70103e1c <HAL_RCCEx_GetPLL2CLKFreq>
7010505c:	e791      	b.n	70104f82 <RCCEx_GetLPTIMCLKFreq+0xaa>
7010505e:	f7fe ff1d 	bl	70103e9c <HAL_RCCEx_GetPLL3CLKFreq>
70105062:	e78e      	b.n	70104f82 <RCCEx_GetLPTIMCLKFreq+0xaa>
70105064:	0702102c 	.word	0x0702102c
70105068:	0701102c 	.word	0x0701102c
7010506c:	0702082c 	.word	0x0702082c
70105070:	07020c2c 	.word	0x07020c2c
70105074:	56028000 	.word	0x56028000
70105078:	07040c2c 	.word	0x07040c2c
7010507c:	07030c2c 	.word	0x07030c2c
70105080:	0703182c 	.word	0x0703182c
70105084:	07050c2c 	.word	0x07050c2c
70105088:	0705082c 	.word	0x0705082c
7010508c:	0705102c 	.word	0x0705102c

70105090 <HAL_RCCEx_GetPeriphCLKFreq>:
70105090:	b538      	push	{r3, r4, r5, lr}
70105092:	f100 4360 	add.w	r3, r0, #3758096384	@ 0xe0000000
70105096:	430b      	orrs	r3, r1
70105098:	f000 8444 	beq.w	70105924 <HAL_RCCEx_GetPeriphCLKFreq+0x894>
7010509c:	4bbf      	ldr	r3, [pc, #764]	@ (7010539c <HAL_RCCEx_GetPeriphCLKFreq+0x30c>)
7010509e:	4298      	cmp	r0, r3
701050a0:	f171 0300 	sbcs.w	r3, r1, #0
701050a4:	f080 80e6 	bcs.w	70105274 <HAL_RCCEx_GetPeriphCLKFreq+0x1e4>
701050a8:	f5a0 3380 	sub.w	r3, r0, #65536	@ 0x10000
701050ac:	430b      	orrs	r3, r1
701050ae:	f000 835b 	beq.w	70105768 <HAL_RCCEx_GetPeriphCLKFreq+0x6d8>
701050b2:	f1b0 1f01 	cmp.w	r0, #65537	@ 0x10001
701050b6:	f171 0300 	sbcs.w	r3, r1, #0
701050ba:	d26a      	bcs.n	70105192 <HAL_RCCEx_GetPeriphCLKFreq+0x102>
701050bc:	f5a0 7300 	sub.w	r3, r0, #512	@ 0x200
701050c0:	430b      	orrs	r3, r1
701050c2:	f000 82b9 	beq.w	70105638 <HAL_RCCEx_GetPeriphCLKFreq+0x5a8>
701050c6:	f240 2301 	movw	r3, #513	@ 0x201
701050ca:	4298      	cmp	r0, r3
701050cc:	f171 0300 	sbcs.w	r3, r1, #0
701050d0:	d224      	bcs.n	7010511c <HAL_RCCEx_GetPeriphCLKFreq+0x8c>
701050d2:	2809      	cmp	r0, #9
701050d4:	f171 0300 	sbcs.w	r3, r1, #0
701050d8:	d215      	bcs.n	70105106 <HAL_RCCEx_GetPeriphCLKFreq+0x76>
701050da:	ea50 0301 	orrs.w	r3, r0, r1
701050de:	d01b      	beq.n	70105118 <HAL_RCCEx_GetPeriphCLKFreq+0x88>
701050e0:	3801      	subs	r0, #1
701050e2:	f141 31ff 	adc.w	r1, r1, #4294967295
701050e6:	2808      	cmp	r0, #8
701050e8:	f171 0100 	sbcs.w	r1, r1, #0
701050ec:	d214      	bcs.n	70105118 <HAL_RCCEx_GetPeriphCLKFreq+0x88>
701050ee:	2807      	cmp	r0, #7
701050f0:	d812      	bhi.n	70105118 <HAL_RCCEx_GetPeriphCLKFreq+0x88>
701050f2:	e8df f010 	tbh	[pc, r0, lsl #1]
701050f6:	01a6      	.short	0x01a6
701050f8:	0011020f 	.word	0x0011020f
701050fc:	00110285 	.word	0x00110285
70105100:	00110011 	.word	0x00110011
70105104:	0235      	.short	0x0235
70105106:	f1a0 0310 	sub.w	r3, r0, #16
7010510a:	430b      	orrs	r3, r1
7010510c:	f000 8242 	beq.w	70105594 <HAL_RCCEx_GetPeriphCLKFreq+0x504>
70105110:	3820      	subs	r0, #32
70105112:	4308      	orrs	r0, r1
70105114:	f000 8268 	beq.w	701055e8 <HAL_RCCEx_GetPeriphCLKFreq+0x558>
70105118:	2000      	movs	r0, #0
7010511a:	e219      	b.n	70105550 <HAL_RCCEx_GetPeriphCLKFreq+0x4c0>
7010511c:	f5a0 5300 	sub.w	r3, r0, #8192	@ 0x2000
70105120:	430b      	orrs	r3, r1
70105122:	f000 831d 	beq.w	70105760 <HAL_RCCEx_GetPeriphCLKFreq+0x6d0>
70105126:	f242 0301 	movw	r3, #8193	@ 0x2001
7010512a:	4298      	cmp	r0, r3
7010512c:	f171 0300 	sbcs.w	r3, r1, #0
70105130:	d224      	bcs.n	7010517c <HAL_RCCEx_GetPeriphCLKFreq+0xec>
70105132:	f5a0 6300 	sub.w	r3, r0, #2048	@ 0x800
70105136:	430b      	orrs	r3, r1
70105138:	f000 82df 	beq.w	701056fa <HAL_RCCEx_GetPeriphCLKFreq+0x66a>
7010513c:	f5a0 5380 	sub.w	r3, r0, #4096	@ 0x1000
70105140:	430b      	orrs	r3, r1
70105142:	f000 8308 	beq.w	70105756 <HAL_RCCEx_GetPeriphCLKFreq+0x6c6>
70105146:	f5a0 6080 	sub.w	r0, r0, #1024	@ 0x400
7010514a:	4308      	orrs	r0, r1
7010514c:	d1e4      	bne.n	70105118 <HAL_RCCEx_GetPeriphCLKFreq+0x88>
7010514e:	4d94      	ldr	r5, [pc, #592]	@ (701053a0 <HAL_RCCEx_GetPeriphCLKFreq+0x310>)
70105150:	f8d5 314c 	ldr.w	r3, [r5, #332]	@ 0x14c
70105154:	f003 0303 	and.w	r3, r3, #3
70105158:	2b02      	cmp	r3, #2
7010515a:	f000 82c1 	beq.w	701056e0 <HAL_RCCEx_GetPeriphCLKFreq+0x650>
7010515e:	2b03      	cmp	r3, #3
70105160:	f000 8256 	beq.w	70105610 <HAL_RCCEx_GetPeriphCLKFreq+0x580>
70105164:	2b01      	cmp	r3, #1
70105166:	f000 824b 	beq.w	70105600 <HAL_RCCEx_GetPeriphCLKFreq+0x570>
7010516a:	f7fd f83d 	bl	701021e8 <HAL_RCC_GetSysClockFreq>
7010516e:	f7fd f93d 	bl	701023ec <RCCEx_GetHCLKFreq>
70105172:	6a6b      	ldr	r3, [r5, #36]	@ 0x24
70105174:	f003 0307 	and.w	r3, r3, #7
70105178:	40d8      	lsrs	r0, r3
7010517a:	e1e9      	b.n	70105550 <HAL_RCCEx_GetPeriphCLKFreq+0x4c0>
7010517c:	f5a0 4380 	sub.w	r3, r0, #16384	@ 0x4000
70105180:	430b      	orrs	r3, r1
70105182:	f000 82ef 	beq.w	70105764 <HAL_RCCEx_GetPeriphCLKFreq+0x6d4>
70105186:	f5a0 4000 	sub.w	r0, r0, #32768	@ 0x8000
7010518a:	4308      	orrs	r0, r1
7010518c:	d1c4      	bne.n	70105118 <HAL_RCCEx_GetPeriphCLKFreq+0x88>
7010518e:	4885      	ldr	r0, [pc, #532]	@ (701053a4 <HAL_RCCEx_GetPeriphCLKFreq+0x314>)
70105190:	e2e2      	b.n	70105758 <HAL_RCCEx_GetPeriphCLKFreq+0x6c8>
70105192:	f5a0 0300 	sub.w	r3, r0, #8388608	@ 0x800000
70105196:	430b      	orrs	r3, r1
70105198:	f000 82f6 	beq.w	70105788 <HAL_RCCEx_GetPeriphCLKFreq+0x6f8>
7010519c:	4b82      	ldr	r3, [pc, #520]	@ (701053a8 <HAL_RCCEx_GetPeriphCLKFreq+0x318>)
7010519e:	4298      	cmp	r0, r3
701051a0:	f171 0300 	sbcs.w	r3, r1, #0
701051a4:	d224      	bcs.n	701051f0 <HAL_RCCEx_GetPeriphCLKFreq+0x160>
701051a6:	f5a0 1380 	sub.w	r3, r0, #1048576	@ 0x100000
701051aa:	430b      	orrs	r3, r1
701051ac:	f000 82e8 	beq.w	70105780 <HAL_RCCEx_GetPeriphCLKFreq+0x6f0>
701051b0:	4b7e      	ldr	r3, [pc, #504]	@ (701053ac <HAL_RCCEx_GetPeriphCLKFreq+0x31c>)
701051b2:	4298      	cmp	r0, r3
701051b4:	f171 0300 	sbcs.w	r3, r1, #0
701051b8:	d20f      	bcs.n	701051da <HAL_RCCEx_GetPeriphCLKFreq+0x14a>
701051ba:	f5a0 2380 	sub.w	r3, r0, #262144	@ 0x40000
701051be:	430b      	orrs	r3, r1
701051c0:	f000 82d7 	beq.w	70105772 <HAL_RCCEx_GetPeriphCLKFreq+0x6e2>
701051c4:	f5a0 2300 	sub.w	r3, r0, #524288	@ 0x80000
701051c8:	430b      	orrs	r3, r1
701051ca:	f000 82d7 	beq.w	7010577c <HAL_RCCEx_GetPeriphCLKFreq+0x6ec>
701051ce:	f5a0 3000 	sub.w	r0, r0, #131072	@ 0x20000
701051d2:	4308      	orrs	r0, r1
701051d4:	d1a0      	bne.n	70105118 <HAL_RCCEx_GetPeriphCLKFreq+0x88>
701051d6:	4876      	ldr	r0, [pc, #472]	@ (701053b0 <HAL_RCCEx_GetPeriphCLKFreq+0x320>)
701051d8:	e2c7      	b.n	7010576a <HAL_RCCEx_GetPeriphCLKFreq+0x6da>
701051da:	f5a0 1300 	sub.w	r3, r0, #2097152	@ 0x200000
701051de:	430b      	orrs	r3, r1
701051e0:	f000 82d0 	beq.w	70105784 <HAL_RCCEx_GetPeriphCLKFreq+0x6f4>
701051e4:	f5a0 0080 	sub.w	r0, r0, #4194304	@ 0x400000
701051e8:	4308      	orrs	r0, r1
701051ea:	d195      	bne.n	70105118 <HAL_RCCEx_GetPeriphCLKFreq+0x88>
701051ec:	4871      	ldr	r0, [pc, #452]	@ (701053b4 <HAL_RCCEx_GetPeriphCLKFreq+0x324>)
701051ee:	e2c1      	b.n	70105774 <HAL_RCCEx_GetPeriphCLKFreq+0x6e4>
701051f0:	f100 437c 	add.w	r3, r0, #4227858432	@ 0xfc000000
701051f4:	430b      	orrs	r3, r1
701051f6:	f000 834a 	beq.w	7010588e <HAL_RCCEx_GetPeriphCLKFreq+0x7fe>
701051fa:	4b6f      	ldr	r3, [pc, #444]	@ (701053b8 <HAL_RCCEx_GetPeriphCLKFreq+0x328>)
701051fc:	4298      	cmp	r0, r3
701051fe:	f171 0300 	sbcs.w	r3, r1, #0
70105202:	d228      	bcs.n	70105256 <HAL_RCCEx_GetPeriphCLKFreq+0x1c6>
70105204:	f100 437f 	add.w	r3, r0, #4278190080	@ 0xff000000
70105208:	430b      	orrs	r3, r1
7010520a:	f000 82ff 	beq.w	7010580c <HAL_RCCEx_GetPeriphCLKFreq+0x77c>
7010520e:	f100 407e 	add.w	r0, r0, #4261412864	@ 0xfe000000
70105212:	4308      	orrs	r0, r1
70105214:	d180      	bne.n	70105118 <HAL_RCCEx_GetPeriphCLKFreq+0x88>
70105216:	4d62      	ldr	r5, [pc, #392]	@ (701053a0 <HAL_RCCEx_GetPeriphCLKFreq+0x310>)
70105218:	f8d5 3154 	ldr.w	r3, [r5, #340]	@ 0x154
7010521c:	f403 23e0 	and.w	r3, r3, #458752	@ 0x70000
70105220:	f5b3 2f80 	cmp.w	r3, #262144	@ 0x40000
70105224:	f000 8195 	beq.w	70105552 <HAL_RCCEx_GetPeriphCLKFreq+0x4c2>
70105228:	f200 8316 	bhi.w	70105858 <HAL_RCCEx_GetPeriphCLKFreq+0x7c8>
7010522c:	f5b3 3f00 	cmp.w	r3, #131072	@ 0x20000
70105230:	f000 831c 	beq.w	7010586c <HAL_RCCEx_GetPeriphCLKFreq+0x7dc>
70105234:	f240 81e1 	bls.w	701055fa <HAL_RCCEx_GetPeriphCLKFreq+0x56a>
70105238:	f5b3 3f40 	cmp.w	r3, #196608	@ 0x30000
7010523c:	f47f af6c 	bne.w	70105118 <HAL_RCCEx_GetPeriphCLKFreq+0x88>
70105240:	f7fd f88c 	bl	7010235c <LL_RCC_IC8_IsEnabled>
70105244:	2800      	cmp	r0, #0
70105246:	f43f af67 	beq.w	70105118 <HAL_RCCEx_GetPeriphCLKFreq+0x88>
7010524a:	f7fd f88f 	bl	7010236c <LL_RCC_IC8_GetDivider>
7010524e:	f8d5 30e0 	ldr.w	r3, [r5, #224]	@ 0xe0
70105252:	4604      	mov	r4, r0
70105254:	e191      	b.n	7010557a <HAL_RCCEx_GetPeriphCLKFreq+0x4ea>
70105256:	f100 4378 	add.w	r3, r0, #4160749568	@ 0xf8000000
7010525a:	430b      	orrs	r3, r1
7010525c:	f000 8341 	beq.w	701058e2 <HAL_RCCEx_GetPeriphCLKFreq+0x852>
70105260:	f100 4070 	add.w	r0, r0, #4026531840	@ 0xf0000000
70105264:	4308      	orrs	r0, r1
70105266:	f47f af57 	bne.w	70105118 <HAL_RCCEx_GetPeriphCLKFreq+0x88>
7010526a:	4854      	ldr	r0, [pc, #336]	@ (701053bc <HAL_RCCEx_GetPeriphCLKFreq+0x32c>)
7010526c:	e8bd 4038 	ldmia.w	sp!, {r3, r4, r5, lr}
70105270:	f7ff bbda 	b.w	70104a28 <RCCEx_GetSAICLKFreq>
70105274:	2300      	movs	r3, #0
70105276:	f44f 5280 	mov.w	r2, #4096	@ 0x1000
7010527a:	4291      	cmp	r1, r2
7010527c:	bf08      	it	eq
7010527e:	4298      	cmpeq	r0, r3
70105280:	f000 836c 	beq.w	7010595c <HAL_RCCEx_GetPeriphCLKFreq+0x8cc>
70105284:	4283      	cmp	r3, r0
70105286:	418a      	sbcs	r2, r1
70105288:	d35f      	bcc.n	7010534a <HAL_RCCEx_GetPeriphCLKFreq+0x2ba>
7010528a:	2210      	movs	r2, #16
7010528c:	4291      	cmp	r1, r2
7010528e:	bf08      	it	eq
70105290:	4298      	cmpeq	r0, r3
70105292:	f000 8356 	beq.w	70105942 <HAL_RCCEx_GetPeriphCLKFreq+0x8b2>
70105296:	4283      	cmp	r3, r0
70105298:	418a      	sbcs	r2, r1
7010529a:	d329      	bcc.n	701052f0 <HAL_RCCEx_GetPeriphCLKFreq+0x260>
7010529c:	2202      	movs	r2, #2
7010529e:	4291      	cmp	r1, r2
701052a0:	bf08      	it	eq
701052a2:	4298      	cmpeq	r0, r3
701052a4:	f000 8346 	beq.w	70105934 <HAL_RCCEx_GetPeriphCLKFreq+0x8a4>
701052a8:	4283      	cmp	r3, r0
701052aa:	418a      	sbcs	r2, r1
701052ac:	d314      	bcc.n	701052d8 <HAL_RCCEx_GetPeriphCLKFreq+0x248>
701052ae:	4299      	cmp	r1, r3
701052b0:	bf08      	it	eq
701052b2:	f1b0 4f00 	cmpeq.w	r0, #2147483648	@ 0x80000000
701052b6:	f000 8337 	beq.w	70105928 <HAL_RCCEx_GetPeriphCLKFreq+0x898>
701052ba:	2901      	cmp	r1, #1
701052bc:	bf08      	it	eq
701052be:	4298      	cmpeq	r0, r3
701052c0:	f000 8334 	beq.w	7010592c <HAL_RCCEx_GetPeriphCLKFreq+0x89c>
701052c4:	f100 4040 	add.w	r0, r0, #3221225472	@ 0xc0000000
701052c8:	4308      	orrs	r0, r1
701052ca:	f47f af25 	bne.w	70105118 <HAL_RCCEx_GetPeriphCLKFreq+0x88>
701052ce:	483c      	ldr	r0, [pc, #240]	@ (701053c0 <HAL_RCCEx_GetPeriphCLKFreq+0x330>)
701052d0:	e8bd 4038 	ldmia.w	sp!, {r3, r4, r5, lr}
701052d4:	f7ff bcdc 	b.w	70104c90 <RCCEx_GetSDMMCCLKFreq>
701052d8:	2904      	cmp	r1, #4
701052da:	bf08      	it	eq
701052dc:	4298      	cmpeq	r0, r3
701052de:	f000 832e 	beq.w	7010593e <HAL_RCCEx_GetPeriphCLKFreq+0x8ae>
701052e2:	2908      	cmp	r1, #8
701052e4:	bf08      	it	eq
701052e6:	4298      	cmpeq	r0, r3
701052e8:	f47f af16 	bne.w	70105118 <HAL_RCCEx_GetPeriphCLKFreq+0x88>
701052ec:	4835      	ldr	r0, [pc, #212]	@ (701053c4 <HAL_RCCEx_GetPeriphCLKFreq+0x334>)
701052ee:	e322      	b.n	70105936 <HAL_RCCEx_GetPeriphCLKFreq+0x8a6>
701052f0:	f44f 7200 	mov.w	r2, #512	@ 0x200
701052f4:	4291      	cmp	r1, r2
701052f6:	bf08      	it	eq
701052f8:	4298      	cmpeq	r0, r3
701052fa:	f000 832b 	beq.w	70105954 <HAL_RCCEx_GetPeriphCLKFreq+0x8c4>
701052fe:	4283      	cmp	r3, r0
70105300:	418a      	sbcs	r2, r1
70105302:	d311      	bcc.n	70105328 <HAL_RCCEx_GetPeriphCLKFreq+0x298>
70105304:	2940      	cmp	r1, #64	@ 0x40
70105306:	bf08      	it	eq
70105308:	4298      	cmpeq	r0, r3
7010530a:	f000 831c 	beq.w	70105946 <HAL_RCCEx_GetPeriphCLKFreq+0x8b6>
7010530e:	f5b1 7f80 	cmp.w	r1, #256	@ 0x100
70105312:	bf08      	it	eq
70105314:	4298      	cmpeq	r0, r3
70105316:	f000 8318 	beq.w	7010594a <HAL_RCCEx_GetPeriphCLKFreq+0x8ba>
7010531a:	2920      	cmp	r1, #32
7010531c:	bf08      	it	eq
7010531e:	2800      	cmpeq	r0, #0
70105320:	f47f aefa 	bne.w	70105118 <HAL_RCCEx_GetPeriphCLKFreq+0x88>
70105324:	4828      	ldr	r0, [pc, #160]	@ (701053c8 <HAL_RCCEx_GetPeriphCLKFreq+0x338>)
70105326:	e306      	b.n	70105936 <HAL_RCCEx_GetPeriphCLKFreq+0x8a6>
70105328:	f5b1 6f80 	cmp.w	r1, #1024	@ 0x400
7010532c:	bf08      	it	eq
7010532e:	4298      	cmpeq	r0, r3
70105330:	f000 8312 	beq.w	70105958 <HAL_RCCEx_GetPeriphCLKFreq+0x8c8>
70105334:	f5b1 6f00 	cmp.w	r1, #2048	@ 0x800
70105338:	bf08      	it	eq
7010533a:	4298      	cmpeq	r0, r3
7010533c:	f47f aeec 	bne.w	70105118 <HAL_RCCEx_GetPeriphCLKFreq+0x88>
70105340:	4822      	ldr	r0, [pc, #136]	@ (701053cc <HAL_RCCEx_GetPeriphCLKFreq+0x33c>)
70105342:	e8bd 4038 	ldmia.w	sp!, {r3, r4, r5, lr}
70105346:	f7ff b91f 	b.w	70104588 <RCCEx_GetUARTCLKFreq>
7010534a:	f44f 2200 	mov.w	r2, #524288	@ 0x80000
7010534e:	4291      	cmp	r1, r2
70105350:	bf08      	it	eq
70105352:	4298      	cmpeq	r0, r3
70105354:	f000 830c 	beq.w	70105970 <HAL_RCCEx_GetPeriphCLKFreq+0x8e0>
70105358:	4283      	cmp	r3, r0
7010535a:	418a      	sbcs	r2, r1
7010535c:	d34b      	bcc.n	701053f6 <HAL_RCCEx_GetPeriphCLKFreq+0x366>
7010535e:	f44f 3280 	mov.w	r2, #65536	@ 0x10000
70105362:	4291      	cmp	r1, r2
70105364:	bf08      	it	eq
70105366:	4298      	cmpeq	r0, r3
70105368:	f000 82fe 	beq.w	70105968 <HAL_RCCEx_GetPeriphCLKFreq+0x8d8>
7010536c:	4283      	cmp	r3, r0
7010536e:	418a      	sbcs	r2, r1
70105370:	d330      	bcc.n	701053d4 <HAL_RCCEx_GetPeriphCLKFreq+0x344>
70105372:	f5b1 4f80 	cmp.w	r1, #16384	@ 0x4000
70105376:	bf08      	it	eq
70105378:	4298      	cmpeq	r0, r3
7010537a:	f000 82f1 	beq.w	70105960 <HAL_RCCEx_GetPeriphCLKFreq+0x8d0>
7010537e:	f5b1 4f00 	cmp.w	r1, #32768	@ 0x8000
70105382:	bf08      	it	eq
70105384:	4298      	cmpeq	r0, r3
70105386:	f000 82ed 	beq.w	70105964 <HAL_RCCEx_GetPeriphCLKFreq+0x8d4>
7010538a:	f5b1 5f00 	cmp.w	r1, #8192	@ 0x2000
7010538e:	bf08      	it	eq
70105390:	2800      	cmpeq	r0, #0
70105392:	f47f aec1 	bne.w	70105118 <HAL_RCCEx_GetPeriphCLKFreq+0x88>
70105396:	480e      	ldr	r0, [pc, #56]	@ (701053d0 <HAL_RCCEx_GetPeriphCLKFreq+0x340>)
70105398:	e2d8      	b.n	7010594c <HAL_RCCEx_GetPeriphCLKFreq+0x8bc>
7010539a:	bf00      	nop
7010539c:	20000001 	.word	0x20000001
701053a0:	56028000 	.word	0x56028000
701053a4:	07000c0c 	.word	0x07000c0c
701053a8:	00800001 	.word	0x00800001
701053ac:	00100001 	.word	0x00100001
701053b0:	0700140c 	.word	0x0700140c
701053b4:	0700182c 	.word	0x0700182c
701053b8:	04000001 	.word	0x04000001
701053bc:	07001418 	.word	0x07001418
701053c0:	0300001c 	.word	0x0300001c
701053c4:	07000c20 	.word	0x07000c20
701053c8:	07001420 	.word	0x07001420
701053cc:	07000c30 	.word	0x07000c30
701053d0:	07001430 	.word	0x07001430
701053d4:	f5b1 3f00 	cmp.w	r1, #131072	@ 0x20000
701053d8:	bf08      	it	eq
701053da:	4298      	cmpeq	r0, r3
701053dc:	f000 82c6 	beq.w	7010596c <HAL_RCCEx_GetPeriphCLKFreq+0x8dc>
701053e0:	f5b1 2f80 	cmp.w	r1, #262144	@ 0x40000
701053e4:	bf08      	it	eq
701053e6:	4298      	cmpeq	r0, r3
701053e8:	f47f ae96 	bne.w	70105118 <HAL_RCCEx_GetPeriphCLKFreq+0x88>
701053ec:	48b4      	ldr	r0, [pc, #720]	@ (701056c0 <HAL_RCCEx_GetPeriphCLKFreq+0x630>)
701053ee:	e8bd 4038 	ldmia.w	sp!, {r3, r4, r5, lr}
701053f2:	f7fe bf33 	b.w	7010425c <RCCEx_GetOTGPHYCLKFreq>
701053f6:	f44f 0280 	mov.w	r2, #4194304	@ 0x400000
701053fa:	4291      	cmp	r1, r2
701053fc:	bf08      	it	eq
701053fe:	4298      	cmpeq	r0, r3
70105400:	f000 82bd 	beq.w	7010597e <HAL_RCCEx_GetPeriphCLKFreq+0x8ee>
70105404:	4283      	cmp	r3, r0
70105406:	418a      	sbcs	r2, r1
70105408:	d30d      	bcc.n	70105426 <HAL_RCCEx_GetPeriphCLKFreq+0x396>
7010540a:	f5b1 1f80 	cmp.w	r1, #1048576	@ 0x100000
7010540e:	bf08      	it	eq
70105410:	4298      	cmpeq	r0, r3
70105412:	f000 82b2 	beq.w	7010597a <HAL_RCCEx_GetPeriphCLKFreq+0x8ea>
70105416:	f5b1 1f00 	cmp.w	r1, #2097152	@ 0x200000
7010541a:	bf08      	it	eq
7010541c:	4298      	cmpeq	r0, r3
7010541e:	f47f ae7b 	bne.w	70105118 <HAL_RCCEx_GetPeriphCLKFreq+0x88>
70105422:	48a8      	ldr	r0, [pc, #672]	@ (701056c4 <HAL_RCCEx_GetPeriphCLKFreq+0x634>)
70105424:	e2a5      	b.n	70105972 <HAL_RCCEx_GetPeriphCLKFreq+0x8e2>
70105426:	f5b1 0f00 	cmp.w	r1, #8388608	@ 0x800000
7010542a:	bf08      	it	eq
7010542c:	4298      	cmpeq	r0, r3
7010542e:	f000 82ab 	beq.w	70105988 <HAL_RCCEx_GetPeriphCLKFreq+0x8f8>
70105432:	f1b1 7f80 	cmp.w	r1, #16777216	@ 0x1000000
70105436:	bf08      	it	eq
70105438:	4298      	cmpeq	r0, r3
7010543a:	f47f ae6d 	bne.w	70105118 <HAL_RCCEx_GetPeriphCLKFreq+0x88>
7010543e:	48a2      	ldr	r0, [pc, #648]	@ (701056c8 <HAL_RCCEx_GetPeriphCLKFreq+0x638>)
70105440:	e29e      	b.n	70105980 <HAL_RCCEx_GetPeriphCLKFreq+0x8f0>
70105442:	4da2      	ldr	r5, [pc, #648]	@ (701056cc <HAL_RCCEx_GetPeriphCLKFreq+0x63c>)
70105444:	f8d5 3144 	ldr.w	r3, [r5, #324]	@ 0x144
70105448:	f003 0370 	and.w	r3, r3, #112	@ 0x70
7010544c:	2b40      	cmp	r3, #64	@ 0x40
7010544e:	d053      	beq.n	701054f8 <HAL_RCCEx_GetPeriphCLKFreq+0x468>
70105450:	d814      	bhi.n	7010547c <HAL_RCCEx_GetPeriphCLKFreq+0x3ec>
70105452:	2b20      	cmp	r3, #32
70105454:	d025      	beq.n	701054a2 <HAL_RCCEx_GetPeriphCLKFreq+0x412>
70105456:	d805      	bhi.n	70105464 <HAL_RCCEx_GetPeriphCLKFreq+0x3d4>
70105458:	bb03      	cbnz	r3, 7010549c <HAL_RCCEx_GetPeriphCLKFreq+0x40c>
7010545a:	f7fc fec5 	bl	701021e8 <HAL_RCC_GetSysClockFreq>
7010545e:	f7fc ffc5 	bl	701023ec <RCCEx_GetHCLKFreq>
70105462:	e002      	b.n	7010546a <HAL_RCCEx_GetPeriphCLKFreq+0x3da>
70105464:	2b30      	cmp	r3, #48	@ 0x30
70105466:	d034      	beq.n	701054d2 <HAL_RCCEx_GetPeriphCLKFreq+0x442>
70105468:	2000      	movs	r0, #0
7010546a:	4b98      	ldr	r3, [pc, #608]	@ (701056cc <HAL_RCCEx_GetPeriphCLKFreq+0x63c>)
7010546c:	f8d3 3144 	ldr.w	r3, [r3, #324]	@ 0x144
70105470:	f3c3 2307 	ubfx	r3, r3, #8, #8
70105474:	3301      	adds	r3, #1
70105476:	fbb0 f0f3 	udiv	r0, r0, r3
7010547a:	e069      	b.n	70105550 <HAL_RCCEx_GetPeriphCLKFreq+0x4c0>
7010547c:	2b60      	cmp	r3, #96	@ 0x60
7010547e:	d047      	beq.n	70105510 <HAL_RCCEx_GetPeriphCLKFreq+0x480>
70105480:	2b70      	cmp	r3, #112	@ 0x70
70105482:	d03f      	beq.n	70105504 <HAL_RCCEx_GetPeriphCLKFreq+0x474>
70105484:	2b50      	cmp	r3, #80	@ 0x50
70105486:	d1ef      	bne.n	70105468 <HAL_RCCEx_GetPeriphCLKFreq+0x3d8>
70105488:	f7fc ff1e 	bl	701022c8 <LL_RCC_HSI_IsReady>
7010548c:	2800      	cmp	r0, #0
7010548e:	d0eb      	beq.n	70105468 <HAL_RCCEx_GetPeriphCLKFreq+0x3d8>
70105490:	6cab      	ldr	r3, [r5, #72]	@ 0x48
70105492:	488f      	ldr	r0, [pc, #572]	@ (701056d0 <HAL_RCCEx_GetPeriphCLKFreq+0x640>)
70105494:	f3c3 13c1 	ubfx	r3, r3, #7, #2
70105498:	40d8      	lsrs	r0, r3
7010549a:	e7e6      	b.n	7010546a <HAL_RCCEx_GetPeriphCLKFreq+0x3da>
7010549c:	f7fe fd7e 	bl	70103f9c <RCCEx_GetCLKPCLKFreq.constprop.0>
701054a0:	e7e3      	b.n	7010546a <HAL_RCCEx_GetPeriphCLKFreq+0x3da>
701054a2:	f7fc ff49 	bl	70102338 <LL_RCC_IC7_IsEnabled>
701054a6:	2800      	cmp	r0, #0
701054a8:	d0de      	beq.n	70105468 <HAL_RCCEx_GetPeriphCLKFreq+0x3d8>
701054aa:	f7fc ff4d 	bl	70102348 <LL_RCC_IC7_GetDivider>
701054ae:	4604      	mov	r4, r0
701054b0:	f8d5 30dc 	ldr.w	r3, [r5, #220]	@ 0xdc
701054b4:	f003 5340 	and.w	r3, r3, #805306368	@ 0x30000000
701054b8:	f1b3 5f00 	cmp.w	r3, #536870912	@ 0x20000000
701054bc:	d019      	beq.n	701054f2 <HAL_RCCEx_GetPeriphCLKFreq+0x462>
701054be:	d812      	bhi.n	701054e6 <HAL_RCCEx_GetPeriphCLKFreq+0x456>
701054c0:	b913      	cbnz	r3, 701054c8 <HAL_RCCEx_GetPeriphCLKFreq+0x438>
701054c2:	f7fe fc6b 	bl	70103d9c <HAL_RCCEx_GetPLL1CLKFreq>
701054c6:	e001      	b.n	701054cc <HAL_RCCEx_GetPeriphCLKFreq+0x43c>
701054c8:	f7fe fca8 	bl	70103e1c <HAL_RCCEx_GetPLL2CLKFreq>
701054cc:	fbb0 f0f4 	udiv	r0, r0, r4
701054d0:	e7cb      	b.n	7010546a <HAL_RCCEx_GetPeriphCLKFreq+0x3da>
701054d2:	f7fc ff43 	bl	7010235c <LL_RCC_IC8_IsEnabled>
701054d6:	2800      	cmp	r0, #0
701054d8:	d0c6      	beq.n	70105468 <HAL_RCCEx_GetPeriphCLKFreq+0x3d8>
701054da:	f7fc ff47 	bl	7010236c <LL_RCC_IC8_GetDivider>
701054de:	f8d5 30e0 	ldr.w	r3, [r5, #224]	@ 0xe0
701054e2:	4604      	mov	r4, r0
701054e4:	e7e6      	b.n	701054b4 <HAL_RCCEx_GetPeriphCLKFreq+0x424>
701054e6:	f1b3 5f40 	cmp.w	r3, #805306368	@ 0x30000000
701054ea:	d1bd      	bne.n	70105468 <HAL_RCCEx_GetPeriphCLKFreq+0x3d8>
701054ec:	f7fe fd16 	bl	70103f1c <HAL_RCCEx_GetPLL4CLKFreq>
701054f0:	e7ec      	b.n	701054cc <HAL_RCCEx_GetPeriphCLKFreq+0x43c>
701054f2:	f7fe fcd3 	bl	70103e9c <HAL_RCCEx_GetPLL3CLKFreq>
701054f6:	e7e9      	b.n	701054cc <HAL_RCCEx_GetPeriphCLKFreq+0x43c>
701054f8:	f7fc feee 	bl	701022d8 <LL_RCC_MSI_IsReady>
701054fc:	2800      	cmp	r0, #0
701054fe:	d0b3      	beq.n	70105468 <HAL_RCCEx_GetPeriphCLKFreq+0x3d8>
70105500:	4874      	ldr	r0, [pc, #464]	@ (701056d4 <HAL_RCCEx_GetPeriphCLKFreq+0x644>)
70105502:	e7b2      	b.n	7010546a <HAL_RCCEx_GetPeriphCLKFreq+0x3da>
70105504:	f7fc fe70 	bl	701021e8 <HAL_RCC_GetSysClockFreq>
70105508:	6a6b      	ldr	r3, [r5, #36]	@ 0x24
7010550a:	f3c3 6301 	ubfx	r3, r3, #24, #2
7010550e:	e7c3      	b.n	70105498 <HAL_RCCEx_GetPeriphCLKFreq+0x408>
70105510:	4871      	ldr	r0, [pc, #452]	@ (701056d8 <HAL_RCCEx_GetPeriphCLKFreq+0x648>)
70105512:	e7aa      	b.n	7010546a <HAL_RCCEx_GetPeriphCLKFreq+0x3da>
70105514:	4d6d      	ldr	r5, [pc, #436]	@ (701056cc <HAL_RCCEx_GetPeriphCLKFreq+0x63c>)
70105516:	f8d5 3144 	ldr.w	r3, [r5, #324]	@ 0x144
7010551a:	f003 0307 	and.w	r3, r3, #7
7010551e:	3b01      	subs	r3, #1
70105520:	2b06      	cmp	r3, #6
70105522:	f200 80f5 	bhi.w	70105710 <HAL_RCCEx_GetPeriphCLKFreq+0x680>
70105526:	a201      	add	r2, pc, #4	@ (adr r2, 7010552c <HAL_RCCEx_GetPeriphCLKFreq+0x49c>)
70105528:	f852 f023 	ldr.w	pc, [r2, r3, lsl #2]
7010552c:	70105601 	.word	0x70105601
70105530:	7010586d 	.word	0x7010586d
70105534:	70105241 	.word	0x70105241
70105538:	70105553 	.word	0x70105553
7010553c:	701055c1 	.word	0x701055c1
70105540:	7010598d 	.word	0x7010598d
70105544:	70105883 	.word	0x70105883
70105548:	f7fe fc68 	bl	70103e1c <HAL_RCCEx_GetPLL2CLKFreq>
7010554c:	fbb0 f0f4 	udiv	r0, r0, r4
70105550:	bd38      	pop	{r3, r4, r5, pc}
70105552:	f7fc fec1 	bl	701022d8 <LL_RCC_MSI_IsReady>
70105556:	2800      	cmp	r0, #0
70105558:	f43f adde 	beq.w	70105118 <HAL_RCCEx_GetPeriphCLKFreq+0x88>
7010555c:	485d      	ldr	r0, [pc, #372]	@ (701056d4 <HAL_RCCEx_GetPeriphCLKFreq+0x644>)
7010555e:	e7f7      	b.n	70105550 <HAL_RCCEx_GetPeriphCLKFreq+0x4c0>
70105560:	4b5a      	ldr	r3, [pc, #360]	@ (701056cc <HAL_RCCEx_GetPeriphCLKFreq+0x63c>)
70105562:	f8d3 2240 	ldr.w	r2, [r3, #576]	@ 0x240
70105566:	0395      	lsls	r5, r2, #14
70105568:	f57f add6 	bpl.w	70105118 <HAL_RCCEx_GetPeriphCLKFreq+0x88>
7010556c:	f8d3 0108 	ldr.w	r0, [r3, #264]	@ 0x108
70105570:	f8d3 3108 	ldr.w	r3, [r3, #264]	@ 0x108
70105574:	f3c0 4007 	ubfx	r0, r0, #16, #8
70105578:	1c44      	adds	r4, r0, #1
7010557a:	f003 5340 	and.w	r3, r3, #805306368	@ 0x30000000
7010557e:	f1b3 5f00 	cmp.w	r3, #536870912	@ 0x20000000
70105582:	f000 81ab 	beq.w	701058dc <HAL_RCCEx_GetPeriphCLKFreq+0x84c>
70105586:	f200 81a2 	bhi.w	701058ce <HAL_RCCEx_GetPeriphCLKFreq+0x83e>
7010558a:	2b00      	cmp	r3, #0
7010558c:	d1dc      	bne.n	70105548 <HAL_RCCEx_GetPeriphCLKFreq+0x4b8>
7010558e:	f7fe fc05 	bl	70103d9c <HAL_RCCEx_GetPLL1CLKFreq>
70105592:	e7db      	b.n	7010554c <HAL_RCCEx_GetPeriphCLKFreq+0x4bc>
70105594:	4d4d      	ldr	r5, [pc, #308]	@ (701056cc <HAL_RCCEx_GetPeriphCLKFreq+0x63c>)
70105596:	f8d5 3144 	ldr.w	r3, [r5, #324]	@ 0x144
7010559a:	f403 1340 	and.w	r3, r3, #3145728	@ 0x300000
7010559e:	f5b3 1f00 	cmp.w	r3, #2097152	@ 0x200000
701055a2:	d014      	beq.n	701055ce <HAL_RCCEx_GetPeriphCLKFreq+0x53e>
701055a4:	d808      	bhi.n	701055b8 <HAL_RCCEx_GetPeriphCLKFreq+0x528>
701055a6:	bb5b      	cbnz	r3, 70105600 <HAL_RCCEx_GetPeriphCLKFreq+0x570>
701055a8:	f7fc fe1e 	bl	701021e8 <HAL_RCC_GetSysClockFreq>
701055ac:	f7fc ff1e 	bl	701023ec <RCCEx_GetHCLKFreq>
701055b0:	6a6b      	ldr	r3, [r5, #36]	@ 0x24
701055b2:	f3c3 4302 	ubfx	r3, r3, #16, #3
701055b6:	e5df      	b.n	70105178 <HAL_RCCEx_GetPeriphCLKFreq+0xe8>
701055b8:	f5b3 1f40 	cmp.w	r3, #3145728	@ 0x300000
701055bc:	f47f adac 	bne.w	70105118 <HAL_RCCEx_GetPeriphCLKFreq+0x88>
701055c0:	f7fc fe82 	bl	701022c8 <LL_RCC_HSI_IsReady>
701055c4:	2800      	cmp	r0, #0
701055c6:	f43f ada7 	beq.w	70105118 <HAL_RCCEx_GetPeriphCLKFreq+0x88>
701055ca:	6cab      	ldr	r3, [r5, #72]	@ 0x48
701055cc:	e133      	b.n	70105836 <HAL_RCCEx_GetPeriphCLKFreq+0x7a6>
701055ce:	f8d5 3240 	ldr.w	r3, [r5, #576]	@ 0x240
701055d2:	03dc      	lsls	r4, r3, #15
701055d4:	f57f ada0 	bpl.w	70105118 <HAL_RCCEx_GetPeriphCLKFreq+0x88>
701055d8:	f8d5 0104 	ldr.w	r0, [r5, #260]	@ 0x104
701055dc:	f8d5 3104 	ldr.w	r3, [r5, #260]	@ 0x104
701055e0:	f3c0 4007 	ubfx	r0, r0, #16, #8
701055e4:	1c44      	adds	r4, r0, #1
701055e6:	e7c8      	b.n	7010557a <HAL_RCCEx_GetPeriphCLKFreq+0x4ea>
701055e8:	4a38      	ldr	r2, [pc, #224]	@ (701056cc <HAL_RCCEx_GetPeriphCLKFreq+0x63c>)
701055ea:	f8d2 3148 	ldr.w	r3, [r2, #328]	@ 0x148
701055ee:	f403 5340 	and.w	r3, r3, #12288	@ 0x3000
701055f2:	f5b3 5f00 	cmp.w	r3, #8192	@ 0x2000
701055f6:	d012      	beq.n	7010561e <HAL_RCCEx_GetPeriphCLKFreq+0x58e>
701055f8:	d806      	bhi.n	70105608 <HAL_RCCEx_GetPeriphCLKFreq+0x578>
701055fa:	2b00      	cmp	r3, #0
701055fc:	f000 8088 	beq.w	70105710 <HAL_RCCEx_GetPeriphCLKFreq+0x680>
70105600:	e8bd 4038 	ldmia.w	sp!, {r3, r4, r5, lr}
70105604:	f7fe bcca 	b.w	70103f9c <RCCEx_GetCLKPCLKFreq.constprop.0>
70105608:	f5b3 5f40 	cmp.w	r3, #12288	@ 0x3000
7010560c:	f47f ad84 	bne.w	70105118 <HAL_RCCEx_GetPeriphCLKFreq+0x88>
70105610:	f7fc fe52 	bl	701022b8 <LL_RCC_HSE_IsReady>
70105614:	2800      	cmp	r0, #0
70105616:	f43f ad7f 	beq.w	70105118 <HAL_RCCEx_GetPeriphCLKFreq+0x88>
7010561a:	4830      	ldr	r0, [pc, #192]	@ (701056dc <HAL_RCCEx_GetPeriphCLKFreq+0x64c>)
7010561c:	e798      	b.n	70105550 <HAL_RCCEx_GetPeriphCLKFreq+0x4c0>
7010561e:	f8d2 3240 	ldr.w	r3, [r2, #576]	@ 0x240
70105622:	0518      	lsls	r0, r3, #20
70105624:	f57f ad78 	bpl.w	70105118 <HAL_RCCEx_GetPeriphCLKFreq+0x88>
70105628:	f8d2 00f0 	ldr.w	r0, [r2, #240]	@ 0xf0
7010562c:	f8d2 30f0 	ldr.w	r3, [r2, #240]	@ 0xf0
70105630:	f3c0 4007 	ubfx	r0, r0, #16, #8
70105634:	1c44      	adds	r4, r0, #1
70105636:	e7a0      	b.n	7010557a <HAL_RCCEx_GetPeriphCLKFreq+0x4ea>
70105638:	4a24      	ldr	r2, [pc, #144]	@ (701056cc <HAL_RCCEx_GetPeriphCLKFreq+0x63c>)
7010563a:	f8d2 3148 	ldr.w	r3, [r2, #328]	@ 0x148
7010563e:	f003 0303 	and.w	r3, r3, #3
70105642:	2b02      	cmp	r3, #2
70105644:	d010      	beq.n	70105668 <HAL_RCCEx_GetPeriphCLKFreq+0x5d8>
70105646:	2b03      	cmp	r3, #3
70105648:	d034      	beq.n	701056b4 <HAL_RCCEx_GetPeriphCLKFreq+0x624>
7010564a:	2b01      	cmp	r3, #1
7010564c:	d009      	beq.n	70105662 <HAL_RCCEx_GetPeriphCLKFreq+0x5d2>
7010564e:	f7fc fdcb 	bl	701021e8 <HAL_RCC_GetSysClockFreq>
70105652:	f7fc fecb 	bl	701023ec <RCCEx_GetHCLKFreq>
70105656:	4b1d      	ldr	r3, [pc, #116]	@ (701056cc <HAL_RCCEx_GetPeriphCLKFreq+0x63c>)
70105658:	f8d3 3148 	ldr.w	r3, [r3, #328]	@ 0x148
7010565c:	f3c3 1303 	ubfx	r3, r3, #4, #4
70105660:	e708      	b.n	70105474 <HAL_RCCEx_GetPeriphCLKFreq+0x3e4>
70105662:	f7fe fc9b 	bl	70103f9c <RCCEx_GetCLKPCLKFreq.constprop.0>
70105666:	e7f6      	b.n	70105656 <HAL_RCCEx_GetPeriphCLKFreq+0x5c6>
70105668:	f8d2 3240 	ldr.w	r3, [r2, #576]	@ 0x240
7010566c:	04d9      	lsls	r1, r3, #19
7010566e:	d516      	bpl.n	7010569e <HAL_RCCEx_GetPeriphCLKFreq+0x60e>
70105670:	f8d2 00f4 	ldr.w	r0, [r2, #244]	@ 0xf4
70105674:	f8d2 30f4 	ldr.w	r3, [r2, #244]	@ 0xf4
70105678:	f3c0 4007 	ubfx	r0, r0, #16, #8
7010567c:	f003 5340 	and.w	r3, r3, #805306368	@ 0x30000000
70105680:	f1b3 5f00 	cmp.w	r3, #536870912	@ 0x20000000
70105684:	f100 0401 	add.w	r4, r0, #1
70105688:	d00e      	beq.n	701056a8 <HAL_RCCEx_GetPeriphCLKFreq+0x618>
7010568a:	d805      	bhi.n	70105698 <HAL_RCCEx_GetPeriphCLKFreq+0x608>
7010568c:	b94b      	cbnz	r3, 701056a2 <HAL_RCCEx_GetPeriphCLKFreq+0x612>
7010568e:	f7fe fb85 	bl	70103d9c <HAL_RCCEx_GetPLL1CLKFreq>
70105692:	fbb0 f0f4 	udiv	r0, r0, r4
70105696:	e7de      	b.n	70105656 <HAL_RCCEx_GetPeriphCLKFreq+0x5c6>
70105698:	f1b3 5f40 	cmp.w	r3, #805306368	@ 0x30000000
7010569c:	d007      	beq.n	701056ae <HAL_RCCEx_GetPeriphCLKFreq+0x61e>
7010569e:	2000      	movs	r0, #0
701056a0:	e7d9      	b.n	70105656 <HAL_RCCEx_GetPeriphCLKFreq+0x5c6>
701056a2:	f7fe fbbb 	bl	70103e1c <HAL_RCCEx_GetPLL2CLKFreq>
701056a6:	e7f4      	b.n	70105692 <HAL_RCCEx_GetPeriphCLKFreq+0x602>
701056a8:	f7fe fbf8 	bl	70103e9c <HAL_RCCEx_GetPLL3CLKFreq>
701056ac:	e7f1      	b.n	70105692 <HAL_RCCEx_GetPeriphCLKFreq+0x602>
701056ae:	f7fe fc35 	bl	70103f1c <HAL_RCCEx_GetPLL4CLKFreq>
701056b2:	e7ee      	b.n	70105692 <HAL_RCCEx_GetPeriphCLKFreq+0x602>
701056b4:	f7fc fe00 	bl	701022b8 <LL_RCC_HSE_IsReady>
701056b8:	2800      	cmp	r0, #0
701056ba:	d0f0      	beq.n	7010569e <HAL_RCCEx_GetPeriphCLKFreq+0x60e>
701056bc:	4807      	ldr	r0, [pc, #28]	@ (701056dc <HAL_RCCEx_GetPeriphCLKFreq+0x64c>)
701056be:	e7ca      	b.n	70105656 <HAL_RCCEx_GetPeriphCLKFreq+0x5c6>
701056c0:	03000c14 	.word	0x03000c14
701056c4:	01001814 	.word	0x01001814
701056c8:	03000814 	.word	0x03000814
701056cc:	56028000 	.word	0x56028000
701056d0:	03d09000 	.word	0x03d09000
701056d4:	003d0900 	.word	0x003d0900
701056d8:	00bb8000 	.word	0x00bb8000
701056dc:	016e3600 	.word	0x016e3600
701056e0:	f8d5 3240 	ldr.w	r3, [r5, #576]	@ 0x240
701056e4:	035b      	lsls	r3, r3, #13
701056e6:	f57f ad17 	bpl.w	70105118 <HAL_RCCEx_GetPeriphCLKFreq+0x88>
701056ea:	f8d5 010c 	ldr.w	r0, [r5, #268]	@ 0x10c
701056ee:	f8d5 310c 	ldr.w	r3, [r5, #268]	@ 0x10c
701056f2:	f3c0 4007 	ubfx	r0, r0, #16, #8
701056f6:	1c44      	adds	r4, r0, #1
701056f8:	e73f      	b.n	7010557a <HAL_RCCEx_GetPeriphCLKFreq+0x4ea>
701056fa:	4ba5      	ldr	r3, [pc, #660]	@ (70105990 <HAL_RCCEx_GetPeriphCLKFreq+0x900>)
701056fc:	f8d3 214c 	ldr.w	r2, [r3, #332]	@ 0x14c
70105700:	f002 0230 	and.w	r2, r2, #48	@ 0x30
70105704:	2a20      	cmp	r2, #32
70105706:	d019      	beq.n	7010573c <HAL_RCCEx_GetPeriphCLKFreq+0x6ac>
70105708:	d808      	bhi.n	7010571c <HAL_RCCEx_GetPeriphCLKFreq+0x68c>
7010570a:	2a00      	cmp	r2, #0
7010570c:	f47f af78 	bne.w	70105600 <HAL_RCCEx_GetPeriphCLKFreq+0x570>
70105710:	f7fc fd6a 	bl	701021e8 <HAL_RCC_GetSysClockFreq>
70105714:	e8bd 4038 	ldmia.w	sp!, {r3, r4, r5, lr}
70105718:	f7fc be68 	b.w	701023ec <RCCEx_GetHCLKFreq>
7010571c:	2a30      	cmp	r2, #48	@ 0x30
7010571e:	f47f acfb 	bne.w	70105118 <HAL_RCCEx_GetPeriphCLKFreq+0x88>
70105722:	f8d3 2240 	ldr.w	r2, [r3, #576]	@ 0x240
70105726:	0714      	lsls	r4, r2, #28
70105728:	f57f acf6 	bpl.w	70105118 <HAL_RCCEx_GetPeriphCLKFreq+0x88>
7010572c:	f8d3 00d0 	ldr.w	r0, [r3, #208]	@ 0xd0
70105730:	f8d3 30d0 	ldr.w	r3, [r3, #208]	@ 0xd0
70105734:	f3c0 4007 	ubfx	r0, r0, #16, #8
70105738:	1c44      	adds	r4, r0, #1
7010573a:	e71e      	b.n	7010557a <HAL_RCCEx_GetPeriphCLKFreq+0x4ea>
7010573c:	f8d3 2240 	ldr.w	r2, [r3, #576]	@ 0x240
70105740:	0755      	lsls	r5, r2, #29
70105742:	f57f ace9 	bpl.w	70105118 <HAL_RCCEx_GetPeriphCLKFreq+0x88>
70105746:	f8d3 00cc 	ldr.w	r0, [r3, #204]	@ 0xcc
7010574a:	f8d3 30cc 	ldr.w	r3, [r3, #204]	@ 0xcc
7010574e:	f3c0 4007 	ubfx	r0, r0, #16, #8
70105752:	1c44      	adds	r4, r0, #1
70105754:	e711      	b.n	7010557a <HAL_RCCEx_GetPeriphCLKFreq+0x4ea>
70105756:	488f      	ldr	r0, [pc, #572]	@ (70105994 <HAL_RCCEx_GetPeriphCLKFreq+0x904>)
70105758:	e8bd 4038 	ldmia.w	sp!, {r3, r4, r5, lr}
7010575c:	f7ff bafe 	b.w	70104d5c <RCCEx_GetI2CCLKFreq>
70105760:	488d      	ldr	r0, [pc, #564]	@ (70105998 <HAL_RCCEx_GetPeriphCLKFreq+0x908>)
70105762:	e7f9      	b.n	70105758 <HAL_RCCEx_GetPeriphCLKFreq+0x6c8>
70105764:	488d      	ldr	r0, [pc, #564]	@ (7010599c <HAL_RCCEx_GetPeriphCLKFreq+0x90c>)
70105766:	e7f7      	b.n	70105758 <HAL_RCCEx_GetPeriphCLKFreq+0x6c8>
70105768:	488d      	ldr	r0, [pc, #564]	@ (701059a0 <HAL_RCCEx_GetPeriphCLKFreq+0x910>)
7010576a:	e8bd 4038 	ldmia.w	sp!, {r3, r4, r5, lr}
7010576e:	f7ff ba03 	b.w	70104b78 <RCCEx_GetI3CCLKFreq>
70105772:	488c      	ldr	r0, [pc, #560]	@ (701059a4 <HAL_RCCEx_GetPeriphCLKFreq+0x914>)
70105774:	e8bd 4038 	ldmia.w	sp!, {r3, r4, r5, lr}
70105778:	f7ff bbae 	b.w	70104ed8 <RCCEx_GetLPTIMCLKFreq>
7010577c:	488a      	ldr	r0, [pc, #552]	@ (701059a8 <HAL_RCCEx_GetPeriphCLKFreq+0x918>)
7010577e:	e7f9      	b.n	70105774 <HAL_RCCEx_GetPeriphCLKFreq+0x6e4>
70105780:	488a      	ldr	r0, [pc, #552]	@ (701059ac <HAL_RCCEx_GetPeriphCLKFreq+0x91c>)
70105782:	e7f7      	b.n	70105774 <HAL_RCCEx_GetPeriphCLKFreq+0x6e4>
70105784:	488a      	ldr	r0, [pc, #552]	@ (701059b0 <HAL_RCCEx_GetPeriphCLKFreq+0x920>)
70105786:	e7f5      	b.n	70105774 <HAL_RCCEx_GetPeriphCLKFreq+0x6e4>
70105788:	4a81      	ldr	r2, [pc, #516]	@ (70105990 <HAL_RCCEx_GetPeriphCLKFreq+0x900>)
7010578a:	f8d2 3178 	ldr.w	r3, [r2, #376]	@ 0x178
7010578e:	f403 63e0 	and.w	r3, r3, #1792	@ 0x700
70105792:	f5b3 7f40 	cmp.w	r3, #768	@ 0x300
70105796:	d02e      	beq.n	701057f6 <HAL_RCCEx_GetPeriphCLKFreq+0x766>
70105798:	d812      	bhi.n	701057c0 <HAL_RCCEx_GetPeriphCLKFreq+0x730>
7010579a:	f5b3 7f80 	cmp.w	r3, #256	@ 0x100
7010579e:	f43f af2f 	beq.w	70105600 <HAL_RCCEx_GetPeriphCLKFreq+0x570>
701057a2:	f5b3 7f00 	cmp.w	r3, #512	@ 0x200
701057a6:	d01a      	beq.n	701057de <HAL_RCCEx_GetPeriphCLKFreq+0x74e>
701057a8:	2b00      	cmp	r3, #0
701057aa:	f47f acb5 	bne.w	70105118 <HAL_RCCEx_GetPeriphCLKFreq+0x88>
701057ae:	f7fc fd1b 	bl	701021e8 <HAL_RCC_GetSysClockFreq>
701057b2:	f7fc fe1b 	bl	701023ec <RCCEx_GetHCLKFreq>
701057b6:	4b76      	ldr	r3, [pc, #472]	@ (70105990 <HAL_RCCEx_GetPeriphCLKFreq+0x900>)
701057b8:	6a5b      	ldr	r3, [r3, #36]	@ 0x24
701057ba:	f3c3 3302 	ubfx	r3, r3, #12, #3
701057be:	e4db      	b.n	70105178 <HAL_RCCEx_GetPeriphCLKFreq+0xe8>
701057c0:	f5b3 6fa0 	cmp.w	r3, #1280	@ 0x500
701057c4:	f43f aec5 	beq.w	70105552 <HAL_RCCEx_GetPeriphCLKFreq+0x4c2>
701057c8:	f5b3 6fc0 	cmp.w	r3, #1536	@ 0x600
701057cc:	d02c      	beq.n	70105828 <HAL_RCCEx_GetPeriphCLKFreq+0x798>
701057ce:	f5b3 6f80 	cmp.w	r3, #1024	@ 0x400
701057d2:	f47f aca1 	bne.w	70105118 <HAL_RCCEx_GetPeriphCLKFreq+0x88>
701057d6:	f7fc fd87 	bl	701022e8 <LL_RCC_LSE_IsReady>
701057da:	03c0      	lsls	r0, r0, #15
701057dc:	e6b8      	b.n	70105550 <HAL_RCCEx_GetPeriphCLKFreq+0x4c0>
701057de:	f7fc fdcf 	bl	70102380 <LL_RCC_IC9_IsEnabled>
701057e2:	2800      	cmp	r0, #0
701057e4:	f43f ac98 	beq.w	70105118 <HAL_RCCEx_GetPeriphCLKFreq+0x88>
701057e8:	f7fc fdd2 	bl	70102390 <LL_RCC_IC9_GetDivider>
701057ec:	4b68      	ldr	r3, [pc, #416]	@ (70105990 <HAL_RCCEx_GetPeriphCLKFreq+0x900>)
701057ee:	4604      	mov	r4, r0
701057f0:	f8d3 30e4 	ldr.w	r3, [r3, #228]	@ 0xe4
701057f4:	e6c1      	b.n	7010557a <HAL_RCCEx_GetPeriphCLKFreq+0x4ea>
701057f6:	f7fc fdd5 	bl	701023a4 <LL_RCC_IC14_IsEnabled>
701057fa:	2800      	cmp	r0, #0
701057fc:	f43f ac8c 	beq.w	70105118 <HAL_RCCEx_GetPeriphCLKFreq+0x88>
70105800:	f7fc fdd8 	bl	701023b4 <LL_RCC_IC14_GetDivider>
70105804:	f8d2 30f8 	ldr.w	r3, [r2, #248]	@ 0xf8
70105808:	4604      	mov	r4, r0
7010580a:	e6b6      	b.n	7010557a <HAL_RCCEx_GetPeriphCLKFreq+0x4ea>
7010580c:	4d60      	ldr	r5, [pc, #384]	@ (70105990 <HAL_RCCEx_GetPeriphCLKFreq+0x900>)
7010580e:	f8d5 3150 	ldr.w	r3, [r5, #336]	@ 0x150
70105812:	f003 7340 	and.w	r3, r3, #50331648	@ 0x3000000
70105816:	f1b3 7f00 	cmp.w	r3, #33554432	@ 0x2000000
7010581a:	d010      	beq.n	7010583e <HAL_RCCEx_GetPeriphCLKFreq+0x7ae>
7010581c:	f67f aec3 	bls.w	701055a6 <HAL_RCCEx_GetPeriphCLKFreq+0x516>
70105820:	f1b3 7f40 	cmp.w	r3, #50331648	@ 0x3000000
70105824:	f47f ac78 	bne.w	70105118 <HAL_RCCEx_GetPeriphCLKFreq+0x88>
70105828:	f7fc fd4e 	bl	701022c8 <LL_RCC_HSI_IsReady>
7010582c:	2800      	cmp	r0, #0
7010582e:	f43f ac73 	beq.w	70105118 <HAL_RCCEx_GetPeriphCLKFreq+0x88>
70105832:	4b57      	ldr	r3, [pc, #348]	@ (70105990 <HAL_RCCEx_GetPeriphCLKFreq+0x900>)
70105834:	6c9b      	ldr	r3, [r3, #72]	@ 0x48
70105836:	485f      	ldr	r0, [pc, #380]	@ (701059b4 <HAL_RCCEx_GetPeriphCLKFreq+0x924>)
70105838:	f3c3 13c1 	ubfx	r3, r3, #7, #2
7010583c:	e49c      	b.n	70105178 <HAL_RCCEx_GetPeriphCLKFreq+0xe8>
7010583e:	f8d5 3240 	ldr.w	r3, [r5, #576]	@ 0x240
70105842:	0418      	lsls	r0, r3, #16
70105844:	f57f ac68 	bpl.w	70105118 <HAL_RCCEx_GetPeriphCLKFreq+0x88>
70105848:	f8d5 0100 	ldr.w	r0, [r5, #256]	@ 0x100
7010584c:	f8d5 3100 	ldr.w	r3, [r5, #256]	@ 0x100
70105850:	f3c0 4007 	ubfx	r0, r0, #16, #8
70105854:	1c44      	adds	r4, r0, #1
70105856:	e690      	b.n	7010557a <HAL_RCCEx_GetPeriphCLKFreq+0x4ea>
70105858:	f5b3 2fc0 	cmp.w	r3, #393216	@ 0x60000
7010585c:	f000 8096 	beq.w	7010598c <HAL_RCCEx_GetPeriphCLKFreq+0x8fc>
70105860:	f5b3 2fe0 	cmp.w	r3, #458752	@ 0x70000
70105864:	d00d      	beq.n	70105882 <HAL_RCCEx_GetPeriphCLKFreq+0x7f2>
70105866:	f5b3 2fa0 	cmp.w	r3, #327680	@ 0x50000
7010586a:	e6a7      	b.n	701055bc <HAL_RCCEx_GetPeriphCLKFreq+0x52c>
7010586c:	f7fc fd64 	bl	70102338 <LL_RCC_IC7_IsEnabled>
70105870:	2800      	cmp	r0, #0
70105872:	f43f ac51 	beq.w	70105118 <HAL_RCCEx_GetPeriphCLKFreq+0x88>
70105876:	f7fc fd67 	bl	70102348 <LL_RCC_IC7_GetDivider>
7010587a:	f8d5 30dc 	ldr.w	r3, [r5, #220]	@ 0xdc
7010587e:	4604      	mov	r4, r0
70105880:	e67b      	b.n	7010557a <HAL_RCCEx_GetPeriphCLKFreq+0x4ea>
70105882:	f7fc fcb1 	bl	701021e8 <HAL_RCC_GetSysClockFreq>
70105886:	6a6b      	ldr	r3, [r5, #36]	@ 0x24
70105888:	f3c3 6301 	ubfx	r3, r3, #24, #2
7010588c:	e474      	b.n	70105178 <HAL_RCCEx_GetPeriphCLKFreq+0xe8>
7010588e:	4a40      	ldr	r2, [pc, #256]	@ (70105990 <HAL_RCCEx_GetPeriphCLKFreq+0x900>)
70105890:	f8d2 315c 	ldr.w	r3, [r2, #348]	@ 0x15c
70105894:	f003 0330 	and.w	r3, r3, #48	@ 0x30
70105898:	2b20      	cmp	r3, #32
7010589a:	d00b      	beq.n	701058b4 <HAL_RCCEx_GetPeriphCLKFreq+0x824>
7010589c:	f67f aead 	bls.w	701055fa <HAL_RCCEx_GetPeriphCLKFreq+0x56a>
701058a0:	2b30      	cmp	r3, #48	@ 0x30
701058a2:	f47f ac39 	bne.w	70105118 <HAL_RCCEx_GetPeriphCLKFreq+0x88>
701058a6:	f7fc fd0f 	bl	701022c8 <LL_RCC_HSI_IsReady>
701058aa:	2800      	cmp	r0, #0
701058ac:	f43f ac34 	beq.w	70105118 <HAL_RCCEx_GetPeriphCLKFreq+0x88>
701058b0:	6c93      	ldr	r3, [r2, #72]	@ 0x48
701058b2:	e7c0      	b.n	70105836 <HAL_RCCEx_GetPeriphCLKFreq+0x7a6>
701058b4:	f8d2 3240 	ldr.w	r3, [r2, #576]	@ 0x240
701058b8:	0319      	lsls	r1, r3, #12
701058ba:	f57f ac2d 	bpl.w	70105118 <HAL_RCCEx_GetPeriphCLKFreq+0x88>
701058be:	f8d2 0110 	ldr.w	r0, [r2, #272]	@ 0x110
701058c2:	f8d2 3110 	ldr.w	r3, [r2, #272]	@ 0x110
701058c6:	f3c0 4007 	ubfx	r0, r0, #16, #8
701058ca:	1c44      	adds	r4, r0, #1
701058cc:	e655      	b.n	7010557a <HAL_RCCEx_GetPeriphCLKFreq+0x4ea>
701058ce:	f1b3 5f40 	cmp.w	r3, #805306368	@ 0x30000000
701058d2:	f47f ac21 	bne.w	70105118 <HAL_RCCEx_GetPeriphCLKFreq+0x88>
701058d6:	f7fe fb21 	bl	70103f1c <HAL_RCCEx_GetPLL4CLKFreq>
701058da:	e637      	b.n	7010554c <HAL_RCCEx_GetPeriphCLKFreq+0x4bc>
701058dc:	f7fe fade 	bl	70103e9c <HAL_RCCEx_GetPLL3CLKFreq>
701058e0:	e634      	b.n	7010554c <HAL_RCCEx_GetPeriphCLKFreq+0x4bc>
701058e2:	4a2b      	ldr	r2, [pc, #172]	@ (70105990 <HAL_RCCEx_GetPeriphCLKFreq+0x900>)
701058e4:	f8d2 315c 	ldr.w	r3, [r2, #348]	@ 0x15c
701058e8:	f403 7340 	and.w	r3, r3, #768	@ 0x300
701058ec:	f5b3 7f00 	cmp.w	r3, #512	@ 0x200
701058f0:	d005      	beq.n	701058fe <HAL_RCCEx_GetPeriphCLKFreq+0x86e>
701058f2:	f5b3 7f40 	cmp.w	r3, #768	@ 0x300
701058f6:	d009      	beq.n	7010590c <HAL_RCCEx_GetPeriphCLKFreq+0x87c>
701058f8:	f5b3 7f80 	cmp.w	r3, #256	@ 0x100
701058fc:	e769      	b.n	701057d2 <HAL_RCCEx_GetPeriphCLKFreq+0x742>
701058fe:	6853      	ldr	r3, [r2, #4]
70105900:	07db      	lsls	r3, r3, #31
70105902:	f57f ac09 	bpl.w	70105118 <HAL_RCCEx_GetPeriphCLKFreq+0x88>
70105906:	f44f 40fa 	mov.w	r0, #32000	@ 0x7d00
7010590a:	e621      	b.n	70105550 <HAL_RCCEx_GetPeriphCLKFreq+0x4c0>
7010590c:	f7fc fcd4 	bl	701022b8 <LL_RCC_HSE_IsReady>
70105910:	2800      	cmp	r0, #0
70105912:	f43f ac01 	beq.w	70105118 <HAL_RCCEx_GetPeriphCLKFreq+0x88>
70105916:	f8d2 315c 	ldr.w	r3, [r2, #348]	@ 0x15c
7010591a:	4827      	ldr	r0, [pc, #156]	@ (701059b8 <HAL_RCCEx_GetPeriphCLKFreq+0x928>)
7010591c:	f3c3 3305 	ubfx	r3, r3, #12, #6
70105920:	3301      	adds	r3, #1
70105922:	e5a8      	b.n	70105476 <HAL_RCCEx_GetPeriphCLKFreq+0x3e6>
70105924:	4825      	ldr	r0, [pc, #148]	@ (701059bc <HAL_RCCEx_GetPeriphCLKFreq+0x92c>)
70105926:	e4a1      	b.n	7010526c <HAL_RCCEx_GetPeriphCLKFreq+0x1dc>
70105928:	4825      	ldr	r0, [pc, #148]	@ (701059c0 <HAL_RCCEx_GetPeriphCLKFreq+0x930>)
7010592a:	e4d1      	b.n	701052d0 <HAL_RCCEx_GetPeriphCLKFreq+0x240>
7010592c:	e8bd 4038 	ldmia.w	sp!, {r3, r4, r5, lr}
70105930:	f7fe bbba 	b.w	701040a8 <RCCEx_GetSPDIFRXCLKFreq.constprop.0>
70105934:	4823      	ldr	r0, [pc, #140]	@ (701059c4 <HAL_RCCEx_GetPeriphCLKFreq+0x934>)
70105936:	e8bd 4038 	ldmia.w	sp!, {r3, r4, r5, lr}
7010593a:	f7fe bf37 	b.w	701047ac <RCCEx_GetSPICLKFreq>
7010593e:	4822      	ldr	r0, [pc, #136]	@ (701059c8 <HAL_RCCEx_GetPeriphCLKFreq+0x938>)
70105940:	e7f9      	b.n	70105936 <HAL_RCCEx_GetPeriphCLKFreq+0x8a6>
70105942:	4822      	ldr	r0, [pc, #136]	@ (701059cc <HAL_RCCEx_GetPeriphCLKFreq+0x93c>)
70105944:	e7f7      	b.n	70105936 <HAL_RCCEx_GetPeriphCLKFreq+0x8a6>
70105946:	4822      	ldr	r0, [pc, #136]	@ (701059d0 <HAL_RCCEx_GetPeriphCLKFreq+0x940>)
70105948:	e7f5      	b.n	70105936 <HAL_RCCEx_GetPeriphCLKFreq+0x8a6>
7010594a:	4822      	ldr	r0, [pc, #136]	@ (701059d4 <HAL_RCCEx_GetPeriphCLKFreq+0x944>)
7010594c:	e8bd 4038 	ldmia.w	sp!, {r3, r4, r5, lr}
70105950:	f7fe bd1a 	b.w	70104388 <RCCEx_GetUSARTCLKFreq>
70105954:	4820      	ldr	r0, [pc, #128]	@ (701059d8 <HAL_RCCEx_GetPeriphCLKFreq+0x948>)
70105956:	e7f9      	b.n	7010594c <HAL_RCCEx_GetPeriphCLKFreq+0x8bc>
70105958:	4820      	ldr	r0, [pc, #128]	@ (701059dc <HAL_RCCEx_GetPeriphCLKFreq+0x94c>)
7010595a:	e7f7      	b.n	7010594c <HAL_RCCEx_GetPeriphCLKFreq+0x8bc>
7010595c:	4820      	ldr	r0, [pc, #128]	@ (701059e0 <HAL_RCCEx_GetPeriphCLKFreq+0x950>)
7010595e:	e4f0      	b.n	70105342 <HAL_RCCEx_GetPeriphCLKFreq+0x2b2>
70105960:	4820      	ldr	r0, [pc, #128]	@ (701059e4 <HAL_RCCEx_GetPeriphCLKFreq+0x954>)
70105962:	e4ee      	b.n	70105342 <HAL_RCCEx_GetPeriphCLKFreq+0x2b2>
70105964:	4820      	ldr	r0, [pc, #128]	@ (701059e8 <HAL_RCCEx_GetPeriphCLKFreq+0x958>)
70105966:	e4ec      	b.n	70105342 <HAL_RCCEx_GetPeriphCLKFreq+0x2b2>
70105968:	4820      	ldr	r0, [pc, #128]	@ (701059ec <HAL_RCCEx_GetPeriphCLKFreq+0x95c>)
7010596a:	e4ea      	b.n	70105342 <HAL_RCCEx_GetPeriphCLKFreq+0x2b2>
7010596c:	4820      	ldr	r0, [pc, #128]	@ (701059f0 <HAL_RCCEx_GetPeriphCLKFreq+0x960>)
7010596e:	e7ed      	b.n	7010594c <HAL_RCCEx_GetPeriphCLKFreq+0x8bc>
70105970:	4820      	ldr	r0, [pc, #128]	@ (701059f4 <HAL_RCCEx_GetPeriphCLKFreq+0x964>)
70105972:	e8bd 4038 	ldmia.w	sp!, {r3, r4, r5, lr}
70105976:	f7fe bcd7 	b.w	70104328 <RCCEx_GetOTGPHYCKREFCLKFreq>
7010597a:	481f      	ldr	r0, [pc, #124]	@ (701059f8 <HAL_RCCEx_GetPeriphCLKFreq+0x968>)
7010597c:	e537      	b.n	701053ee <HAL_RCCEx_GetPeriphCLKFreq+0x35e>
7010597e:	481f      	ldr	r0, [pc, #124]	@ (701059fc <HAL_RCCEx_GetPeriphCLKFreq+0x96c>)
70105980:	e8bd 4038 	ldmia.w	sp!, {r3, r4, r5, lr}
70105984:	f7fe bbf0 	b.w	70104168 <RCCEx_GetXSPICLKFreq>
70105988:	481d      	ldr	r0, [pc, #116]	@ (70105a00 <HAL_RCCEx_GetPeriphCLKFreq+0x970>)
7010598a:	e7f9      	b.n	70105980 <HAL_RCCEx_GetPeriphCLKFreq+0x8f0>
7010598c:	481d      	ldr	r0, [pc, #116]	@ (70105a04 <HAL_RCCEx_GetPeriphCLKFreq+0x974>)
7010598e:	e5df      	b.n	70105550 <HAL_RCCEx_GetPeriphCLKFreq+0x4c0>
70105990:	56028000 	.word	0x56028000
70105994:	0700000c 	.word	0x0700000c
70105998:	0700040c 	.word	0x0700040c
7010599c:	0700080c 	.word	0x0700080c
701059a0:	0700100c 	.word	0x0700100c
701059a4:	0700082c 	.word	0x0700082c
701059a8:	07000c2c 	.word	0x07000c2c
701059ac:	0700102c 	.word	0x0700102c
701059b0:	0700142c 	.word	0x0700142c
701059b4:	03d09000 	.word	0x03d09000
701059b8:	016e3600 	.word	0x016e3600
701059bc:	07001818 	.word	0x07001818
701059c0:	0300041c 	.word	0x0300041c
701059c4:	07000420 	.word	0x07000420
701059c8:	07000820 	.word	0x07000820
701059cc:	07001020 	.word	0x07001020
701059d0:	07001820 	.word	0x07001820
701059d4:	07000030 	.word	0x07000030
701059d8:	07000430 	.word	0x07000430
701059dc:	07000830 	.word	0x07000830
701059e0:	07001030 	.word	0x07001030
701059e4:	07001830 	.word	0x07001830
701059e8:	07001c30 	.word	0x07001c30
701059ec:	07000034 	.word	0x07000034
701059f0:	07000434 	.word	0x07000434
701059f4:	01001014 	.word	0x01001014
701059f8:	03001414 	.word	0x03001414
701059fc:	03000014 	.word	0x03000014
70105a00:	03000414 	.word	0x03000414
70105a04:	00bb8000 	.word	0x00bb8000

70105a08 <HAL_RIF_RIMC_ConfigMasterAttributes>:
70105a08:	680b      	ldr	r3, [r1, #0]
70105a0a:	fa93 f3a3 	rbit	r3, r3
70105a0e:	fab3 f283 	clz	r2, r3
70105a12:	0080      	lsls	r0, r0, #2
70105a14:	f100 40a8 	add.w	r0, r0, #1409286144	@ 0x54000000
70105a18:	f500 3010 	add.w	r0, r0, #147456	@ 0x24000
70105a1c:	f8d0 3c10 	ldr.w	r3, [r0, #3088]	@ 0xc10
70105a20:	6849      	ldr	r1, [r1, #4]
70105a22:	f423 735c 	bic.w	r3, r3, #880	@ 0x370
70105a26:	ea43 2301 	orr.w	r3, r3, r1, lsl #8
70105a2a:	ea43 1302 	orr.w	r3, r3, r2, lsl #4
70105a2e:	f8c0 3c10 	str.w	r3, [r0, #3088]	@ 0xc10
70105a32:	4770      	bx	lr

70105a34 <HAL_RIF_RISC_SetSlaveSecureAttributes>:
70105a34:	b537      	push	{r0, r1, r2, r4, r5, lr}
70105a36:	2401      	movs	r4, #1
70105a38:	0f03      	lsrs	r3, r0, #28
70105a3a:	009b      	lsls	r3, r3, #2
70105a3c:	f103 43a8 	add.w	r3, r3, #1409286144	@ 0x54000000
70105a40:	f503 3310 	add.w	r3, r3, #147456	@ 0x24000
70105a44:	691a      	ldr	r2, [r3, #16]
70105a46:	f000 001f 	and.w	r0, r0, #31
70105a4a:	9201      	str	r2, [sp, #4]
70105a4c:	9a01      	ldr	r2, [sp, #4]
70105a4e:	4084      	lsls	r4, r0
70105a50:	ea22 0204 	bic.w	r2, r2, r4
70105a54:	9201      	str	r2, [sp, #4]
70105a56:	9d01      	ldr	r5, [sp, #4]
70105a58:	f001 0201 	and.w	r2, r1, #1
70105a5c:	4082      	lsls	r2, r0
70105a5e:	432a      	orrs	r2, r5
70105a60:	9201      	str	r2, [sp, #4]
70105a62:	9a01      	ldr	r2, [sp, #4]
70105a64:	f3c1 0140 	ubfx	r1, r1, #1, #1
70105a68:	611a      	str	r2, [r3, #16]
70105a6a:	6b1a      	ldr	r2, [r3, #48]	@ 0x30
70105a6c:	4081      	lsls	r1, r0
70105a6e:	9201      	str	r2, [sp, #4]
70105a70:	9a01      	ldr	r2, [sp, #4]
70105a72:	ea22 0204 	bic.w	r2, r2, r4
70105a76:	9201      	str	r2, [sp, #4]
70105a78:	9a01      	ldr	r2, [sp, #4]
70105a7a:	4311      	orrs	r1, r2
70105a7c:	9101      	str	r1, [sp, #4]
70105a7e:	9a01      	ldr	r2, [sp, #4]
70105a80:	631a      	str	r2, [r3, #48]	@ 0x30
70105a82:	b003      	add	sp, #12
70105a84:	bd30      	pop	{r4, r5, pc}

70105a86 <HAL_RIF_RISAF_ConfigBaseRegion>:
70105a86:	b510      	push	{r4, lr}
70105a88:	6814      	ldr	r4, [r2, #0]
70105a8a:	0189      	lsls	r1, r1, #6
70105a8c:	b92c      	cbnz	r4, 70105a9a <HAL_RIF_RISAF_ConfigBaseRegion+0x14>
70105a8e:	4408      	add	r0, r1
70105a90:	6c03      	ldr	r3, [r0, #64]	@ 0x40
70105a92:	f023 0301 	bic.w	r3, r3, #1
70105a96:	6403      	str	r3, [r0, #64]	@ 0x40
70105a98:	bd10      	pop	{r4, pc}
70105a9a:	6953      	ldr	r3, [r2, #20]
70105a9c:	4408      	add	r0, r1
70105a9e:	6443      	str	r3, [r0, #68]	@ 0x44
70105aa0:	6993      	ldr	r3, [r2, #24]
70105aa2:	6483      	str	r3, [r0, #72]	@ 0x48
70105aa4:	e9d2 3103 	ldrd	r3, r1, [r2, #12]
70105aa8:	ea43 4301 	orr.w	r3, r3, r1, lsl #16
70105aac:	64c3      	str	r3, [r0, #76]	@ 0x4c
70105aae:	e9d2 1301 	ldrd	r1, r3, [r2, #4]
70105ab2:	041b      	lsls	r3, r3, #16
70105ab4:	ea43 2301 	orr.w	r3, r3, r1, lsl #8
70105ab8:	4323      	orrs	r3, r4
70105aba:	e7ec      	b.n	70105a96 <HAL_RIF_RISAF_ConfigBaseRegion+0x10>

70105abc <UART_EndRxTransfer>:
70105abc:	b510      	push	{r4, lr}
70105abe:	6802      	ldr	r2, [r0, #0]
70105ac0:	e852 3f00 	ldrex	r3, [r2]
70105ac4:	f423 7390 	bic.w	r3, r3, #288	@ 0x120
70105ac8:	e842 3100 	strex	r1, r3, [r2]
70105acc:	6802      	ldr	r2, [r0, #0]
70105ace:	2900      	cmp	r1, #0
70105ad0:	d1f5      	bne.n	70105abe <UART_EndRxTransfer+0x2>
70105ad2:	4c0f      	ldr	r4, [pc, #60]	@ (70105b10 <UART_EndRxTransfer+0x54>)
70105ad4:	f102 0308 	add.w	r3, r2, #8
70105ad8:	e853 3f00 	ldrex	r3, [r3]
70105adc:	4023      	ands	r3, r4
70105ade:	f102 0c08 	add.w	ip, r2, #8
70105ae2:	e84c 3100 	strex	r1, r3, [ip]
70105ae6:	2900      	cmp	r1, #0
70105ae8:	d1f4      	bne.n	70105ad4 <UART_EndRxTransfer+0x18>
70105aea:	6ec3      	ldr	r3, [r0, #108]	@ 0x6c
70105aec:	2b01      	cmp	r3, #1
70105aee:	d107      	bne.n	70105b00 <UART_EndRxTransfer+0x44>
70105af0:	e852 3f00 	ldrex	r3, [r2]
70105af4:	f023 0310 	bic.w	r3, r3, #16
70105af8:	e842 3100 	strex	r1, r3, [r2]
70105afc:	2900      	cmp	r1, #0
70105afe:	d1f7      	bne.n	70105af0 <UART_EndRxTransfer+0x34>
70105b00:	2320      	movs	r3, #32
70105b02:	f8c0 308c 	str.w	r3, [r0, #140]	@ 0x8c
70105b06:	2300      	movs	r3, #0
70105b08:	66c3      	str	r3, [r0, #108]	@ 0x6c
70105b0a:	6743      	str	r3, [r0, #116]	@ 0x74
70105b0c:	bd10      	pop	{r4, pc}
70105b0e:	bf00      	nop
70105b10:	effffffe 	.word	0xeffffffe

70105b14 <UART_SetConfig>:
70105b14:	b5f8      	push	{r3, r4, r5, r6, r7, lr}
70105b16:	4604      	mov	r4, r0
70105b18:	6921      	ldr	r1, [r4, #16]
70105b1a:	68a2      	ldr	r2, [r4, #8]
70105b1c:	6803      	ldr	r3, [r0, #0]
70105b1e:	430a      	orrs	r2, r1
70105b20:	6961      	ldr	r1, [r4, #20]
70105b22:	69c5      	ldr	r5, [r0, #28]
70105b24:	430a      	orrs	r2, r1
70105b26:	6818      	ldr	r0, [r3, #0]
70105b28:	4977      	ldr	r1, [pc, #476]	@ (70105d08 <UART_SetConfig+0x1f4>)
70105b2a:	432a      	orrs	r2, r5
70105b2c:	4001      	ands	r1, r0
70105b2e:	430a      	orrs	r2, r1
70105b30:	601a      	str	r2, [r3, #0]
70105b32:	685a      	ldr	r2, [r3, #4]
70105b34:	68e1      	ldr	r1, [r4, #12]
70105b36:	f422 5240 	bic.w	r2, r2, #12288	@ 0x3000
70105b3a:	430a      	orrs	r2, r1
70105b3c:	605a      	str	r2, [r3, #4]
70105b3e:	4a73      	ldr	r2, [pc, #460]	@ (70105d0c <UART_SetConfig+0x1f8>)
70105b40:	69a1      	ldr	r1, [r4, #24]
70105b42:	4293      	cmp	r3, r2
70105b44:	d005      	beq.n	70105b52 <UART_SetConfig+0x3e>
70105b46:	f102 4270 	add.w	r2, r2, #4026531840	@ 0xf0000000
70105b4a:	4293      	cmp	r3, r2
70105b4c:	bf1c      	itt	ne
70105b4e:	6a22      	ldrne	r2, [r4, #32]
70105b50:	4311      	orrne	r1, r2
70105b52:	689a      	ldr	r2, [r3, #8]
70105b54:	f022 426e 	bic.w	r2, r2, #3992977408	@ 0xee000000
70105b58:	f422 6230 	bic.w	r2, r2, #2816	@ 0xb00
70105b5c:	430a      	orrs	r2, r1
70105b5e:	609a      	str	r2, [r3, #8]
70105b60:	6ada      	ldr	r2, [r3, #44]	@ 0x2c
70105b62:	6a61      	ldr	r1, [r4, #36]	@ 0x24
70105b64:	f022 020f 	bic.w	r2, r2, #15
70105b68:	430a      	orrs	r2, r1
70105b6a:	62da      	str	r2, [r3, #44]	@ 0x2c
70105b6c:	4a68      	ldr	r2, [pc, #416]	@ (70105d10 <UART_SetConfig+0x1fc>)
70105b6e:	4293      	cmp	r3, r2
70105b70:	d067      	beq.n	70105c42 <UART_SetConfig+0x12e>
70105b72:	4a68      	ldr	r2, [pc, #416]	@ (70105d14 <UART_SetConfig+0x200>)
70105b74:	4293      	cmp	r3, r2
70105b76:	f000 8089 	beq.w	70105c8c <UART_SetConfig+0x178>
70105b7a:	f502 6280 	add.w	r2, r2, #1024	@ 0x400
70105b7e:	4293      	cmp	r3, r2
70105b80:	f000 8088 	beq.w	70105c94 <UART_SetConfig+0x180>
70105b84:	f502 6280 	add.w	r2, r2, #1024	@ 0x400
70105b88:	4293      	cmp	r3, r2
70105b8a:	f000 8087 	beq.w	70105c9c <UART_SetConfig+0x188>
70105b8e:	f1b3 2f50 	cmp.w	r3, #1342197760	@ 0x50005000
70105b92:	f000 8087 	beq.w	70105ca4 <UART_SetConfig+0x190>
70105b96:	4a60      	ldr	r2, [pc, #384]	@ (70105d18 <UART_SetConfig+0x204>)
70105b98:	4293      	cmp	r3, r2
70105b9a:	f000 8087 	beq.w	70105cac <UART_SetConfig+0x198>
70105b9e:	4a5f      	ldr	r2, [pc, #380]	@ (70105d1c <UART_SetConfig+0x208>)
70105ba0:	4293      	cmp	r3, r2
70105ba2:	f000 8087 	beq.w	70105cb4 <UART_SetConfig+0x1a0>
70105ba6:	f502 6280 	add.w	r2, r2, #1024	@ 0x400
70105baa:	4293      	cmp	r3, r2
70105bac:	f000 8086 	beq.w	70105cbc <UART_SetConfig+0x1a8>
70105bb0:	4a5b      	ldr	r2, [pc, #364]	@ (70105d20 <UART_SetConfig+0x20c>)
70105bb2:	4293      	cmp	r3, r2
70105bb4:	f000 8086 	beq.w	70105cc4 <UART_SetConfig+0x1b0>
70105bb8:	f502 6280 	add.w	r2, r2, #1024	@ 0x400
70105bbc:	4293      	cmp	r3, r2
70105bbe:	f000 8085 	beq.w	70105ccc <UART_SetConfig+0x1b8>
70105bc2:	4a52      	ldr	r2, [pc, #328]	@ (70105d0c <UART_SetConfig+0x1f8>)
70105bc4:	4293      	cmp	r3, r2
70105bc6:	d01d      	beq.n	70105c04 <UART_SetConfig+0xf0>
70105bc8:	f102 4270 	add.w	r2, r2, #4026531840	@ 0xf0000000
70105bcc:	4293      	cmp	r3, r2
70105bce:	f04f 0000 	mov.w	r0, #0
70105bd2:	f04f 0100 	mov.w	r1, #0
70105bd6:	d137      	bne.n	70105c48 <UART_SetConfig+0x134>
70105bd8:	f7ff fa5a 	bl	70105090 <HAL_RCCEx_GetPeriphCLKFreq>
70105bdc:	b378      	cbz	r0, 70105c3e <UART_SetConfig+0x12a>
70105bde:	6a61      	ldr	r1, [r4, #36]	@ 0x24
70105be0:	4a50      	ldr	r2, [pc, #320]	@ (70105d24 <UART_SetConfig+0x210>)
70105be2:	6865      	ldr	r5, [r4, #4]
70105be4:	f832 2011 	ldrh.w	r2, [r2, r1, lsl #1]
70105be8:	eb05 0145 	add.w	r1, r5, r5, lsl #1
70105bec:	fbb0 f3f2 	udiv	r3, r0, r2
70105bf0:	4299      	cmp	r1, r3
70105bf2:	d90b      	bls.n	70105c0c <UART_SetConfig+0xf8>
70105bf4:	2001      	movs	r0, #1
70105bf6:	f04f 1301 	mov.w	r3, #65537	@ 0x10001
70105bfa:	66a3      	str	r3, [r4, #104]	@ 0x68
70105bfc:	2300      	movs	r3, #0
70105bfe:	e9c4 331d 	strd	r3, r3, [r4, #116]	@ 0x74
70105c02:	bdf8      	pop	{r3, r4, r5, r6, r7, pc}
70105c04:	f44f 0000 	mov.w	r0, #8388608	@ 0x800000
70105c08:	2100      	movs	r1, #0
70105c0a:	e7e5      	b.n	70105bd8 <UART_SetConfig+0xc4>
70105c0c:	ebb3 3f05 	cmp.w	r3, r5, lsl #12
70105c10:	d8f0      	bhi.n	70105bf4 <UART_SetConfig+0xe0>
70105c12:	2300      	movs	r3, #0
70105c14:	4619      	mov	r1, r3
70105c16:	f7fa fed1 	bl	701009bc <__aeabi_uldivmod>
70105c1a:	2300      	movs	r3, #0
70105c1c:	4606      	mov	r6, r0
70105c1e:	4619      	mov	r1, r3
70105c20:	f44f 7780 	mov.w	r7, #256	@ 0x100
70105c24:	0868      	lsrs	r0, r5, #1
70105c26:	462a      	mov	r2, r5
70105c28:	fbe6 0107 	umlal	r0, r1, r6, r7
70105c2c:	f7fa fec6 	bl	701009bc <__aeabi_uldivmod>
70105c30:	4b3d      	ldr	r3, [pc, #244]	@ (70105d28 <UART_SetConfig+0x214>)
70105c32:	f5a0 7240 	sub.w	r2, r0, #768	@ 0x300
70105c36:	429a      	cmp	r2, r3
70105c38:	d8dc      	bhi.n	70105bf4 <UART_SetConfig+0xe0>
70105c3a:	6823      	ldr	r3, [r4, #0]
70105c3c:	60d8      	str	r0, [r3, #12]
70105c3e:	2000      	movs	r0, #0
70105c40:	e7d9      	b.n	70105bf6 <UART_SetConfig+0xe2>
70105c42:	2000      	movs	r0, #0
70105c44:	f44f 7180 	mov.w	r1, #256	@ 0x100
70105c48:	f5b5 4f00 	cmp.w	r5, #32768	@ 0x8000
70105c4c:	d142      	bne.n	70105cd4 <UART_SetConfig+0x1c0>
70105c4e:	f7ff fa1f 	bl	70105090 <HAL_RCCEx_GetPeriphCLKFreq>
70105c52:	2800      	cmp	r0, #0
70105c54:	d0f3      	beq.n	70105c3e <UART_SetConfig+0x12a>
70105c56:	6a61      	ldr	r1, [r4, #36]	@ 0x24
70105c58:	4b32      	ldr	r3, [pc, #200]	@ (70105d24 <UART_SetConfig+0x210>)
70105c5a:	6862      	ldr	r2, [r4, #4]
70105c5c:	f833 3011 	ldrh.w	r3, [r3, r1, lsl #1]
70105c60:	fbb0 f0f3 	udiv	r0, r0, r3
70105c64:	0853      	lsrs	r3, r2, #1
70105c66:	eb03 0340 	add.w	r3, r3, r0, lsl #1
70105c6a:	fbb3 f3f2 	udiv	r3, r3, r2
70105c6e:	f64f 72ef 	movw	r2, #65519	@ 0xffef
70105c72:	f1a3 0110 	sub.w	r1, r3, #16
70105c76:	4291      	cmp	r1, r2
70105c78:	d8bc      	bhi.n	70105bf4 <UART_SetConfig+0xe0>
70105c7a:	f023 020f 	bic.w	r2, r3, #15
70105c7e:	6821      	ldr	r1, [r4, #0]
70105c80:	b292      	uxth	r2, r2
70105c82:	f3c3 0342 	ubfx	r3, r3, #1, #3
70105c86:	4313      	orrs	r3, r2
70105c88:	60cb      	str	r3, [r1, #12]
70105c8a:	e7d8      	b.n	70105c3e <UART_SetConfig+0x12a>
70105c8c:	2000      	movs	r0, #0
70105c8e:	f44f 7100 	mov.w	r1, #512	@ 0x200
70105c92:	e7d9      	b.n	70105c48 <UART_SetConfig+0x134>
70105c94:	2000      	movs	r0, #0
70105c96:	f44f 6180 	mov.w	r1, #1024	@ 0x400
70105c9a:	e7d5      	b.n	70105c48 <UART_SetConfig+0x134>
70105c9c:	2000      	movs	r0, #0
70105c9e:	f44f 6100 	mov.w	r1, #2048	@ 0x800
70105ca2:	e7d1      	b.n	70105c48 <UART_SetConfig+0x134>
70105ca4:	2000      	movs	r0, #0
70105ca6:	f44f 5180 	mov.w	r1, #4096	@ 0x1000
70105caa:	e7cd      	b.n	70105c48 <UART_SetConfig+0x134>
70105cac:	2000      	movs	r0, #0
70105cae:	f44f 5100 	mov.w	r1, #8192	@ 0x2000
70105cb2:	e7c9      	b.n	70105c48 <UART_SetConfig+0x134>
70105cb4:	2000      	movs	r0, #0
70105cb6:	f44f 4180 	mov.w	r1, #16384	@ 0x4000
70105cba:	e7c5      	b.n	70105c48 <UART_SetConfig+0x134>
70105cbc:	2000      	movs	r0, #0
70105cbe:	f44f 4100 	mov.w	r1, #32768	@ 0x8000
70105cc2:	e7c1      	b.n	70105c48 <UART_SetConfig+0x134>
70105cc4:	2000      	movs	r0, #0
70105cc6:	f44f 3180 	mov.w	r1, #65536	@ 0x10000
70105cca:	e7bd      	b.n	70105c48 <UART_SetConfig+0x134>
70105ccc:	2000      	movs	r0, #0
70105cce:	f44f 3100 	mov.w	r1, #131072	@ 0x20000
70105cd2:	e7b9      	b.n	70105c48 <UART_SetConfig+0x134>
70105cd4:	f7ff f9dc 	bl	70105090 <HAL_RCCEx_GetPeriphCLKFreq>
70105cd8:	2800      	cmp	r0, #0
70105cda:	d0b0      	beq.n	70105c3e <UART_SetConfig+0x12a>
70105cdc:	6a61      	ldr	r1, [r4, #36]	@ 0x24
70105cde:	4b11      	ldr	r3, [pc, #68]	@ (70105d24 <UART_SetConfig+0x210>)
70105ce0:	6862      	ldr	r2, [r4, #4]
70105ce2:	f833 3011 	ldrh.w	r3, [r3, r1, lsl #1]
70105ce6:	fbb0 f3f3 	udiv	r3, r0, r3
70105cea:	eb03 0352 	add.w	r3, r3, r2, lsr #1
70105cee:	fbb3 f3f2 	udiv	r3, r3, r2
70105cf2:	f64f 72ef 	movw	r2, #65519	@ 0xffef
70105cf6:	f1a3 0110 	sub.w	r1, r3, #16
70105cfa:	4291      	cmp	r1, r2
70105cfc:	f63f af7a 	bhi.w	70105bf4 <UART_SetConfig+0xe0>
70105d00:	6822      	ldr	r2, [r4, #0]
70105d02:	60d3      	str	r3, [r2, #12]
70105d04:	e79b      	b.n	70105c3e <UART_SetConfig+0x12a>
70105d06:	bf00      	nop
70105d08:	cfff69f3 	.word	0xcfff69f3
70105d0c:	56000c00 	.word	0x56000c00
70105d10:	52001000 	.word	0x52001000
70105d14:	50004400 	.word	0x50004400
70105d18:	52001400 	.word	0x52001400
70105d1c:	50007800 	.word	0x50007800
70105d20:	52001800 	.word	0x52001800
70105d24:	7010f938 	.word	0x7010f938
70105d28:	000ffcff 	.word	0x000ffcff

70105d2c <UART_AdvFeatureConfig>:
70105d2c:	6a83      	ldr	r3, [r0, #40]	@ 0x28
70105d2e:	b510      	push	{r4, lr}
70105d30:	071a      	lsls	r2, r3, #28
70105d32:	d506      	bpl.n	70105d42 <UART_AdvFeatureConfig+0x16>
70105d34:	6801      	ldr	r1, [r0, #0]
70105d36:	6b84      	ldr	r4, [r0, #56]	@ 0x38
70105d38:	684a      	ldr	r2, [r1, #4]
70105d3a:	f422 4200 	bic.w	r2, r2, #32768	@ 0x8000
70105d3e:	4322      	orrs	r2, r4
70105d40:	604a      	str	r2, [r1, #4]
70105d42:	07dc      	lsls	r4, r3, #31
70105d44:	d506      	bpl.n	70105d54 <UART_AdvFeatureConfig+0x28>
70105d46:	6801      	ldr	r1, [r0, #0]
70105d48:	6ac4      	ldr	r4, [r0, #44]	@ 0x2c
70105d4a:	684a      	ldr	r2, [r1, #4]
70105d4c:	f422 3200 	bic.w	r2, r2, #131072	@ 0x20000
70105d50:	4322      	orrs	r2, r4
70105d52:	604a      	str	r2, [r1, #4]
70105d54:	0799      	lsls	r1, r3, #30
70105d56:	d506      	bpl.n	70105d66 <UART_AdvFeatureConfig+0x3a>
70105d58:	6801      	ldr	r1, [r0, #0]
70105d5a:	6b04      	ldr	r4, [r0, #48]	@ 0x30
70105d5c:	684a      	ldr	r2, [r1, #4]
70105d5e:	f422 3280 	bic.w	r2, r2, #65536	@ 0x10000
70105d62:	4322      	orrs	r2, r4
70105d64:	604a      	str	r2, [r1, #4]
70105d66:	075a      	lsls	r2, r3, #29
70105d68:	d506      	bpl.n	70105d78 <UART_AdvFeatureConfig+0x4c>
70105d6a:	6801      	ldr	r1, [r0, #0]
70105d6c:	6b44      	ldr	r4, [r0, #52]	@ 0x34
70105d6e:	684a      	ldr	r2, [r1, #4]
70105d70:	f422 2280 	bic.w	r2, r2, #262144	@ 0x40000
70105d74:	4322      	orrs	r2, r4
70105d76:	604a      	str	r2, [r1, #4]
70105d78:	06dc      	lsls	r4, r3, #27
70105d7a:	d506      	bpl.n	70105d8a <UART_AdvFeatureConfig+0x5e>
70105d7c:	6801      	ldr	r1, [r0, #0]
70105d7e:	6bc4      	ldr	r4, [r0, #60]	@ 0x3c
70105d80:	688a      	ldr	r2, [r1, #8]
70105d82:	f422 5280 	bic.w	r2, r2, #4096	@ 0x1000
70105d86:	4322      	orrs	r2, r4
70105d88:	608a      	str	r2, [r1, #8]
70105d8a:	0699      	lsls	r1, r3, #26
70105d8c:	d506      	bpl.n	70105d9c <UART_AdvFeatureConfig+0x70>
70105d8e:	6801      	ldr	r1, [r0, #0]
70105d90:	6c04      	ldr	r4, [r0, #64]	@ 0x40
70105d92:	688a      	ldr	r2, [r1, #8]
70105d94:	f422 5200 	bic.w	r2, r2, #8192	@ 0x2000
70105d98:	4322      	orrs	r2, r4
70105d9a:	608a      	str	r2, [r1, #8]
70105d9c:	065a      	lsls	r2, r3, #25
70105d9e:	d510      	bpl.n	70105dc2 <UART_AdvFeatureConfig+0x96>
70105da0:	6801      	ldr	r1, [r0, #0]
70105da2:	6c44      	ldr	r4, [r0, #68]	@ 0x44
70105da4:	684a      	ldr	r2, [r1, #4]
70105da6:	f5b4 1f80 	cmp.w	r4, #1048576	@ 0x100000
70105daa:	f422 1280 	bic.w	r2, r2, #1048576	@ 0x100000
70105dae:	ea42 0204 	orr.w	r2, r2, r4
70105db2:	604a      	str	r2, [r1, #4]
70105db4:	d105      	bne.n	70105dc2 <UART_AdvFeatureConfig+0x96>
70105db6:	684a      	ldr	r2, [r1, #4]
70105db8:	6c84      	ldr	r4, [r0, #72]	@ 0x48
70105dba:	f422 02c0 	bic.w	r2, r2, #6291456	@ 0x600000
70105dbe:	4322      	orrs	r2, r4
70105dc0:	604a      	str	r2, [r1, #4]
70105dc2:	061b      	lsls	r3, r3, #24
70105dc4:	d506      	bpl.n	70105dd4 <UART_AdvFeatureConfig+0xa8>
70105dc6:	6802      	ldr	r2, [r0, #0]
70105dc8:	6cc1      	ldr	r1, [r0, #76]	@ 0x4c
70105dca:	6853      	ldr	r3, [r2, #4]
70105dcc:	f423 2300 	bic.w	r3, r3, #524288	@ 0x80000
70105dd0:	430b      	orrs	r3, r1
70105dd2:	6053      	str	r3, [r2, #4]
70105dd4:	bd10      	pop	{r4, pc}

70105dd6 <UART_WaitOnFlagUntilTimeout>:
70105dd6:	e92d 43f8 	stmdb	sp!, {r3, r4, r5, r6, r7, r8, r9, lr}
70105dda:	4604      	mov	r4, r0
70105ddc:	460d      	mov	r5, r1
70105dde:	4617      	mov	r7, r2
70105de0:	4698      	mov	r8, r3
70105de2:	f8dd 9020 	ldr.w	r9, [sp, #32]
70105de6:	6822      	ldr	r2, [r4, #0]
70105de8:	69d3      	ldr	r3, [r2, #28]
70105dea:	ea35 0303 	bics.w	r3, r5, r3
70105dee:	bf0c      	ite	eq
70105df0:	2301      	moveq	r3, #1
70105df2:	2300      	movne	r3, #0
70105df4:	42bb      	cmp	r3, r7
70105df6:	d001      	beq.n	70105dfc <UART_WaitOnFlagUntilTimeout+0x26>
70105df8:	2000      	movs	r0, #0
70105dfa:	e022      	b.n	70105e42 <UART_WaitOnFlagUntilTimeout+0x6c>
70105dfc:	f1b9 3fff 	cmp.w	r9, #4294967295
70105e00:	d0f2      	beq.n	70105de8 <UART_WaitOnFlagUntilTimeout+0x12>
70105e02:	f7fb ff53 	bl	70101cac <HAL_GetTick>
70105e06:	eba0 0008 	sub.w	r0, r0, r8
70105e0a:	4548      	cmp	r0, r9
70105e0c:	d829      	bhi.n	70105e62 <UART_WaitOnFlagUntilTimeout+0x8c>
70105e0e:	f1b9 0f00 	cmp.w	r9, #0
70105e12:	d026      	beq.n	70105e62 <UART_WaitOnFlagUntilTimeout+0x8c>
70105e14:	6821      	ldr	r1, [r4, #0]
70105e16:	680b      	ldr	r3, [r1, #0]
70105e18:	075a      	lsls	r2, r3, #29
70105e1a:	d5e4      	bpl.n	70105de6 <UART_WaitOnFlagUntilTimeout+0x10>
70105e1c:	2d80      	cmp	r5, #128	@ 0x80
70105e1e:	d0e2      	beq.n	70105de6 <UART_WaitOnFlagUntilTimeout+0x10>
70105e20:	2d40      	cmp	r5, #64	@ 0x40
70105e22:	d0e0      	beq.n	70105de6 <UART_WaitOnFlagUntilTimeout+0x10>
70105e24:	69ce      	ldr	r6, [r1, #28]
70105e26:	f016 0608 	ands.w	r6, r6, #8
70105e2a:	d00c      	beq.n	70105e46 <UART_WaitOnFlagUntilTimeout+0x70>
70105e2c:	2508      	movs	r5, #8
70105e2e:	4620      	mov	r0, r4
70105e30:	620d      	str	r5, [r1, #32]
70105e32:	f7ff fe43 	bl	70105abc <UART_EndRxTransfer>
70105e36:	2300      	movs	r3, #0
70105e38:	2001      	movs	r0, #1
70105e3a:	f8c4 5090 	str.w	r5, [r4, #144]	@ 0x90
70105e3e:	f884 3084 	strb.w	r3, [r4, #132]	@ 0x84
70105e42:	e8bd 83f8 	ldmia.w	sp!, {r3, r4, r5, r6, r7, r8, r9, pc}
70105e46:	69cb      	ldr	r3, [r1, #28]
70105e48:	051b      	lsls	r3, r3, #20
70105e4a:	d5cc      	bpl.n	70105de6 <UART_WaitOnFlagUntilTimeout+0x10>
70105e4c:	f44f 6300 	mov.w	r3, #2048	@ 0x800
70105e50:	4620      	mov	r0, r4
70105e52:	620b      	str	r3, [r1, #32]
70105e54:	f7ff fe32 	bl	70105abc <UART_EndRxTransfer>
70105e58:	2320      	movs	r3, #32
70105e5a:	f884 6084 	strb.w	r6, [r4, #132]	@ 0x84
70105e5e:	f8c4 3090 	str.w	r3, [r4, #144]	@ 0x90
70105e62:	2003      	movs	r0, #3
70105e64:	e7ed      	b.n	70105e42 <UART_WaitOnFlagUntilTimeout+0x6c>

70105e66 <HAL_UART_Transmit>:
70105e66:	e92d 43f7 	stmdb	sp!, {r0, r1, r2, r4, r5, r6, r7, r8, r9, lr}
70105e6a:	4698      	mov	r8, r3
70105e6c:	f8d0 3088 	ldr.w	r3, [r0, #136]	@ 0x88
70105e70:	4604      	mov	r4, r0
70105e72:	2b20      	cmp	r3, #32
70105e74:	460d      	mov	r5, r1
70105e76:	4616      	mov	r6, r2
70105e78:	d150      	bne.n	70105f1c <HAL_UART_Transmit+0xb6>
70105e7a:	b919      	cbnz	r1, 70105e84 <HAL_UART_Transmit+0x1e>
70105e7c:	2001      	movs	r0, #1
70105e7e:	b003      	add	sp, #12
70105e80:	e8bd 83f0 	ldmia.w	sp!, {r4, r5, r6, r7, r8, r9, pc}
70105e84:	2a00      	cmp	r2, #0
70105e86:	d0f9      	beq.n	70105e7c <HAL_UART_Transmit+0x16>
70105e88:	2321      	movs	r3, #33	@ 0x21
70105e8a:	f04f 0900 	mov.w	r9, #0
70105e8e:	f8c0 9090 	str.w	r9, [r0, #144]	@ 0x90
70105e92:	f8c0 3088 	str.w	r3, [r0, #136]	@ 0x88
70105e96:	f7fb ff09 	bl	70101cac <HAL_GetTick>
70105e9a:	68a3      	ldr	r3, [r4, #8]
70105e9c:	f8a4 6054 	strh.w	r6, [r4, #84]	@ 0x54
70105ea0:	f5b3 5f80 	cmp.w	r3, #4096	@ 0x1000
70105ea4:	f8a4 6056 	strh.w	r6, [r4, #86]	@ 0x56
70105ea8:	4607      	mov	r7, r0
70105eaa:	464e      	mov	r6, r9
70105eac:	d103      	bne.n	70105eb6 <HAL_UART_Transmit+0x50>
70105eae:	6923      	ldr	r3, [r4, #16]
70105eb0:	b90b      	cbnz	r3, 70105eb6 <HAL_UART_Transmit+0x50>
70105eb2:	462e      	mov	r6, r5
70105eb4:	461d      	mov	r5, r3
70105eb6:	f8b4 2056 	ldrh.w	r2, [r4, #86]	@ 0x56
70105eba:	463b      	mov	r3, r7
70105ebc:	b292      	uxth	r2, r2
70105ebe:	f8cd 8000 	str.w	r8, [sp]
70105ec2:	b94a      	cbnz	r2, 70105ed8 <HAL_UART_Transmit+0x72>
70105ec4:	2140      	movs	r1, #64	@ 0x40
70105ec6:	4620      	mov	r0, r4
70105ec8:	f7ff ff85 	bl	70105dd6 <UART_WaitOnFlagUntilTimeout>
70105ecc:	2320      	movs	r3, #32
70105ece:	f8c4 3088 	str.w	r3, [r4, #136]	@ 0x88
70105ed2:	2800      	cmp	r0, #0
70105ed4:	d0d3      	beq.n	70105e7e <HAL_UART_Transmit+0x18>
70105ed6:	e008      	b.n	70105eea <HAL_UART_Transmit+0x84>
70105ed8:	2200      	movs	r2, #0
70105eda:	2180      	movs	r1, #128	@ 0x80
70105edc:	4620      	mov	r0, r4
70105ede:	f7ff ff7a 	bl	70105dd6 <UART_WaitOnFlagUntilTimeout>
70105ee2:	b120      	cbz	r0, 70105eee <HAL_UART_Transmit+0x88>
70105ee4:	2320      	movs	r3, #32
70105ee6:	f8c4 3088 	str.w	r3, [r4, #136]	@ 0x88
70105eea:	2003      	movs	r0, #3
70105eec:	e7c7      	b.n	70105e7e <HAL_UART_Transmit+0x18>
70105eee:	6822      	ldr	r2, [r4, #0]
70105ef0:	b98d      	cbnz	r5, 70105f16 <HAL_UART_Transmit+0xb0>
70105ef2:	f836 3b02 	ldrh.w	r3, [r6], #2
70105ef6:	f3c3 0308 	ubfx	r3, r3, #0, #9
70105efa:	6293      	str	r3, [r2, #40]	@ 0x28
70105efc:	f8d4 3088 	ldr.w	r3, [r4, #136]	@ 0x88
70105f00:	f003 0321 	and.w	r3, r3, #33	@ 0x21
70105f04:	2b21      	cmp	r3, #33	@ 0x21
70105f06:	d1b9      	bne.n	70105e7c <HAL_UART_Transmit+0x16>
70105f08:	f8b4 2056 	ldrh.w	r2, [r4, #86]	@ 0x56
70105f0c:	3a01      	subs	r2, #1
70105f0e:	b292      	uxth	r2, r2
70105f10:	f8a4 2056 	strh.w	r2, [r4, #86]	@ 0x56
70105f14:	e7cf      	b.n	70105eb6 <HAL_UART_Transmit+0x50>
70105f16:	f815 3b01 	ldrb.w	r3, [r5], #1
70105f1a:	e7ee      	b.n	70105efa <HAL_UART_Transmit+0x94>
70105f1c:	2002      	movs	r0, #2
70105f1e:	e7ae      	b.n	70105e7e <HAL_UART_Transmit+0x18>

70105f20 <HAL_UART_Receive>:
70105f20:	e92d 43f7 	stmdb	sp!, {r0, r1, r2, r4, r5, r6, r7, r8, r9, lr}
70105f24:	4698      	mov	r8, r3
70105f26:	f8d0 308c 	ldr.w	r3, [r0, #140]	@ 0x8c
70105f2a:	4604      	mov	r4, r0
70105f2c:	2b20      	cmp	r3, #32
70105f2e:	460f      	mov	r7, r1
70105f30:	4616      	mov	r6, r2
70105f32:	d161      	bne.n	70105ff8 <HAL_UART_Receive+0xd8>
70105f34:	b919      	cbnz	r1, 70105f3e <HAL_UART_Receive+0x1e>
70105f36:	2001      	movs	r0, #1
70105f38:	b003      	add	sp, #12
70105f3a:	e8bd 83f0 	ldmia.w	sp!, {r4, r5, r6, r7, r8, r9, pc}
70105f3e:	2a00      	cmp	r2, #0
70105f40:	d0f9      	beq.n	70105f36 <HAL_UART_Receive+0x16>
70105f42:	2322      	movs	r3, #34	@ 0x22
70105f44:	2500      	movs	r5, #0
70105f46:	f8c0 5090 	str.w	r5, [r0, #144]	@ 0x90
70105f4a:	f8c0 308c 	str.w	r3, [r0, #140]	@ 0x8c
70105f4e:	66c5      	str	r5, [r0, #108]	@ 0x6c
70105f50:	f7fb feac 	bl	70101cac <HAL_GetTick>
70105f54:	68a3      	ldr	r3, [r4, #8]
70105f56:	4681      	mov	r9, r0
70105f58:	f5b3 5f80 	cmp.w	r3, #4096	@ 0x1000
70105f5c:	f8a4 605c 	strh.w	r6, [r4, #92]	@ 0x5c
70105f60:	f8a4 605e 	strh.w	r6, [r4, #94]	@ 0x5e
70105f64:	d10d      	bne.n	70105f82 <HAL_UART_Receive+0x62>
70105f66:	6923      	ldr	r3, [r4, #16]
70105f68:	b1db      	cbz	r3, 70105fa2 <HAL_UART_Receive+0x82>
70105f6a:	22ff      	movs	r2, #255	@ 0xff
70105f6c:	4616      	mov	r6, r2
70105f6e:	f8a4 2060 	strh.w	r2, [r4, #96]	@ 0x60
70105f72:	f8b4 005e 	ldrh.w	r0, [r4, #94]	@ 0x5e
70105f76:	b280      	uxth	r0, r0
70105f78:	b9e0      	cbnz	r0, 70105fb4 <HAL_UART_Receive+0x94>
70105f7a:	2320      	movs	r3, #32
70105f7c:	f8c4 308c 	str.w	r3, [r4, #140]	@ 0x8c
70105f80:	e7da      	b.n	70105f38 <HAL_UART_Receive+0x18>
70105f82:	b933      	cbnz	r3, 70105f92 <HAL_UART_Receive+0x72>
70105f84:	6925      	ldr	r5, [r4, #16]
70105f86:	2d00      	cmp	r5, #0
70105f88:	d0ef      	beq.n	70105f6a <HAL_UART_Receive+0x4a>
70105f8a:	227f      	movs	r2, #127	@ 0x7f
70105f8c:	461d      	mov	r5, r3
70105f8e:	4616      	mov	r6, r2
70105f90:	e7ed      	b.n	70105f6e <HAL_UART_Receive+0x4e>
70105f92:	f1b3 5f80 	cmp.w	r3, #268435456	@ 0x10000000
70105f96:	d10a      	bne.n	70105fae <HAL_UART_Receive+0x8e>
70105f98:	6923      	ldr	r3, [r4, #16]
70105f9a:	2b00      	cmp	r3, #0
70105f9c:	d0f5      	beq.n	70105f8a <HAL_UART_Receive+0x6a>
70105f9e:	223f      	movs	r2, #63	@ 0x3f
70105fa0:	e7e4      	b.n	70105f6c <HAL_UART_Receive+0x4c>
70105fa2:	f240 12ff 	movw	r2, #511	@ 0x1ff
70105fa6:	463d      	mov	r5, r7
70105fa8:	4616      	mov	r6, r2
70105faa:	461f      	mov	r7, r3
70105fac:	e7df      	b.n	70105f6e <HAL_UART_Receive+0x4e>
70105fae:	462a      	mov	r2, r5
70105fb0:	462e      	mov	r6, r5
70105fb2:	e7dc      	b.n	70105f6e <HAL_UART_Receive+0x4e>
70105fb4:	464b      	mov	r3, r9
70105fb6:	2200      	movs	r2, #0
70105fb8:	2120      	movs	r1, #32
70105fba:	4620      	mov	r0, r4
70105fbc:	f8cd 8000 	str.w	r8, [sp]
70105fc0:	f7ff ff09 	bl	70105dd6 <UART_WaitOnFlagUntilTimeout>
70105fc4:	b120      	cbz	r0, 70105fd0 <HAL_UART_Receive+0xb0>
70105fc6:	2320      	movs	r3, #32
70105fc8:	2003      	movs	r0, #3
70105fca:	f8c4 308c 	str.w	r3, [r4, #140]	@ 0x8c
70105fce:	e7b3      	b.n	70105f38 <HAL_UART_Receive+0x18>
70105fd0:	6823      	ldr	r3, [r4, #0]
70105fd2:	6a5b      	ldr	r3, [r3, #36]	@ 0x24
70105fd4:	4033      	ands	r3, r6
70105fd6:	b967      	cbnz	r7, 70105ff2 <HAL_UART_Receive+0xd2>
70105fd8:	f825 3b02 	strh.w	r3, [r5], #2
70105fdc:	f8d4 308c 	ldr.w	r3, [r4, #140]	@ 0x8c
70105fe0:	2b22      	cmp	r3, #34	@ 0x22
70105fe2:	d1a8      	bne.n	70105f36 <HAL_UART_Receive+0x16>
70105fe4:	f8b4 305e 	ldrh.w	r3, [r4, #94]	@ 0x5e
70105fe8:	3b01      	subs	r3, #1
70105fea:	b29b      	uxth	r3, r3
70105fec:	f8a4 305e 	strh.w	r3, [r4, #94]	@ 0x5e
70105ff0:	e7bf      	b.n	70105f72 <HAL_UART_Receive+0x52>
70105ff2:	f807 3b01 	strb.w	r3, [r7], #1
70105ff6:	e7f1      	b.n	70105fdc <HAL_UART_Receive+0xbc>
70105ff8:	2002      	movs	r0, #2
70105ffa:	e79d      	b.n	70105f38 <HAL_UART_Receive+0x18>

70105ffc <UART_CheckIdleState>:
70105ffc:	b573      	push	{r0, r1, r4, r5, r6, lr}
70105ffe:	2600      	movs	r6, #0
70106000:	4604      	mov	r4, r0
70106002:	f8c0 6090 	str.w	r6, [r0, #144]	@ 0x90
70106006:	f7fb fe51 	bl	70101cac <HAL_GetTick>
7010600a:	6823      	ldr	r3, [r4, #0]
7010600c:	4605      	mov	r5, r0
7010600e:	681b      	ldr	r3, [r3, #0]
70106010:	071a      	lsls	r2, r3, #28
70106012:	d51c      	bpl.n	7010604e <UART_CheckIdleState+0x52>
70106014:	f06f 437e 	mvn.w	r3, #4261412864	@ 0xfe000000
70106018:	4632      	mov	r2, r6
7010601a:	9300      	str	r3, [sp, #0]
7010601c:	f44f 1100 	mov.w	r1, #2097152	@ 0x200000
70106020:	4603      	mov	r3, r0
70106022:	4620      	mov	r0, r4
70106024:	f7ff fed7 	bl	70105dd6 <UART_WaitOnFlagUntilTimeout>
70106028:	b188      	cbz	r0, 7010604e <UART_CheckIdleState+0x52>
7010602a:	6822      	ldr	r2, [r4, #0]
7010602c:	e852 3f00 	ldrex	r3, [r2]
70106030:	f023 0380 	bic.w	r3, r3, #128	@ 0x80
70106034:	e842 3100 	strex	r1, r3, [r2]
70106038:	2900      	cmp	r1, #0
7010603a:	d1f6      	bne.n	7010602a <UART_CheckIdleState+0x2e>
7010603c:	2320      	movs	r3, #32
7010603e:	f8c4 3088 	str.w	r3, [r4, #136]	@ 0x88
70106042:	2003      	movs	r0, #3
70106044:	2300      	movs	r3, #0
70106046:	f884 3084 	strb.w	r3, [r4, #132]	@ 0x84
7010604a:	b002      	add	sp, #8
7010604c:	bd70      	pop	{r4, r5, r6, pc}
7010604e:	6823      	ldr	r3, [r4, #0]
70106050:	681b      	ldr	r3, [r3, #0]
70106052:	075b      	lsls	r3, r3, #29
70106054:	d524      	bpl.n	701060a0 <UART_CheckIdleState+0xa4>
70106056:	f06f 437e 	mvn.w	r3, #4261412864	@ 0xfe000000
7010605a:	2200      	movs	r2, #0
7010605c:	9300      	str	r3, [sp, #0]
7010605e:	f44f 0180 	mov.w	r1, #4194304	@ 0x400000
70106062:	462b      	mov	r3, r5
70106064:	4620      	mov	r0, r4
70106066:	f7ff feb6 	bl	70105dd6 <UART_WaitOnFlagUntilTimeout>
7010606a:	b1c8      	cbz	r0, 701060a0 <UART_CheckIdleState+0xa4>
7010606c:	6822      	ldr	r2, [r4, #0]
7010606e:	e852 3f00 	ldrex	r3, [r2]
70106072:	f423 7390 	bic.w	r3, r3, #288	@ 0x120
70106076:	e842 3100 	strex	r1, r3, [r2]
7010607a:	6822      	ldr	r2, [r4, #0]
7010607c:	2900      	cmp	r1, #0
7010607e:	d1f5      	bne.n	7010606c <UART_CheckIdleState+0x70>
70106080:	f102 0308 	add.w	r3, r2, #8
70106084:	e853 3f00 	ldrex	r3, [r3]
70106088:	f023 0301 	bic.w	r3, r3, #1
7010608c:	f102 0008 	add.w	r0, r2, #8
70106090:	e840 3100 	strex	r1, r3, [r0]
70106094:	2900      	cmp	r1, #0
70106096:	d1f3      	bne.n	70106080 <UART_CheckIdleState+0x84>
70106098:	2320      	movs	r3, #32
7010609a:	f8c4 308c 	str.w	r3, [r4, #140]	@ 0x8c
7010609e:	e7d0      	b.n	70106042 <UART_CheckIdleState+0x46>
701060a0:	2320      	movs	r3, #32
701060a2:	2000      	movs	r0, #0
701060a4:	f8c4 3088 	str.w	r3, [r4, #136]	@ 0x88
701060a8:	f8c4 308c 	str.w	r3, [r4, #140]	@ 0x8c
701060ac:	66e0      	str	r0, [r4, #108]	@ 0x6c
701060ae:	6720      	str	r0, [r4, #112]	@ 0x70
701060b0:	e7c8      	b.n	70106044 <UART_CheckIdleState+0x48>

701060b2 <HAL_UART_Init>:
701060b2:	b510      	push	{r4, lr}
701060b4:	4604      	mov	r4, r0
701060b6:	b350      	cbz	r0, 7010610e <HAL_UART_Init+0x5c>
701060b8:	f8d0 3088 	ldr.w	r3, [r0, #136]	@ 0x88
701060bc:	b91b      	cbnz	r3, 701060c6 <HAL_UART_Init+0x14>
701060be:	f880 3084 	strb.w	r3, [r0, #132]	@ 0x84
701060c2:	f7fb fb8f 	bl	701017e4 <HAL_UART_MspInit>
701060c6:	2324      	movs	r3, #36	@ 0x24
701060c8:	6822      	ldr	r2, [r4, #0]
701060ca:	f8c4 3088 	str.w	r3, [r4, #136]	@ 0x88
701060ce:	6813      	ldr	r3, [r2, #0]
701060d0:	f023 0301 	bic.w	r3, r3, #1
701060d4:	6013      	str	r3, [r2, #0]
701060d6:	6aa3      	ldr	r3, [r4, #40]	@ 0x28
701060d8:	b113      	cbz	r3, 701060e0 <HAL_UART_Init+0x2e>
701060da:	4620      	mov	r0, r4
701060dc:	f7ff fe26 	bl	70105d2c <UART_AdvFeatureConfig>
701060e0:	4620      	mov	r0, r4
701060e2:	f7ff fd17 	bl	70105b14 <UART_SetConfig>
701060e6:	2801      	cmp	r0, #1
701060e8:	d011      	beq.n	7010610e <HAL_UART_Init+0x5c>
701060ea:	6823      	ldr	r3, [r4, #0]
701060ec:	4620      	mov	r0, r4
701060ee:	e8bd 4010 	ldmia.w	sp!, {r4, lr}
701060f2:	685a      	ldr	r2, [r3, #4]
701060f4:	f422 4290 	bic.w	r2, r2, #18432	@ 0x4800
701060f8:	605a      	str	r2, [r3, #4]
701060fa:	689a      	ldr	r2, [r3, #8]
701060fc:	f022 022a 	bic.w	r2, r2, #42	@ 0x2a
70106100:	609a      	str	r2, [r3, #8]
70106102:	681a      	ldr	r2, [r3, #0]
70106104:	f042 0201 	orr.w	r2, r2, #1
70106108:	601a      	str	r2, [r3, #0]
7010610a:	f7ff bf77 	b.w	70105ffc <UART_CheckIdleState>
7010610e:	2001      	movs	r0, #1
70106110:	bd10      	pop	{r4, pc}
	...

70106114 <UARTEx_SetNbDataToProcess>:
70106114:	6e43      	ldr	r3, [r0, #100]	@ 0x64
70106116:	b530      	push	{r4, r5, lr}
70106118:	b92b      	cbnz	r3, 70106126 <UARTEx_SetNbDataToProcess+0x12>
7010611a:	2301      	movs	r3, #1
7010611c:	f8a0 306a 	strh.w	r3, [r0, #106]	@ 0x6a
70106120:	f8a0 3068 	strh.w	r3, [r0, #104]	@ 0x68
70106124:	bd30      	pop	{r4, r5, pc}
70106126:	6803      	ldr	r3, [r0, #0]
70106128:	4d09      	ldr	r5, [pc, #36]	@ (70106150 <UARTEx_SetNbDataToProcess+0x3c>)
7010612a:	689a      	ldr	r2, [r3, #8]
7010612c:	6899      	ldr	r1, [r3, #8]
7010612e:	4c09      	ldr	r4, [pc, #36]	@ (70106154 <UARTEx_SetNbDataToProcess+0x40>)
70106130:	0f49      	lsrs	r1, r1, #29
70106132:	5c6b      	ldrb	r3, [r5, r1]
70106134:	5c61      	ldrb	r1, [r4, r1]
70106136:	011b      	lsls	r3, r3, #4
70106138:	fbb3 f3f1 	udiv	r3, r3, r1
7010613c:	f3c2 6242 	ubfx	r2, r2, #25, #3
70106140:	f8a0 306a 	strh.w	r3, [r0, #106]	@ 0x6a
70106144:	5cab      	ldrb	r3, [r5, r2]
70106146:	5ca2      	ldrb	r2, [r4, r2]
70106148:	011b      	lsls	r3, r3, #4
7010614a:	fbb3 f3f2 	udiv	r3, r3, r2
7010614e:	e7e7      	b.n	70106120 <UARTEx_SetNbDataToProcess+0xc>
70106150:	7010f958 	.word	0x7010f958
70106154:	7010f950 	.word	0x7010f950

70106158 <HAL_UARTEx_DisableFifoMode>:
70106158:	f890 3084 	ldrb.w	r3, [r0, #132]	@ 0x84
7010615c:	2b01      	cmp	r3, #1
7010615e:	d014      	beq.n	7010618a <HAL_UARTEx_DisableFifoMode+0x32>
70106160:	2324      	movs	r3, #36	@ 0x24
70106162:	6802      	ldr	r2, [r0, #0]
70106164:	f8c0 3088 	str.w	r3, [r0, #136]	@ 0x88
70106168:	6811      	ldr	r1, [r2, #0]
7010616a:	6813      	ldr	r3, [r2, #0]
7010616c:	f021 5100 	bic.w	r1, r1, #536870912	@ 0x20000000
70106170:	f023 0301 	bic.w	r3, r3, #1
70106174:	6013      	str	r3, [r2, #0]
70106176:	2300      	movs	r3, #0
70106178:	6643      	str	r3, [r0, #100]	@ 0x64
7010617a:	6011      	str	r1, [r2, #0]
7010617c:	2220      	movs	r2, #32
7010617e:	f880 3084 	strb.w	r3, [r0, #132]	@ 0x84
70106182:	f8c0 2088 	str.w	r2, [r0, #136]	@ 0x88
70106186:	4618      	mov	r0, r3
70106188:	4770      	bx	lr
7010618a:	2002      	movs	r0, #2
7010618c:	4770      	bx	lr

7010618e <HAL_UARTEx_SetTxFifoThreshold>:
7010618e:	b570      	push	{r4, r5, r6, lr}
70106190:	f890 3084 	ldrb.w	r3, [r0, #132]	@ 0x84
70106194:	4604      	mov	r4, r0
70106196:	2b01      	cmp	r3, #1
70106198:	d017      	beq.n	701061ca <HAL_UARTEx_SetTxFifoThreshold+0x3c>
7010619a:	2324      	movs	r3, #36	@ 0x24
7010619c:	6805      	ldr	r5, [r0, #0]
7010619e:	f8c0 3088 	str.w	r3, [r0, #136]	@ 0x88
701061a2:	682e      	ldr	r6, [r5, #0]
701061a4:	682b      	ldr	r3, [r5, #0]
701061a6:	f023 0301 	bic.w	r3, r3, #1
701061aa:	602b      	str	r3, [r5, #0]
701061ac:	68ab      	ldr	r3, [r5, #8]
701061ae:	f023 4360 	bic.w	r3, r3, #3758096384	@ 0xe0000000
701061b2:	4319      	orrs	r1, r3
701061b4:	60a9      	str	r1, [r5, #8]
701061b6:	f7ff ffad 	bl	70106114 <UARTEx_SetNbDataToProcess>
701061ba:	2320      	movs	r3, #32
701061bc:	602e      	str	r6, [r5, #0]
701061be:	f8c0 3088 	str.w	r3, [r0, #136]	@ 0x88
701061c2:	2000      	movs	r0, #0
701061c4:	f884 0084 	strb.w	r0, [r4, #132]	@ 0x84
701061c8:	bd70      	pop	{r4, r5, r6, pc}
701061ca:	2002      	movs	r0, #2
701061cc:	e7fc      	b.n	701061c8 <HAL_UARTEx_SetTxFifoThreshold+0x3a>

701061ce <HAL_UARTEx_SetRxFifoThreshold>:
701061ce:	b570      	push	{r4, r5, r6, lr}
701061d0:	f890 3084 	ldrb.w	r3, [r0, #132]	@ 0x84
701061d4:	4604      	mov	r4, r0
701061d6:	2b01      	cmp	r3, #1
701061d8:	d017      	beq.n	7010620a <HAL_UARTEx_SetRxFifoThreshold+0x3c>
701061da:	2324      	movs	r3, #36	@ 0x24
701061dc:	6805      	ldr	r5, [r0, #0]
701061de:	f8c0 3088 	str.w	r3, [r0, #136]	@ 0x88
701061e2:	682e      	ldr	r6, [r5, #0]
701061e4:	682b      	ldr	r3, [r5, #0]
701061e6:	f023 0301 	bic.w	r3, r3, #1
701061ea:	602b      	str	r3, [r5, #0]
701061ec:	68ab      	ldr	r3, [r5, #8]
701061ee:	f023 6360 	bic.w	r3, r3, #234881024	@ 0xe000000
701061f2:	4319      	orrs	r1, r3
701061f4:	60a9      	str	r1, [r5, #8]
701061f6:	f7ff ff8d 	bl	70106114 <UARTEx_SetNbDataToProcess>
701061fa:	2320      	movs	r3, #32
701061fc:	602e      	str	r6, [r5, #0]
701061fe:	f8c0 3088 	str.w	r3, [r0, #136]	@ 0x88
70106202:	2000      	movs	r0, #0
70106204:	f884 0084 	strb.w	r0, [r4, #132]	@ 0x84
70106208:	bd70      	pop	{r4, r5, r6, pc}
7010620a:	2002      	movs	r0, #2
7010620c:	e7fc      	b.n	70106208 <HAL_UARTEx_SetRxFifoThreshold+0x3a>

7010620e <_put_c_buffer_cb>:
7010620e:	e9d0 3201 	ldrd	r3, r2, [r0, #4]
70106212:	3b01      	subs	r3, #1
70106214:	429a      	cmp	r2, r3
70106216:	d207      	bcs.n	70106228 <_put_c_buffer_cb+0x1a>
70106218:	6803      	ldr	r3, [r0, #0]
7010621a:	5499      	strb	r1, [r3, r2]
7010621c:	2100      	movs	r1, #0
7010621e:	6883      	ldr	r3, [r0, #8]
70106220:	6802      	ldr	r2, [r0, #0]
70106222:	3301      	adds	r3, #1
70106224:	6083      	str	r3, [r0, #8]
70106226:	54d1      	strb	r1, [r2, r3]
70106228:	4770      	bx	lr
	...

7010622c <_put_c_driver>:
7010622c:	b507      	push	{r0, r1, r2, lr}
7010622e:	4b07      	ldr	r3, [pc, #28]	@ (7010624c <_put_c_driver+0x20>)
70106230:	f88d 1007 	strb.w	r1, [sp, #7]
70106234:	781b      	ldrb	r3, [r3, #0]
70106236:	b13b      	cbz	r3, 70106248 <_put_c_driver+0x1c>
70106238:	f04f 33ff 	mov.w	r3, #4294967295
7010623c:	2201      	movs	r2, #1
7010623e:	4804      	ldr	r0, [pc, #16]	@ (70106250 <_put_c_driver+0x24>)
70106240:	f10d 0107 	add.w	r1, sp, #7
70106244:	f7ff fe0f 	bl	70105e66 <HAL_UART_Transmit>
70106248:	b003      	add	sp, #12
7010624a:	bd00      	pop	{pc}
7010624c:	3400000c 	.word	0x3400000c
70106250:	34000d0c 	.word	0x34000d0c

70106254 <ioRawWriteBuffer>:
70106254:	b508      	push	{r3, lr}
70106256:	b28a      	uxth	r2, r1
70106258:	f04f 33ff 	mov.w	r3, #4294967295
7010625c:	4601      	mov	r1, r0
7010625e:	4803      	ldr	r0, [pc, #12]	@ (7010626c <ioRawWriteBuffer+0x18>)
70106260:	f7ff fe01 	bl	70105e66 <HAL_UART_Transmit>
70106264:	fab0 f080 	clz	r0, r0
70106268:	0940      	lsrs	r0, r0, #5
7010626a:	bd08      	pop	{r3, pc}
7010626c:	34000d0c 	.word	0x34000d0c

70106270 <ioRawReadBuffer>:
70106270:	b508      	push	{r3, lr}
70106272:	b28a      	uxth	r2, r1
70106274:	f04f 33ff 	mov.w	r3, #4294967295
70106278:	4601      	mov	r1, r0
7010627a:	4803      	ldr	r0, [pc, #12]	@ (70106288 <ioRawReadBuffer+0x18>)
7010627c:	f7ff fe50 	bl	70105f20 <HAL_UART_Receive>
70106280:	fab0 f080 	clz	r0, r0
70106284:	0940      	lsrs	r0, r0, #5
70106286:	bd08      	pop	{r3, pc}
70106288:	34000d0c 	.word	0x34000d0c

7010628c <ioRawDisableLLWrite>:
7010628c:	2200      	movs	r2, #0
7010628e:	4b01      	ldr	r3, [pc, #4]	@ (70106294 <ioRawDisableLLWrite+0x8>)
70106290:	701a      	strb	r2, [r3, #0]
70106292:	4770      	bx	lr
70106294:	3400000c 	.word	0x3400000c

70106298 <_write>:
70106298:	b510      	push	{r4, lr}
7010629a:	1e14      	subs	r4, r2, #0
7010629c:	da0a      	bge.n	701062b4 <_write+0x1c>
7010629e:	3801      	subs	r0, #1
701062a0:	2801      	cmp	r0, #1
701062a2:	d907      	bls.n	701062b4 <_write+0x1c>
701062a4:	f005 fe30 	bl	7010bf08 <__errno>
701062a8:	2309      	movs	r3, #9
701062aa:	f04f 34ff 	mov.w	r4, #4294967295
701062ae:	6003      	str	r3, [r0, #0]
701062b0:	4620      	mov	r0, r4
701062b2:	bd10      	pop	{r4, pc}
701062b4:	4b06      	ldr	r3, [pc, #24]	@ (701062d0 <_write+0x38>)
701062b6:	781b      	ldrb	r3, [r3, #0]
701062b8:	2b00      	cmp	r3, #0
701062ba:	d0f9      	beq.n	701062b0 <_write+0x18>
701062bc:	b2a2      	uxth	r2, r4
701062be:	f04f 33ff 	mov.w	r3, #4294967295
701062c2:	4804      	ldr	r0, [pc, #16]	@ (701062d4 <_write+0x3c>)
701062c4:	f7ff fdcf 	bl	70105e66 <HAL_UART_Transmit>
701062c8:	2800      	cmp	r0, #0
701062ca:	bf18      	it	ne
701062cc:	2400      	movne	r4, #0
701062ce:	e7ef      	b.n	701062b0 <_write+0x18>
701062d0:	3400000c 	.word	0x3400000c
701062d4:	34000d0c 	.word	0x34000d0c

701062d8 <uint32_to_str>:
701062d8:	2320      	movs	r3, #32
701062da:	b5f0      	push	{r4, r5, r6, r7, lr}
701062dc:	700b      	strb	r3, [r1, #0]
701062de:	f06f 0703 	mvn.w	r7, #3
701062e2:	2301      	movs	r3, #1
701062e4:	2608      	movs	r6, #8
701062e6:	fb07 f403 	mul.w	r4, r7, r3
701062ea:	1ad5      	subs	r5, r2, r3
701062ec:	3420      	adds	r4, #32
701062ee:	fa20 f404 	lsr.w	r4, r0, r4
701062f2:	2d01      	cmp	r5, #1
701062f4:	f004 040f 	and.w	r4, r4, #15
701062f8:	dd10      	ble.n	7010631c <uint32_to_str+0x44>
701062fa:	2c09      	cmp	r4, #9
701062fc:	b2e5      	uxtb	r5, r4
701062fe:	bf8c      	ite	hi
70106300:	f105 0437 	addhi.w	r4, r5, #55	@ 0x37
70106304:	f105 0430 	addls.w	r4, r5, #48	@ 0x30
70106308:	3e01      	subs	r6, #1
7010630a:	54cc      	strb	r4, [r1, r3]
7010630c:	f103 0301 	add.w	r3, r3, #1
70106310:	d1e9      	bne.n	701062e6 <uint32_to_str+0xe>
70106312:	2308      	movs	r3, #8
70106314:	4419      	add	r1, r3
70106316:	2300      	movs	r3, #0
70106318:	704b      	strb	r3, [r1, #1]
7010631a:	bdf0      	pop	{r4, r5, r6, r7, pc}
7010631c:	3b01      	subs	r3, #1
7010631e:	e7f9      	b.n	70106314 <uint32_to_str+0x3c>

70106320 <lc_print>:
70106320:	b40f      	push	{r0, r1, r2, r3}
70106322:	b507      	push	{r0, r1, r2, lr}
70106324:	ab04      	add	r3, sp, #16
70106326:	f853 2b04 	ldr.w	r2, [r3], #4
7010632a:	2100      	movs	r1, #0
7010632c:	4804      	ldr	r0, [pc, #16]	@ (70106340 <lc_print+0x20>)
7010632e:	9301      	str	r3, [sp, #4]
70106330:	f000 fa16 	bl	70106760 <vlc_print>
70106334:	b003      	add	sp, #12
70106336:	f85d eb04 	ldr.w	lr, [sp], #4
7010633a:	b004      	add	sp, #16
7010633c:	4770      	bx	lr
7010633e:	bf00      	nop
70106340:	7010622d 	.word	0x7010622d

70106344 <lc_vsnprint>:
70106344:	b51f      	push	{r0, r1, r2, r3, r4, lr}
70106346:	e9cd 0101 	strd	r0, r1, [sp, #4]
7010634a:	2100      	movs	r1, #0
7010634c:	4804      	ldr	r0, [pc, #16]	@ (70106360 <lc_vsnprint+0x1c>)
7010634e:	9103      	str	r1, [sp, #12]
70106350:	a901      	add	r1, sp, #4
70106352:	f000 fa05 	bl	70106760 <vlc_print>
70106356:	9803      	ldr	r0, [sp, #12]
70106358:	3801      	subs	r0, #1
7010635a:	b005      	add	sp, #20
7010635c:	bd00      	pop	{pc}
7010635e:	bf00      	nop
70106360:	7010620f 	.word	0x7010620f

70106364 <dwtCyclesToTime>:
70106364:	e92d 4ff7 	stmdb	sp!, {r0, r1, r2, r4, r5, r6, r7, r8, r9, sl, fp, lr}
70106368:	4604      	mov	r4, r0
7010636a:	468a      	mov	sl, r1
7010636c:	4616      	mov	r6, r2
7010636e:	b38a      	cbz	r2, 701063d4 <dwtCyclesToTime+0x70>
70106370:	f7fb fef2 	bl	70102158 <HAL_RCC_GetCpuClockFreq>
70106374:	2300      	movs	r3, #0
70106376:	4607      	mov	r7, r0
70106378:	4602      	mov	r2, r0
7010637a:	4651      	mov	r1, sl
7010637c:	4620      	mov	r0, r4
7010637e:	f7fa fb1d 	bl	701009bc <__aeabi_uldivmod>
70106382:	f44f 757a 	mov.w	r5, #1000	@ 0x3e8
70106386:	4683      	mov	fp, r0
70106388:	fba4 0105 	umull	r0, r1, r4, r5
7010638c:	463a      	mov	r2, r7
7010638e:	2300      	movs	r3, #0
70106390:	fb05 110a 	mla	r1, r5, sl, r1
70106394:	f7fa fb12 	bl	701009bc <__aeabi_uldivmod>
70106398:	fbab 3205 	umull	r3, r2, fp, r5
7010639c:	f8df 903c 	ldr.w	r9, [pc, #60]	@ 701063dc <dwtCyclesToTime+0x78>
701063a0:	1ac3      	subs	r3, r0, r3
701063a2:	fba4 0109 	umull	r0, r1, r4, r9
701063a6:	9301      	str	r3, [sp, #4]
701063a8:	fb09 110a 	mla	r1, r9, sl, r1
701063ac:	2300      	movs	r3, #0
701063ae:	463a      	mov	r2, r7
701063b0:	f7fa fb04 	bl	701009bc <__aeabi_uldivmod>
701063b4:	9b01      	ldr	r3, [sp, #4]
701063b6:	fbab 8909 	umull	r8, r9, fp, r9
701063ba:	60b3      	str	r3, [r6, #8]
701063bc:	fba3 3505 	umull	r3, r5, r3, r5
701063c0:	eba0 0008 	sub.w	r0, r0, r8
701063c4:	1ac0      	subs	r0, r0, r3
701063c6:	60f0      	str	r0, [r6, #12]
701063c8:	2000      	movs	r0, #0
701063ca:	e9c6 7b00 	strd	r7, fp, [r6]
701063ce:	b003      	add	sp, #12
701063d0:	e8bd 8ff0 	ldmia.w	sp!, {r4, r5, r6, r7, r8, r9, sl, fp, pc}
701063d4:	f04f 30ff 	mov.w	r0, #4294967295
701063d8:	e7f9      	b.n	701063ce <dwtCyclesToTime+0x6a>
701063da:	bf00      	nop
701063dc:	000f4240 	.word	0x000f4240

701063e0 <dwtCyclesToFloatMs>:
701063e0:	b538      	push	{r3, r4, r5, lr}
701063e2:	ed2d 8b02 	vpush	{d8}
701063e6:	4605      	mov	r5, r0
701063e8:	460c      	mov	r4, r1
701063ea:	f7fb feb5 	bl	70102158 <HAL_RCC_GetCpuClockFreq>
701063ee:	4621      	mov	r1, r4
701063f0:	ee08 0a10 	vmov	s16, r0
701063f4:	4628      	mov	r0, r5
701063f6:	f7fa fa9b 	bl	70100930 <__aeabi_ul2f>
701063fa:	eddf 7a06 	vldr	s15, [pc, #24]	@ 70106414 <dwtCyclesToFloatMs+0x34>
701063fe:	ee00 0a10 	vmov	s0, r0
70106402:	eeb8 8a48 	vcvt.f32.u32	s16, s16
70106406:	ee20 0a27 	vmul.f32	s0, s0, s15
7010640a:	ee80 0a08 	vdiv.f32	s0, s0, s16
7010640e:	ecbd 8b02 	vpop	{d8}
70106412:	bd38      	pop	{r3, r4, r5, pc}
70106414:	447a0000 	.word	0x447a0000

70106418 <getFlashCacheConf>:
70106418:	4b07      	ldr	r3, [pc, #28]	@ (70106438 <getFlashCacheConf+0x20>)
7010641a:	b082      	sub	sp, #8
7010641c:	695b      	ldr	r3, [r3, #20]
7010641e:	9301      	str	r3, [sp, #4]
70106420:	9b01      	ldr	r3, [sp, #4]
70106422:	03da      	lsls	r2, r3, #15
70106424:	9b01      	ldr	r3, [sp, #4]
70106426:	bf4c      	ite	mi
70106428:	4804      	ldrmi	r0, [pc, #16]	@ (7010643c <getFlashCacheConf+0x24>)
7010642a:	4805      	ldrpl	r0, [pc, #20]	@ (70106440 <getFlashCacheConf+0x28>)
7010642c:	039b      	lsls	r3, r3, #14
7010642e:	bf48      	it	mi
70106430:	f440 6080 	orrmi.w	r0, r0, #1024	@ 0x400
70106434:	b002      	add	sp, #8
70106436:	4770      	bx	lr
70106438:	e000ed00 	.word	0xe000ed00
7010643c:	05010800 	.word	0x05010800
70106440:	05010000 	.word	0x05010000

70106444 <getSysConf>:
70106444:	b510      	push	{r4, lr}
70106446:	4604      	mov	r4, r0
70106448:	b198      	cbz	r0, 70106472 <getSysConf+0x2e>
7010644a:	f7fb fe85 	bl	70102158 <HAL_RCC_GetCpuClockFreq>
7010644e:	6020      	str	r0, [r4, #0]
70106450:	f7fb feca 	bl	701021e8 <HAL_RCC_GetSysClockFreq>
70106454:	6060      	str	r0, [r4, #4]
70106456:	f7ff ffdf 	bl	70106418 <getFlashCacheConf>
7010645a:	f240 4286 	movw	r2, #1158	@ 0x486
7010645e:	2300      	movs	r3, #0
70106460:	60a0      	str	r0, [r4, #8]
70106462:	e9c4 2303 	strd	r2, r3, [r4, #12]
70106466:	f104 0014 	add.w	r0, r4, #20
7010646a:	e8bd 4010 	ldmia.w	sp!, {r4, lr}
7010646e:	f000 b885 	b.w	7010657c <port_hal_set_extra_conf>
70106472:	bd10      	pop	{r4, pc}

70106474 <systemSettingLog>:
70106474:	b510      	push	{r4, lr}
70106476:	2203      	movs	r2, #3
70106478:	b08a      	sub	sp, #40	@ 0x28
7010647a:	210e      	movs	r1, #14
7010647c:	2301      	movs	r3, #1
7010647e:	4825      	ldr	r0, [pc, #148]	@ (70106514 <systemSettingLog+0xa0>)
70106480:	f7ff ff4e 	bl	70106320 <lc_print>
70106484:	f7fb fe68 	bl	70102158 <HAL_RCC_GetCpuClockFreq>
70106488:	9001      	str	r0, [sp, #4]
7010648a:	f7fb fead 	bl	701021e8 <HAL_RCC_GetSysClockFreq>
7010648e:	9002      	str	r0, [sp, #8]
70106490:	f7ff ffc2 	bl	70106418 <getFlashCacheConf>
70106494:	f240 4486 	movw	r4, #1158	@ 0x486
70106498:	2300      	movs	r3, #0
7010649a:	9003      	str	r0, [sp, #12]
7010649c:	a806      	add	r0, sp, #24
7010649e:	e9cd 4304 	strd	r4, r3, [sp, #16]
701064a2:	f000 f86b 	bl	7010657c <port_hal_set_extra_conf>
701064a6:	481c      	ldr	r0, [pc, #112]	@ (70106518 <systemSettingLog+0xa4>)
701064a8:	f7ff ff3a 	bl	70106320 <lc_print>
701064ac:	9904      	ldr	r1, [sp, #16]
701064ae:	481b      	ldr	r0, [pc, #108]	@ (7010651c <systemSettingLog+0xa8>)
701064b0:	b28b      	uxth	r3, r1
701064b2:	42a3      	cmp	r3, r4
701064b4:	bf0c      	ite	eq
701064b6:	4a1a      	ldreq	r2, [pc, #104]	@ (70106520 <systemSettingLog+0xac>)
701064b8:	4a1a      	ldrne	r2, [pc, #104]	@ (70106524 <systemSettingLog+0xb0>)
701064ba:	9b05      	ldr	r3, [sp, #20]
701064bc:	f7ff ff30 	bl	70106320 <lc_print>
701064c0:	4b19      	ldr	r3, [pc, #100]	@ (70106528 <systemSettingLog+0xb4>)
701064c2:	2137      	movs	r1, #55	@ 0x37
701064c4:	1d5a      	adds	r2, r3, #5
701064c6:	f103 000a 	add.w	r0, r3, #10
701064ca:	f7ff ff29 	bl	70106320 <lc_print>
701064ce:	f7fb fc05 	bl	70101cdc <HAL_GetHalVersion>
701064d2:	4601      	mov	r1, r0
701064d4:	4815      	ldr	r0, [pc, #84]	@ (7010652c <systemSettingLog+0xb8>)
701064d6:	f7ff ff23 	bl	70106320 <lc_print>
701064da:	4c15      	ldr	r4, [pc, #84]	@ (70106530 <systemSettingLog+0xbc>)
701064dc:	9901      	ldr	r1, [sp, #4]
701064de:	4815      	ldr	r0, [pc, #84]	@ (70106534 <systemSettingLog+0xc0>)
701064e0:	fb91 f1f4 	sdiv	r1, r1, r4
701064e4:	f7ff ff1c 	bl	70106320 <lc_print>
701064e8:	9902      	ldr	r1, [sp, #8]
701064ea:	4813      	ldr	r0, [pc, #76]	@ (70106538 <systemSettingLog+0xc4>)
701064ec:	fb91 f1f4 	sdiv	r1, r1, r4
701064f0:	f7ff ff16 	bl	70106320 <lc_print>
701064f4:	4b11      	ldr	r3, [pc, #68]	@ (7010653c <systemSettingLog+0xc8>)
701064f6:	4812      	ldr	r0, [pc, #72]	@ (70106540 <systemSettingLog+0xcc>)
701064f8:	695b      	ldr	r3, [r3, #20]
701064fa:	039a      	lsls	r2, r3, #14
701064fc:	bf4c      	ite	mi
701064fe:	4911      	ldrmi	r1, [pc, #68]	@ (70106544 <systemSettingLog+0xd0>)
70106500:	4911      	ldrpl	r1, [pc, #68]	@ (70106548 <systemSettingLog+0xd4>)
70106502:	03db      	lsls	r3, r3, #15
70106504:	bf4c      	ite	mi
70106506:	4a0f      	ldrmi	r2, [pc, #60]	@ (70106544 <systemSettingLog+0xd0>)
70106508:	4a0f      	ldrpl	r2, [pc, #60]	@ (70106548 <systemSettingLog+0xd4>)
7010650a:	f7ff ff09 	bl	70106320 <lc_print>
7010650e:	b00a      	add	sp, #40	@ 0x28
70106510:	bd10      	pop	{r4, pc}
70106512:	bf00      	nop
70106514:	7010c841 	.word	0x7010c841
70106518:	7010c85e 	.word	0x7010c85e
7010651c:	7010c87e 	.word	0x7010c87e
70106520:	7010c826 	.word	0x7010c826
70106524:	7010c82e 	.word	0x7010c82e
70106528:	7010c8af 	.word	0x7010c8af
7010652c:	7010c8d7 	.word	0x7010c8d7
70106530:	000f4240 	.word	0x000f4240
70106534:	7010c8f0 	.word	0x7010c8f0
70106538:	7010c909 	.word	0x7010c909
7010653c:	e000ed00 	.word	0xe000ed00
70106540:	7010c922 	.word	0x7010c922
70106544:	7010c836 	.word	0x7010c836
70106548:	7010c83b 	.word	0x7010c83b

7010654c <get_IC_freq>:
7010654c:	6803      	ldr	r3, [r0, #0]
7010654e:	f003 5340 	and.w	r3, r3, #805306368	@ 0x30000000
70106552:	f1b3 5f00 	cmp.w	r3, #536870912	@ 0x20000000
70106556:	d00c      	beq.n	70106572 <get_IC_freq+0x26>
70106558:	f1b3 5f40 	cmp.w	r3, #805306368	@ 0x30000000
7010655c:	d00b      	beq.n	70106576 <get_IC_freq+0x2a>
7010655e:	f103 4270 	add.w	r2, r3, #4026531840	@ 0xf0000000
70106562:	4253      	negs	r3, r2
70106564:	4153      	adcs	r3, r2
70106566:	f851 2023 	ldr.w	r2, [r1, r3, lsl #2]
7010656a:	6840      	ldr	r0, [r0, #4]
7010656c:	fbb2 f0f0 	udiv	r0, r2, r0
70106570:	4770      	bx	lr
70106572:	2302      	movs	r3, #2
70106574:	e7f7      	b.n	70106566 <get_IC_freq+0x1a>
70106576:	2303      	movs	r3, #3
70106578:	e7f5      	b.n	70106566 <get_IC_freq+0x1a>
	...

7010657c <port_hal_set_extra_conf>:
7010657c:	b570      	push	{r4, r5, r6, lr}
7010657e:	b094      	sub	sp, #80	@ 0x50
70106580:	4605      	mov	r5, r0
70106582:	a804      	add	r0, sp, #16
70106584:	f7fb fe3e 	bl	70102204 <HAL_RCC_GetClockConfig>
70106588:	f7fb fe2e 	bl	701021e8 <HAL_RCC_GetSysClockFreq>
7010658c:	4606      	mov	r6, r0
7010658e:	f7fd fc05 	bl	70103d9c <HAL_RCCEx_GetPLL1CLKFreq>
70106592:	9000      	str	r0, [sp, #0]
70106594:	f7fd fc42 	bl	70103e1c <HAL_RCCEx_GetPLL2CLKFreq>
70106598:	9001      	str	r0, [sp, #4]
7010659a:	f7fd fc7f 	bl	70103e9c <HAL_RCCEx_GetPLL3CLKFreq>
7010659e:	9002      	str	r0, [sp, #8]
701065a0:	f7fd fcbc 	bl	70103f1c <HAL_RCCEx_GetPLL4CLKFreq>
701065a4:	9b06      	ldr	r3, [sp, #24]
701065a6:	4c0f      	ldr	r4, [pc, #60]	@ (701065e4 <port_hal_set_extra_conf+0x68>)
701065a8:	f1b3 7f40 	cmp.w	r3, #50331648	@ 0x3000000
701065ac:	9003      	str	r0, [sp, #12]
701065ae:	d114      	bne.n	701065da <port_hal_set_extra_conf+0x5e>
701065b0:	4669      	mov	r1, sp
701065b2:	a810      	add	r0, sp, #64	@ 0x40
701065b4:	f7ff ffca 	bl	7010654c <get_IC_freq>
701065b8:	fbb0 f6f4 	udiv	r6, r0, r4
701065bc:	a812      	add	r0, sp, #72	@ 0x48
701065be:	f7ff ffc5 	bl	7010654c <get_IC_freq>
701065c2:	fbb0 f4f4 	udiv	r4, r0, r4
701065c6:	2300      	movs	r3, #0
701065c8:	4a06      	ldr	r2, [pc, #24]	@ (701065e4 <port_hal_set_extra_conf+0x68>)
701065ca:	602b      	str	r3, [r5, #0]
701065cc:	4356      	muls	r6, r2
701065ce:	4354      	muls	r4, r2
701065d0:	606e      	str	r6, [r5, #4]
701065d2:	e9c5 4302 	strd	r4, r3, [r5, #8]
701065d6:	b014      	add	sp, #80	@ 0x50
701065d8:	bd70      	pop	{r4, r5, r6, pc}
701065da:	fbb6 f4f4 	udiv	r4, r6, r4
701065de:	4626      	mov	r6, r4
701065e0:	e7f1      	b.n	701065c6 <port_hal_set_extra_conf+0x4a>
701065e2:	bf00      	nop
701065e4:	000f4240 	.word	0x000f4240

701065e8 <port_dwt_init_imp>:
701065e8:	4a09      	ldr	r2, [pc, #36]	@ (70106610 <port_dwt_init_imp+0x28>)
701065ea:	f8d2 30fc 	ldr.w	r3, [r2, #252]	@ 0xfc
701065ee:	f043 7380 	orr.w	r3, r3, #16777216	@ 0x1000000
701065f2:	f8c2 30fc 	str.w	r3, [r2, #252]	@ 0xfc
701065f6:	4b07      	ldr	r3, [pc, #28]	@ (70106614 <port_dwt_init_imp+0x2c>)
701065f8:	f8d3 2e04 	ldr.w	r2, [r3, #3588]	@ 0xe04
701065fc:	f042 0201 	orr.w	r2, r2, #1
70106600:	f8c3 2e04 	str.w	r2, [r3, #3588]	@ 0xe04
70106604:	f04f 4200 	mov.w	r2, #2147483648	@ 0x80000000
70106608:	f8c3 2c00 	str.w	r2, [r3, #3072]	@ 0xc00
7010660c:	4770      	bx	lr
7010660e:	bf00      	nop
70106610:	e000ed00 	.word	0xe000ed00
70106614:	e0003000 	.word	0xe0003000

70106618 <_write_number>:
70106618:	2300      	movs	r3, #0
7010661a:	e92d 4ff0 	stmdb	sp!, {r4, r5, r6, r7, r8, r9, sl, fp, lr}
7010661e:	f8d2 8008 	ldr.w	r8, [r2, #8]
70106622:	b093      	sub	sp, #76	@ 0x4c
70106624:	f018 0904 	ands.w	r9, r8, #4
70106628:	4604      	mov	r4, r0
7010662a:	460d      	mov	r5, r1
7010662c:	4617      	mov	r7, r2
7010662e:	f88d 3047 	strb.w	r3, [sp, #71]	@ 0x47
70106632:	d00c      	beq.n	7010664e <_write_number+0x36>
70106634:	4299      	cmp	r1, r3
70106636:	4699      	mov	r9, r3
70106638:	da09      	bge.n	7010664e <_write_number+0x36>
7010663a:	4242      	negs	r2, r0
7010663c:	4614      	mov	r4, r2
7010663e:	f04f 092d 	mov.w	r9, #45	@ 0x2d
70106642:	eb61 0341 	sbc.w	r3, r1, r1, lsl #1
70106646:	461d      	mov	r5, r3
70106648:	683b      	ldr	r3, [r7, #0]
7010664a:	3b01      	subs	r3, #1
7010664c:	603b      	str	r3, [r7, #0]
7010664e:	f018 0f08 	tst.w	r8, #8
70106652:	bf14      	ite	ne
70106654:	2341      	movne	r3, #65	@ 0x41
70106656:	2361      	moveq	r3, #97	@ 0x61
70106658:	f04f 0a3e 	mov.w	sl, #62	@ 0x3e
7010665c:	f008 0210 	and.w	r2, r8, #16
70106660:	3b0a      	subs	r3, #10
70106662:	f10d 0b47 	add.w	fp, sp, #71	@ 0x47
70106666:	9200      	str	r2, [sp, #0]
70106668:	9301      	str	r3, [sp, #4]
7010666a:	9b00      	ldr	r3, [sp, #0]
7010666c:	b2e6      	uxtb	r6, r4
7010666e:	2b00      	cmp	r3, #0
70106670:	d03c      	beq.n	701066ec <_write_number+0xd4>
70106672:	f006 060f 	and.w	r6, r6, #15
70106676:	2e09      	cmp	r6, #9
70106678:	ea54 151f 	lsrl	r4, r5, #4
7010667c:	d905      	bls.n	7010668a <_write_number+0x72>
7010667e:	9b01      	ldr	r3, [sp, #4]
70106680:	441e      	add	r6, r3
70106682:	b2f6      	uxtb	r6, r6
70106684:	e002      	b.n	7010668c <_write_number+0x74>
70106686:	469a      	mov	sl, r3
70106688:	e7ef      	b.n	7010666a <_write_number+0x52>
7010668a:	3630      	adds	r6, #48	@ 0x30
7010668c:	ea54 0205 	orrs.w	r2, r4, r5
70106690:	f80b 6d01 	strb.w	r6, [fp, #-1]!
70106694:	f10a 33ff 	add.w	r3, sl, #4294967295
70106698:	f1ca 063f 	rsb	r6, sl, #63	@ 0x3f
7010669c:	d1f3      	bne.n	70106686 <_write_number+0x6e>
7010669e:	f008 0201 	and.w	r2, r8, #1
701066a2:	f1b9 0f00 	cmp.w	r9, #0
701066a6:	d009      	beq.n	701066bc <_write_number+0xa4>
701066a8:	b942      	cbnz	r2, 701066bc <_write_number+0xa4>
701066aa:	212d      	movs	r1, #45	@ 0x2d
701066ac:	3348      	adds	r3, #72	@ 0x48
701066ae:	446b      	add	r3, sp
701066b0:	f803 1c40 	strb.w	r1, [r3, #-64]
701066b4:	f1ca 0640 	rsb	r6, sl, #64	@ 0x40
701066b8:	f1aa 0302 	sub.w	r3, sl, #2
701066bc:	6838      	ldr	r0, [r7, #0]
701066be:	2a00      	cmp	r2, #0
701066c0:	bf14      	ite	ne
701066c2:	2430      	movne	r4, #48	@ 0x30
701066c4:	2420      	moveq	r4, #32
701066c6:	1b81      	subs	r1, r0, r6
701066c8:	4286      	cmp	r6, r0
701066ca:	ad02      	add	r5, sp, #8
701066cc:	f008 0202 	and.w	r2, r8, #2
701066d0:	f101 0101 	add.w	r1, r1, #1
701066d4:	dc02      	bgt.n	701066dc <_write_number+0xc4>
701066d6:	f1b0 4f00 	cmp.w	r0, #2147483648	@ 0x80000000
701066da:	d100      	bne.n	701066de <_write_number+0xc6>
701066dc:	2101      	movs	r1, #1
701066de:	3901      	subs	r1, #1
701066e0:	d016      	beq.n	70106710 <_write_number+0xf8>
701066e2:	b18a      	cbz	r2, 70106708 <_write_number+0xf0>
701066e4:	f1b9 0f00 	cmp.w	r9, #0
701066e8:	d117      	bne.n	7010671a <_write_number+0x102>
701066ea:	e01e      	b.n	7010672a <_write_number+0x112>
701066ec:	2300      	movs	r3, #0
701066ee:	4620      	mov	r0, r4
701066f0:	4629      	mov	r1, r5
701066f2:	220a      	movs	r2, #10
701066f4:	f7fa f962 	bl	701009bc <__aeabi_uldivmod>
701066f8:	3630      	adds	r6, #48	@ 0x30
701066fa:	eb00 0380 	add.w	r3, r0, r0, lsl #2
701066fe:	4604      	mov	r4, r0
70106700:	460d      	mov	r5, r1
70106702:	eba6 0643 	sub.w	r6, r6, r3, lsl #1
70106706:	e7bc      	b.n	70106682 <_write_number+0x6a>
70106708:	54ec      	strb	r4, [r5, r3]
7010670a:	3601      	adds	r6, #1
7010670c:	3b01      	subs	r3, #1
7010670e:	e7e6      	b.n	701066de <_write_number+0xc6>
70106710:	f1b9 0f00 	cmp.w	r9, #0
70106714:	d009      	beq.n	7010672a <_write_number+0x112>
70106716:	42b0      	cmp	r0, r6
70106718:	db07      	blt.n	7010672a <_write_number+0x112>
7010671a:	212d      	movs	r1, #45	@ 0x2d
7010671c:	f103 0248 	add.w	r2, r3, #72	@ 0x48
70106720:	446a      	add	r2, sp
70106722:	f802 1c40 	strb.w	r1, [r2, #-64]
70106726:	3601      	adds	r6, #1
70106728:	3b01      	subs	r3, #1
7010672a:	2400      	movs	r4, #0
7010672c:	441d      	add	r5, r3
7010672e:	68fb      	ldr	r3, [r7, #12]
70106730:	f815 1f01 	ldrb.w	r1, [r5, #1]!
70106734:	6938      	ldr	r0, [r7, #16]
70106736:	3401      	adds	r4, #1
70106738:	4798      	blx	r3
7010673a:	42a6      	cmp	r6, r4
7010673c:	d1f7      	bne.n	7010672e <_write_number+0x116>
7010673e:	68bb      	ldr	r3, [r7, #8]
70106740:	079b      	lsls	r3, r3, #30
70106742:	d408      	bmi.n	70106756 <_write_number+0x13e>
70106744:	4620      	mov	r0, r4
70106746:	b013      	add	sp, #76	@ 0x4c
70106748:	e8bd 8ff0 	ldmia.w	sp!, {r4, r5, r6, r7, r8, r9, sl, fp, pc}
7010674c:	2120      	movs	r1, #32
7010674e:	68fb      	ldr	r3, [r7, #12]
70106750:	6938      	ldr	r0, [r7, #16]
70106752:	4798      	blx	r3
70106754:	3401      	adds	r4, #1
70106756:	683b      	ldr	r3, [r7, #0]
70106758:	42a3      	cmp	r3, r4
7010675a:	dcf7      	bgt.n	7010674c <_write_number+0x134>
7010675c:	e7f2      	b.n	70106744 <_write_number+0x12c>
	...

70106760 <vlc_print>:
70106760:	e92d 4ff0 	stmdb	sp!, {r4, r5, r6, r7, r8, r9, sl, fp, lr}
70106764:	ed2d 8b02 	vpush	{d8}
70106768:	4681      	mov	r9, r0
7010676a:	468a      	mov	sl, r1
7010676c:	461c      	mov	r4, r3
7010676e:	f04f 0800 	mov.w	r8, #0
70106772:	b09b      	sub	sp, #108	@ 0x6c
70106774:	4613      	mov	r3, r2
70106776:	f813 1b01 	ldrb.w	r1, [r3], #1
7010677a:	9301      	str	r3, [sp, #4]
7010677c:	b929      	cbnz	r1, 7010678a <vlc_print+0x2a>
7010677e:	4640      	mov	r0, r8
70106780:	b01b      	add	sp, #108	@ 0x6c
70106782:	ecbd 8b02 	vpop	{d8}
70106786:	e8bd 8ff0 	ldmia.w	sp!, {r4, r5, r6, r7, r8, r9, sl, fp, pc}
7010678a:	290a      	cmp	r1, #10
7010678c:	d104      	bne.n	70106798 <vlc_print+0x38>
7010678e:	4650      	mov	r0, sl
70106790:	47c8      	blx	r9
70106792:	f108 0801 	add.w	r8, r8, #1
70106796:	e07f      	b.n	70106898 <vlc_print+0x138>
70106798:	2925      	cmp	r1, #37	@ 0x25
7010679a:	d1f8      	bne.n	7010678e <vlc_print+0x2e>
7010679c:	f04f 0b00 	mov.w	fp, #0
701067a0:	465d      	mov	r5, fp
701067a2:	465f      	mov	r7, fp
701067a4:	465b      	mov	r3, fp
701067a6:	465a      	mov	r2, fp
701067a8:	e9cd 9a08 	strd	r9, sl, [sp, #32]
701067ac:	9801      	ldr	r0, [sp, #4]
701067ae:	f810 1b01 	ldrb.w	r1, [r0], #1
701067b2:	2939      	cmp	r1, #57	@ 0x39
701067b4:	9001      	str	r0, [sp, #4]
701067b6:	f200 81a9 	bhi.w	70106b0c <vlc_print+0x3ac>
701067ba:	292c      	cmp	r1, #44	@ 0x2c
701067bc:	f200 8185 	bhi.w	70106aca <vlc_print+0x36a>
701067c0:	2900      	cmp	r1, #0
701067c2:	f000 81b1 	beq.w	70106b28 <vlc_print+0x3c8>
701067c6:	2925      	cmp	r1, #37	@ 0x25
701067c8:	d0e1      	beq.n	7010678e <vlc_print+0x2e>
701067ca:	e1ad      	b.n	70106b28 <vlc_print+0x3c8>
701067cc:	ea55 0107 	orrs.w	r1, r5, r7
701067d0:	d104      	bne.n	701067dc <vlc_print+0x7c>
701067d2:	460d      	mov	r5, r1
701067d4:	460f      	mov	r7, r1
701067d6:	f04b 0b01 	orr.w	fp, fp, #1
701067da:	e7e7      	b.n	701067ac <vlc_print+0x4c>
701067dc:	210a      	movs	r1, #10
701067de:	b10a      	cbz	r2, 701067e4 <vlc_print+0x84>
701067e0:	434d      	muls	r5, r1
701067e2:	e7e3      	b.n	701067ac <vlc_print+0x4c>
701067e4:	434f      	muls	r7, r1
701067e6:	e7e1      	b.n	701067ac <vlc_print+0x4c>
701067e8:	f04b 0b02 	orr.w	fp, fp, #2
701067ec:	e7de      	b.n	701067ac <vlc_print+0x4c>
701067ee:	200a      	movs	r0, #10
701067f0:	3930      	subs	r1, #48	@ 0x30
701067f2:	b112      	cbz	r2, 701067fa <vlc_print+0x9a>
701067f4:	fb00 1505 	mla	r5, r0, r5, r1
701067f8:	e7d8      	b.n	701067ac <vlc_print+0x4c>
701067fa:	fb00 1707 	mla	r7, r0, r7, r1
701067fe:	e7d5      	b.n	701067ac <vlc_print+0x4c>
70106800:	3301      	adds	r3, #1
70106802:	e7d3      	b.n	701067ac <vlc_print+0x4c>
70106804:	3963      	subs	r1, #99	@ 0x63
70106806:	2915      	cmp	r1, #21
70106808:	f200 818e 	bhi.w	70106b28 <vlc_print+0x3c8>
7010680c:	e8df f011 	tbh	[pc, r1, lsl #1]
70106810:	007e0024 	.word	0x007e0024
70106814:	0084018c 	.word	0x0084018c
70106818:	018c018c 	.word	0x018c018c
7010681c:	018c007e 	.word	0x018c007e
70106820:	018c018c 	.word	0x018c018c
70106824:	018c018c 	.word	0x018c018c
70106828:	006c018c 	.word	0x006c018c
7010682c:	018c018c 	.word	0x018c018c
70106830:	018c0027 	.word	0x018c0027
70106834:	018c0016 	.word	0x018c0016
70106838:	0071018c 	.word	0x0071018c
7010683c:	4626      	mov	r6, r4
7010683e:	2100      	movs	r1, #0
70106840:	f856 0b04 	ldr.w	r0, [r6], #4
70106844:	aa05      	add	r2, sp, #20
70106846:	e9cd 7505 	strd	r7, r5, [sp, #20]
7010684a:	f8cd b01c 	str.w	fp, [sp, #28]
7010684e:	f7ff fee3 	bl	70106618 <_write_number>
70106852:	4634      	mov	r4, r6
70106854:	4480      	add	r8, r0
70106856:	e01f      	b.n	70106898 <vlc_print+0x138>
70106858:	f814 1b04 	ldrb.w	r1, [r4], #4
7010685c:	e797      	b.n	7010678e <vlc_print+0x2e>
7010685e:	4623      	mov	r3, r4
70106860:	f853 6b04 	ldr.w	r6, [r3], #4
70106864:	9302      	str	r3, [sp, #8]
70106866:	b906      	cbnz	r6, 7010686a <vlc_print+0x10a>
70106868:	4eb6      	ldr	r6, [pc, #728]	@ (70106b44 <vlc_print+0x3e4>)
7010686a:	4630      	mov	r0, r6
7010686c:	f7f9 ff90 	bl	70100790 <strlen>
70106870:	4604      	mov	r4, r0
70106872:	b115      	cbz	r5, 7010687a <vlc_print+0x11a>
70106874:	42a8      	cmp	r0, r5
70106876:	bfa8      	it	ge
70106878:	462c      	movge	r4, r5
7010687a:	f01b 0502 	ands.w	r5, fp, #2
7010687e:	d01b      	beq.n	701068b8 <vlc_print+0x158>
70106880:	f04f 0b00 	mov.w	fp, #0
70106884:	4632      	mov	r2, r6
70106886:	1b91      	subs	r1, r2, r6
70106888:	428c      	cmp	r4, r1
7010688a:	dc17      	bgt.n	701068bc <vlc_print+0x15c>
7010688c:	2c00      	cmp	r4, #0
7010688e:	bfa8      	it	ge
70106890:	44a3      	addge	fp, r4
70106892:	bb3d      	cbnz	r5, 701068e4 <vlc_print+0x184>
70106894:	9c02      	ldr	r4, [sp, #8]
70106896:	44d8      	add	r8, fp
70106898:	9a01      	ldr	r2, [sp, #4]
7010689a:	e76b      	b.n	70106774 <vlc_print+0x14>
7010689c:	2120      	movs	r1, #32
7010689e:	4650      	mov	r0, sl
701068a0:	47c8      	blx	r9
701068a2:	f10b 0b01 	add.w	fp, fp, #1
701068a6:	45bb      	cmp	fp, r7
701068a8:	dbf8      	blt.n	7010689c <vlc_print+0x13c>
701068aa:	42bc      	cmp	r4, r7
701068ac:	eba7 0b04 	sub.w	fp, r7, r4
701068b0:	bfc8      	it	gt
701068b2:	f04f 0b00 	movgt.w	fp, #0
701068b6:	e7e5      	b.n	70106884 <vlc_print+0x124>
701068b8:	46a3      	mov	fp, r4
701068ba:	e7f4      	b.n	701068a6 <vlc_print+0x146>
701068bc:	f812 1b01 	ldrb.w	r1, [r2], #1
701068c0:	4650      	mov	r0, sl
701068c2:	9203      	str	r2, [sp, #12]
701068c4:	47c8      	blx	r9
701068c6:	9a03      	ldr	r2, [sp, #12]
701068c8:	e7dd      	b.n	70106886 <vlc_print+0x126>
701068ca:	2120      	movs	r1, #32
701068cc:	4650      	mov	r0, sl
701068ce:	47c8      	blx	r9
701068d0:	3501      	adds	r5, #1
701068d2:	42bd      	cmp	r5, r7
701068d4:	dbf9      	blt.n	701068ca <vlc_print+0x16a>
701068d6:	42bc      	cmp	r4, r7
701068d8:	eba7 0204 	sub.w	r2, r7, r4
701068dc:	bfc8      	it	gt
701068de:	2200      	movgt	r2, #0
701068e0:	4493      	add	fp, r2
701068e2:	e7d7      	b.n	70106894 <vlc_print+0x134>
701068e4:	4625      	mov	r5, r4
701068e6:	e7f4      	b.n	701068d2 <vlc_print+0x172>
701068e8:	2708      	movs	r7, #8
701068ea:	f04b 0b01 	orr.w	fp, fp, #1
701068ee:	f04b 0b08 	orr.w	fp, fp, #8
701068f2:	e9cd 7505 	strd	r7, r5, [sp, #20]
701068f6:	2100      	movs	r1, #0
701068f8:	f854 0b04 	ldr.w	r0, [r4], #4
701068fc:	f04b 0510 	orr.w	r5, fp, #16
70106900:	aa05      	add	r2, sp, #20
70106902:	9507      	str	r5, [sp, #28]
70106904:	f7ff fe88 	bl	70106618 <_write_number>
70106908:	4480      	add	r8, r0
7010690a:	e7c5      	b.n	70106898 <vlc_print+0x138>
7010690c:	6820      	ldr	r0, [r4, #0]
7010690e:	f04b 0b04 	orr.w	fp, fp, #4
70106912:	1d26      	adds	r6, r4, #4
70106914:	17c1      	asrs	r1, r0, #31
70106916:	e795      	b.n	70106844 <vlc_print+0xe4>
70106918:	2d00      	cmp	r5, #0
7010691a:	bf08      	it	eq
7010691c:	2506      	moveq	r5, #6
7010691e:	2d00      	cmp	r5, #0
70106920:	f105 0e01 	add.w	lr, r5, #1
70106924:	bfb8      	it	lt
70106926:	f04f 0e01 	movlt.w	lr, #1
7010692a:	3407      	adds	r4, #7
7010692c:	f024 0407 	bic.w	r4, r4, #7
70106930:	ecb4 8b02 	vldmia	r4!, {d8}
70106934:	eeb7 7b00 	vmov.f64	d7, #112	@ 0x3f800000  1.0
70106938:	eeb2 6b04 	vmov.f64	d6, #36	@ 0x41200000  10.0
7010693c:	f04e e001 	dls	lr, lr
70106940:	f1be 0e01 	subs.w	lr, lr, #1
70106944:	f040 80ad 	bne.w	70106aa2 <vlc_print+0x342>
70106948:	eeb5 8bc0 	vcmpe.f64	d8, #0.0
7010694c:	eef1 fa10 	vmrs	APSR_nzcv, fpscr
70106950:	f140 80aa 	bpl.w	70106aa8 <vlc_print+0x348>
70106954:	eeb1 5b48 	vneg.f64	d5, d8
70106958:	eeb6 4b00 	vmov.f64	d4, #96	@ 0x3f000000  0.5
7010695c:	ee84 6b07 	vdiv.f64	d6, d4, d7
70106960:	ee36 6b05 	vadd.f64	d6, d6, d5
70106964:	ee26 7b07 	vmul.f64	d7, d6, d7
70106968:	ec51 0b17 	vmov	r0, r1, d7
7010696c:	f7fa f840 	bl	701009f0 <__aeabi_d2ulz>
70106970:	2600      	movs	r6, #0
70106972:	4686      	mov	lr, r0
70106974:	f04f 0b3f 	mov.w	fp, #63	@ 0x3f
70106978:	220a      	movs	r2, #10
7010697a:	2300      	movs	r3, #0
7010697c:	4670      	mov	r0, lr
7010697e:	e9cd e102 	strd	lr, r1, [sp, #8]
70106982:	f7fa f81b 	bl	701009bc <__aeabi_uldivmod>
70106986:	9b02      	ldr	r3, [sp, #8]
70106988:	4686      	mov	lr, r0
7010698a:	f103 0c30 	add.w	ip, r3, #48	@ 0x30
7010698e:	eb00 0080 	add.w	r0, r0, r0, lsl #2
70106992:	f10b 0368 	add.w	r3, fp, #104	@ 0x68
70106996:	ebac 0c40 	sub.w	ip, ip, r0, lsl #1
7010699a:	eb0d 0003 	add.w	r0, sp, r3
7010699e:	f800 cc40 	strb.w	ip, [r0, #-64]
701069a2:	1c70      	adds	r0, r6, #1
701069a4:	42a8      	cmp	r0, r5
701069a6:	f10b 32ff 	add.w	r2, fp, #4294967295
701069aa:	bf01      	itttt	eq
701069ac:	f102 0368 	addeq.w	r3, r2, #104	@ 0x68
701069b0:	eb0d 0203 	addeq.w	r2, sp, r3
701069b4:	232e      	moveq	r3, #46	@ 0x2e
701069b6:	f802 3c40 	strbeq.w	r3, [r2, #-64]
701069ba:	9b02      	ldr	r3, [sp, #8]
701069bc:	bf19      	ittee	ne
701069be:	4693      	movne	fp, r2
701069c0:	4606      	movne	r6, r0
701069c2:	f1ab 0b02 	subeq.w	fp, fp, #2
701069c6:	3602      	addeq	r6, #2
701069c8:	2b0a      	cmp	r3, #10
701069ca:	9b03      	ldr	r3, [sp, #12]
701069cc:	f173 0200 	sbcs.w	r2, r3, #0
701069d0:	d2d2      	bcs.n	70106978 <vlc_print+0x218>
701069d2:	aa0a      	add	r2, sp, #40	@ 0x28
701069d4:	eba5 0e06 	sub.w	lr, r5, r6
701069d8:	42ae      	cmp	r6, r5
701069da:	f04f 0130 	mov.w	r1, #48	@ 0x30
701069de:	eb02 030b 	add.w	r3, r2, fp
701069e2:	f10e 0e01 	add.w	lr, lr, #1
701069e6:	dc02      	bgt.n	701069ee <vlc_print+0x28e>
701069e8:	f1b5 4f00 	cmp.w	r5, #2147483648	@ 0x80000000
701069ec:	d101      	bne.n	701069f2 <vlc_print+0x292>
701069ee:	f04f 0e01 	mov.w	lr, #1
701069f2:	f04e e001 	dls	lr, lr
701069f6:	f1be 0e01 	subs.w	lr, lr, #1
701069fa:	d158      	bne.n	70106aae <vlc_print+0x34e>
701069fc:	42b5      	cmp	r5, r6
701069fe:	eba5 0306 	sub.w	r3, r5, r6
70106a02:	bfb8      	it	lt
70106a04:	2300      	movlt	r3, #0
70106a06:	4433      	add	r3, r6
70106a08:	eba6 0605 	sub.w	r6, r6, r5
70106a0c:	bfb8      	it	lt
70106a0e:	2600      	movlt	r6, #0
70106a10:	429d      	cmp	r5, r3
70106a12:	445e      	add	r6, fp
70106a14:	f105 0501 	add.w	r5, r5, #1
70106a18:	d107      	bne.n	70106a2a <vlc_print+0x2ca>
70106a1a:	212e      	movs	r1, #46	@ 0x2e
70106a1c:	f106 0368 	add.w	r3, r6, #104	@ 0x68
70106a20:	446b      	add	r3, sp
70106a22:	f803 1c40 	strb.w	r1, [r3, #-64]
70106a26:	462b      	mov	r3, r5
70106a28:	3e01      	subs	r6, #1
70106a2a:	429d      	cmp	r5, r3
70106a2c:	d107      	bne.n	70106a3e <vlc_print+0x2de>
70106a2e:	2030      	movs	r0, #48	@ 0x30
70106a30:	f106 0168 	add.w	r1, r6, #104	@ 0x68
70106a34:	4469      	add	r1, sp
70106a36:	f801 0c40 	strb.w	r0, [r1, #-64]
70106a3a:	3301      	adds	r3, #1
70106a3c:	3e01      	subs	r6, #1
70106a3e:	eeb5 8bc0 	vcmpe.f64	d8, #0.0
70106a42:	eef1 fa10 	vmrs	APSR_nzcv, fpscr
70106a46:	d507      	bpl.n	70106a58 <vlc_print+0x2f8>
70106a48:	202d      	movs	r0, #45	@ 0x2d
70106a4a:	f106 0168 	add.w	r1, r6, #104	@ 0x68
70106a4e:	4469      	add	r1, sp
70106a50:	f801 0c40 	strb.w	r0, [r1, #-64]
70106a54:	3301      	adds	r3, #1
70106a56:	3e01      	subs	r6, #1
70106a58:	eba7 0e03 	sub.w	lr, r7, r3
70106a5c:	42bb      	cmp	r3, r7
70106a5e:	f04f 0020 	mov.w	r0, #32
70106a62:	eb02 0106 	add.w	r1, r2, r6
70106a66:	f10e 0e01 	add.w	lr, lr, #1
70106a6a:	dc02      	bgt.n	70106a72 <vlc_print+0x312>
70106a6c:	f1b7 4f00 	cmp.w	r7, #2147483648	@ 0x80000000
70106a70:	d101      	bne.n	70106a76 <vlc_print+0x316>
70106a72:	f04f 0e01 	mov.w	lr, #1
70106a76:	f04e e001 	dls	lr, lr
70106a7a:	f1be 0e01 	subs.w	lr, lr, #1
70106a7e:	d119      	bne.n	70106ab4 <vlc_print+0x354>
70106a80:	42bb      	cmp	r3, r7
70106a82:	eba7 0503 	sub.w	r5, r7, r3
70106a86:	bfc8      	it	gt
70106a88:	2500      	movgt	r5, #0
70106a8a:	441d      	add	r5, r3
70106a8c:	eba3 0307 	sub.w	r3, r3, r7
70106a90:	bfc8      	it	gt
70106a92:	2300      	movgt	r3, #0
70106a94:	2700      	movs	r7, #0
70106a96:	4433      	add	r3, r6
70106a98:	18d6      	adds	r6, r2, r3
70106a9a:	42af      	cmp	r7, r5
70106a9c:	db0d      	blt.n	70106aba <vlc_print+0x35a>
70106a9e:	44a8      	add	r8, r5
70106aa0:	e6fa      	b.n	70106898 <vlc_print+0x138>
70106aa2:	ee27 7b06 	vmul.f64	d7, d7, d6
70106aa6:	e74b      	b.n	70106940 <vlc_print+0x1e0>
70106aa8:	eeb0 5b48 	vmov.f64	d5, d8
70106aac:	e754      	b.n	70106958 <vlc_print+0x1f8>
70106aae:	f803 1901 	strb.w	r1, [r3], #-1
70106ab2:	e7a0      	b.n	701069f6 <vlc_print+0x296>
70106ab4:	f801 0901 	strb.w	r0, [r1], #-1
70106ab8:	e7df      	b.n	70106a7a <vlc_print+0x31a>
70106aba:	4650      	mov	r0, sl
70106abc:	f816 1f01 	ldrb.w	r1, [r6, #1]!
70106ac0:	47c8      	blx	r9
70106ac2:	3701      	adds	r7, #1
70106ac4:	e7e9      	b.n	70106a9a <vlc_print+0x33a>
70106ac6:	2201      	movs	r2, #1
70106ac8:	e670      	b.n	701067ac <vlc_print+0x4c>
70106aca:	f1a1 002d 	sub.w	r0, r1, #45	@ 0x2d
70106ace:	280c      	cmp	r0, #12
70106ad0:	d82a      	bhi.n	70106b28 <vlc_print+0x3c8>
70106ad2:	a601      	add	r6, pc, #4	@ (adr r6, 70106ad8 <vlc_print+0x378>)
70106ad4:	f856 f020 	ldr.w	pc, [r6, r0, lsl #2]
70106ad8:	701067e9 	.word	0x701067e9
70106adc:	70106ac7 	.word	0x70106ac7
70106ae0:	70106b29 	.word	0x70106b29
70106ae4:	701067cd 	.word	0x701067cd
70106ae8:	701067ef 	.word	0x701067ef
70106aec:	701067ef 	.word	0x701067ef
70106af0:	701067ef 	.word	0x701067ef
70106af4:	701067ef 	.word	0x701067ef
70106af8:	701067ef 	.word	0x701067ef
70106afc:	701067ef 	.word	0x701067ef
70106b00:	701067ef 	.word	0x701067ef
70106b04:	701067ef 	.word	0x701067ef
70106b08:	701067ef 	.word	0x701067ef
70106b0c:	296c      	cmp	r1, #108	@ 0x6c
70106b0e:	f43f ae77 	beq.w	70106800 <vlc_print+0xa0>
70106b12:	2978      	cmp	r1, #120	@ 0x78
70106b14:	d808      	bhi.n	70106b28 <vlc_print+0x3c8>
70106b16:	2962      	cmp	r1, #98	@ 0x62
70106b18:	f63f ae74 	bhi.w	70106804 <vlc_print+0xa4>
70106b1c:	2946      	cmp	r1, #70	@ 0x46
70106b1e:	f43f aefb 	beq.w	70106918 <vlc_print+0x1b8>
70106b22:	2958      	cmp	r1, #88	@ 0x58
70106b24:	f43f aee3 	beq.w	701068ee <vlc_print+0x18e>
70106b28:	213c      	movs	r1, #60	@ 0x3c
70106b2a:	4650      	mov	r0, sl
70106b2c:	47c8      	blx	r9
70106b2e:	2121      	movs	r1, #33	@ 0x21
70106b30:	4650      	mov	r0, sl
70106b32:	47c8      	blx	r9
70106b34:	213e      	movs	r1, #62	@ 0x3e
70106b36:	4650      	mov	r0, sl
70106b38:	47c8      	blx	r9
70106b3a:	3404      	adds	r4, #4
70106b3c:	f108 0803 	add.w	r8, r8, #3
70106b40:	e6aa      	b.n	70106898 <vlc_print+0x138>
70106b42:	bf00      	nop
70106b44:	7010d3ad 	.word	0x7010d3ad

70106b48 <ec_get_blob_ptr>:
70106b48:	b508      	push	{r3, lr}
70106b4a:	6802      	ldr	r2, [r0, #0]
70106b4c:	4b06      	ldr	r3, [pc, #24]	@ (70106b68 <ec_get_blob_ptr+0x20>)
70106b4e:	429a      	cmp	r2, r3
70106b50:	d004      	beq.n	70106b5c <ec_get_blob_ptr+0x14>
70106b52:	4806      	ldr	r0, [pc, #24]	@ (70106b6c <ec_get_blob_ptr+0x24>)
70106b54:	f004 fe98 	bl	7010b888 <puts>
70106b58:	2000      	movs	r0, #0
70106b5a:	bd08      	pop	{r3, pc}
70106b5c:	6903      	ldr	r3, [r0, #16]
70106b5e:	4418      	add	r0, r3
70106b60:	2b00      	cmp	r3, #0
70106b62:	d1fa      	bne.n	70106b5a <ec_get_blob_ptr+0x12>
70106b64:	4802      	ldr	r0, [pc, #8]	@ (70106b70 <ec_get_blob_ptr+0x28>)
70106b66:	e7f5      	b.n	70106b54 <ec_get_blob_ptr+0xc>
70106b68:	ecbf0050 	.word	0xecbf0050
70106b6c:	7010d3b4 	.word	0x7010d3b4
70106b70:	7010d3de 	.word	0x7010d3de

70106b74 <ec_copy_blob>:
70106b74:	b570      	push	{r4, r5, r6, lr}
70106b76:	4604      	mov	r4, r0
70106b78:	4608      	mov	r0, r1
70106b7a:	4615      	mov	r5, r2
70106b7c:	f7ff ffe4 	bl	70106b48 <ec_get_blob_ptr>
70106b80:	b130      	cbz	r0, 70106b90 <ec_copy_blob+0x1c>
70106b82:	6806      	ldr	r6, [r0, #0]
70106b84:	4b13      	ldr	r3, [pc, #76]	@ (70106bd4 <ec_copy_blob+0x60>)
70106b86:	429e      	cmp	r6, r3
70106b88:	d004      	beq.n	70106b94 <ec_copy_blob+0x20>
70106b8a:	4813      	ldr	r0, [pc, #76]	@ (70106bd8 <ec_copy_blob+0x64>)
70106b8c:	f004 fe7c 	bl	7010b888 <puts>
70106b90:	2000      	movs	r0, #0
70106b92:	bd70      	pop	{r4, r5, r6, pc}
70106b94:	6843      	ldr	r3, [r0, #4]
70106b96:	b924      	cbnz	r4, 70106ba2 <ec_copy_blob+0x2e>
70106b98:	b10d      	cbz	r5, 70106b9e <ec_copy_blob+0x2a>
70106b9a:	3302      	adds	r3, #2
70106b9c:	602b      	str	r3, [r5, #0]
70106b9e:	2001      	movs	r0, #1
70106ba0:	e7f7      	b.n	70106b92 <ec_copy_blob+0x1e>
70106ba2:	0762      	lsls	r2, r4, #29
70106ba4:	d001      	beq.n	70106baa <ec_copy_blob+0x36>
70106ba6:	480d      	ldr	r0, [pc, #52]	@ (70106bdc <ec_copy_blob+0x68>)
70106ba8:	e7f0      	b.n	70106b8c <ec_copy_blob+0x18>
70106baa:	b90d      	cbnz	r5, 70106bb0 <ec_copy_blob+0x3c>
70106bac:	480c      	ldr	r0, [pc, #48]	@ (70106be0 <ec_copy_blob+0x6c>)
70106bae:	e7ed      	b.n	70106b8c <ec_copy_blob+0x18>
70106bb0:	682a      	ldr	r2, [r5, #0]
70106bb2:	1c99      	adds	r1, r3, #2
70106bb4:	428a      	cmp	r2, r1
70106bb6:	d203      	bcs.n	70106bc0 <ec_copy_blob+0x4c>
70106bb8:	480a      	ldr	r0, [pc, #40]	@ (70106be4 <ec_copy_blob+0x70>)
70106bba:	f004 fdfd 	bl	7010b7b8 <iprintf>
70106bbe:	e7e7      	b.n	70106b90 <ec_copy_blob+0x1c>
70106bc0:	f100 0108 	add.w	r1, r0, #8
70106bc4:	e9c4 6300 	strd	r6, r3, [r4]
70106bc8:	009a      	lsls	r2, r3, #2
70106bca:	f104 0008 	add.w	r0, r4, #8
70106bce:	f005 f9c8 	bl	7010bf62 <memcpy>
70106bd2:	e7e4      	b.n	70106b9e <ec_copy_blob+0x2a>
70106bd4:	ca057a7a 	.word	0xca057a7a
70106bd8:	7010d413 	.word	0x7010d413
70106bdc:	7010d448 	.word	0x7010d448
70106be0:	7010d495 	.word	0x7010d495
70106be4:	7010d4ea 	.word	0x7010d4ea

70106be8 <ec_reloc>:
70106be8:	b5f8      	push	{r3, r4, r5, r6, r7, lr}
70106bea:	9d06      	ldr	r5, [sp, #24]
70106bec:	460c      	mov	r4, r1
70106bee:	b921      	cbnz	r1, 70106bfa <ec_reloc+0x12>
70106bf0:	4817      	ldr	r0, [pc, #92]	@ (70106c50 <ec_reloc+0x68>)
70106bf2:	f004 fe49 	bl	7010b888 <puts>
70106bf6:	2000      	movs	r0, #0
70106bf8:	e007      	b.n	70106c0a <ec_reloc+0x22>
70106bfa:	6829      	ldr	r1, [r5, #0]
70106bfc:	4299      	cmp	r1, r3
70106bfe:	d003      	beq.n	70106c08 <ec_reloc+0x20>
70106c00:	6821      	ldr	r1, [r4, #0]
70106c02:	4291      	cmp	r1, r2
70106c04:	d802      	bhi.n	70106c0c <ec_reloc+0x24>
70106c06:	602b      	str	r3, [r5, #0]
70106c08:	2001      	movs	r0, #1
70106c0a:	bdf8      	pop	{r3, r4, r5, r6, r7, pc}
70106c0c:	210c      	movs	r1, #12
70106c0e:	434a      	muls	r2, r1
70106c10:	3208      	adds	r2, #8
70106c12:	18a1      	adds	r1, r4, r2
70106c14:	6849      	ldr	r1, [r1, #4]
70106c16:	f011 0603 	ands.w	r6, r1, #3
70106c1a:	d003      	beq.n	70106c24 <ec_reloc+0x3c>
70106c1c:	480d      	ldr	r0, [pc, #52]	@ (70106c54 <ec_reloc+0x6c>)
70106c1e:	f004 fdcb 	bl	7010b7b8 <iprintf>
70106c22:	e7e8      	b.n	70106bf6 <ec_reloc+0xe>
70106c24:	58a2      	ldr	r2, [r4, r2]
70106c26:	440c      	add	r4, r1
70106c28:	f102 0e01 	add.w	lr, r2, #1
70106c2c:	f04e e001 	dls	lr, lr
70106c30:	f1be 0e01 	subs.w	lr, lr, #1
70106c34:	d100      	bne.n	70106c38 <ec_reloc+0x50>
70106c36:	e7e6      	b.n	70106c06 <ec_reloc+0x1e>
70106c38:	f854 2026 	ldr.w	r2, [r4, r6, lsl #2]
70106c3c:	6829      	ldr	r1, [r5, #0]
70106c3e:	3202      	adds	r2, #2
70106c40:	1a5f      	subs	r7, r3, r1
70106c42:	f850 1022 	ldr.w	r1, [r0, r2, lsl #2]
70106c46:	3601      	adds	r6, #1
70106c48:	4439      	add	r1, r7
70106c4a:	f840 1022 	str.w	r1, [r0, r2, lsl #2]
70106c4e:	e7ef      	b.n	70106c30 <ec_reloc+0x48>
70106c50:	7010d594 	.word	0x7010d594
70106c54:	7010d5f3 	.word	0x7010d5f3

70106c58 <LL_ATON_Init>:
70106c58:	b510      	push	{r4, lr}
70106c5a:	4ba3      	ldr	r3, [pc, #652]	@ (70106ee8 <LL_ATON_Init+0x290>)
70106c5c:	b088      	sub	sp, #32
70106c5e:	781a      	ldrb	r2, [r3, #0]
70106c60:	b90a      	cbnz	r2, 70106c66 <LL_ATON_Init+0xe>
70106c62:	2201      	movs	r2, #1
70106c64:	701a      	strb	r2, [r3, #0]
70106c66:	4ba1      	ldr	r3, [pc, #644]	@ (70106eec <LL_ATON_Init+0x294>)
70106c68:	681a      	ldr	r2, [r3, #0]
70106c6a:	f042 0202 	orr.w	r2, r2, #2
70106c6e:	601a      	str	r2, [r3, #0]
70106c70:	2201      	movs	r2, #1
70106c72:	601a      	str	r2, [r3, #0]
70106c74:	f04f 32ff 	mov.w	r2, #4294967295
70106c78:	609a      	str	r2, [r3, #8]
70106c7a:	60da      	str	r2, [r3, #12]
70106c7c:	2200      	movs	r2, #0
70106c7e:	611a      	str	r2, [r3, #16]
70106c80:	f503 43a0 	add.w	r3, r3, #20480	@ 0x5000
70106c84:	685c      	ldr	r4, [r3, #4]
70106c86:	2c00      	cmp	r4, #0
70106c88:	d0fc      	beq.n	70106c84 <LL_ATON_Init+0x2c>
70106c8a:	f245 0301 	movw	r3, #20481	@ 0x5001
70106c8e:	b2a2      	uxth	r2, r4
70106c90:	429a      	cmp	r2, r3
70106c92:	f040 8092 	bne.w	70106dba <LL_ATON_Init+0x162>
70106c96:	4b96      	ldr	r3, [pc, #600]	@ (70106ef0 <LL_ATON_Init+0x298>)
70106c98:	685c      	ldr	r4, [r3, #4]
70106c9a:	2c00      	cmp	r4, #0
70106c9c:	d0fc      	beq.n	70106c98 <LL_ATON_Init+0x40>
70106c9e:	f245 1317 	movw	r3, #20759	@ 0x5117
70106ca2:	b2a2      	uxth	r2, r4
70106ca4:	429a      	cmp	r2, r3
70106ca6:	f040 80b0 	bne.w	70106e0a <LL_ATON_Init+0x1b2>
70106caa:	4b92      	ldr	r3, [pc, #584]	@ (70106ef4 <LL_ATON_Init+0x29c>)
70106cac:	685c      	ldr	r4, [r3, #4]
70106cae:	2c00      	cmp	r4, #0
70106cb0:	d0fc      	beq.n	70106cac <LL_ATON_Init+0x54>
70106cb2:	f241 131c 	movw	r3, #4380	@ 0x111c
70106cb6:	b2a2      	uxth	r2, r4
70106cb8:	429a      	cmp	r2, r3
70106cba:	f040 80cc 	bne.w	70106e56 <LL_ATON_Init+0x1fe>
70106cbe:	4b8e      	ldr	r3, [pc, #568]	@ (70106ef8 <LL_ATON_Init+0x2a0>)
70106cc0:	685c      	ldr	r4, [r3, #4]
70106cc2:	2c00      	cmp	r4, #0
70106cc4:	d0fc      	beq.n	70106cc0 <LL_ATON_Init+0x68>
70106cc6:	f241 031a 	movw	r3, #4122	@ 0x101a
70106cca:	b2a2      	uxth	r2, r4
70106ccc:	429a      	cmp	r2, r3
70106cce:	f040 80e6 	bne.w	70106e9e <LL_ATON_Init+0x246>
70106cd2:	4b8a      	ldr	r3, [pc, #552]	@ (70106efc <LL_ATON_Init+0x2a4>)
70106cd4:	685c      	ldr	r4, [r3, #4]
70106cd6:	2c00      	cmp	r4, #0
70106cd8:	d0fc      	beq.n	70106cd4 <LL_ATON_Init+0x7c>
70106cda:	f241 131b 	movw	r3, #4379	@ 0x111b
70106cde:	b2a2      	uxth	r2, r4
70106ce0:	429a      	cmp	r2, r3
70106ce2:	f040 812d 	bne.w	70106f40 <LL_ATON_Init+0x2e8>
70106ce6:	4b86      	ldr	r3, [pc, #536]	@ (70106f00 <LL_ATON_Init+0x2a8>)
70106ce8:	685c      	ldr	r4, [r3, #4]
70106cea:	2c00      	cmp	r4, #0
70106cec:	d0fc      	beq.n	70106ce8 <LL_ATON_Init+0x90>
70106cee:	f641 2319 	movw	r3, #6681	@ 0x1a19
70106cf2:	b2a2      	uxth	r2, r4
70106cf4:	429a      	cmp	r2, r3
70106cf6:	f040 8147 	bne.w	70106f88 <LL_ATON_Init+0x330>
70106cfa:	4b82      	ldr	r3, [pc, #520]	@ (70106f04 <LL_ATON_Init+0x2ac>)
70106cfc:	685c      	ldr	r4, [r3, #4]
70106cfe:	2c00      	cmp	r4, #0
70106d00:	d0fc      	beq.n	70106cfc <LL_ATON_Init+0xa4>
70106d02:	f241 1321 	movw	r3, #4385	@ 0x1121
70106d06:	b2a2      	uxth	r2, r4
70106d08:	429a      	cmp	r2, r3
70106d0a:	f040 8162 	bne.w	70106fd2 <LL_ATON_Init+0x37a>
70106d0e:	4b7e      	ldr	r3, [pc, #504]	@ (70106f08 <LL_ATON_Init+0x2b0>)
70106d10:	685c      	ldr	r4, [r3, #4]
70106d12:	2c00      	cmp	r4, #0
70106d14:	d0fc      	beq.n	70106d10 <LL_ATON_Init+0xb8>
70106d16:	f243 2320 	movw	r3, #12832	@ 0x3220
70106d1a:	b2a2      	uxth	r2, r4
70106d1c:	429a      	cmp	r2, r3
70106d1e:	f040 817c 	bne.w	7010701a <LL_ATON_Init+0x3c2>
70106d22:	4b72      	ldr	r3, [pc, #456]	@ (70106eec <LL_ATON_Init+0x294>)
70106d24:	685c      	ldr	r4, [r3, #4]
70106d26:	2c00      	cmp	r4, #0
70106d28:	d0fc      	beq.n	70106d24 <LL_ATON_Init+0xcc>
70106d2a:	f241 231f 	movw	r3, #4639	@ 0x121f
70106d2e:	b2a2      	uxth	r2, r4
70106d30:	429a      	cmp	r2, r3
70106d32:	f040 8198 	bne.w	70107066 <LL_ATON_Init+0x40e>
70106d36:	4b75      	ldr	r3, [pc, #468]	@ (70106f0c <LL_ATON_Init+0x2b4>)
70106d38:	685c      	ldr	r4, [r3, #4]
70106d3a:	2c00      	cmp	r4, #0
70106d3c:	d0fc      	beq.n	70106d38 <LL_ATON_Init+0xe0>
70106d3e:	f241 131e 	movw	r3, #4382	@ 0x111e
70106d42:	b2a2      	uxth	r2, r4
70106d44:	429a      	cmp	r2, r3
70106d46:	f040 81b4 	bne.w	701070b2 <LL_ATON_Init+0x45a>
70106d4a:	4b71      	ldr	r3, [pc, #452]	@ (70106f10 <LL_ATON_Init+0x2b8>)
70106d4c:	685c      	ldr	r4, [r3, #4]
70106d4e:	2c00      	cmp	r4, #0
70106d50:	d0fc      	beq.n	70106d4c <LL_ATON_Init+0xf4>
70106d52:	b2a3      	uxth	r3, r4
70106d54:	f5b3 5fb0 	cmp.w	r3, #5632	@ 0x1600
70106d58:	f040 81cf 	bne.w	701070fa <LL_ATON_Init+0x4a2>
70106d5c:	4a6d      	ldr	r2, [pc, #436]	@ (70106f14 <LL_ATON_Init+0x2bc>)
70106d5e:	6854      	ldr	r4, [r2, #4]
70106d60:	2c00      	cmp	r4, #0
70106d62:	d0fc      	beq.n	70106d5e <LL_ATON_Init+0x106>
70106d64:	f245 031d 	movw	r3, #20509	@ 0x501d
70106d68:	b2a1      	uxth	r1, r4
70106d6a:	4299      	cmp	r1, r3
70106d6c:	f000 81ec 	beq.w	70107148 <LL_ATON_Init+0x4f0>
70106d70:	f005 f8ca 	bl	7010bf08 <__errno>
70106d74:	6803      	ldr	r3, [r0, #0]
70106d76:	2b00      	cmp	r3, #0
70106d78:	f000 81e4 	beq.w	70107144 <LL_ATON_Init+0x4ec>
70106d7c:	f005 f8c4 	bl	7010bf08 <__errno>
70106d80:	6800      	ldr	r0, [r0, #0]
70106d82:	f005 f84d 	bl	7010be20 <strerror>
70106d86:	4603      	mov	r3, r0
70106d88:	2205      	movs	r2, #5
70106d8a:	2100      	movs	r1, #0
70106d8c:	e9cd 2105 	strd	r2, r1, [sp, #20]
70106d90:	221d      	movs	r2, #29
70106d92:	9204      	str	r2, [sp, #16]
70106d94:	f3c4 2203 	ubfx	r2, r4, #8, #4
70106d98:	9203      	str	r2, [sp, #12]
70106d9a:	f3c4 3203 	ubfx	r2, r4, #12, #4
70106d9e:	9202      	str	r2, [sp, #8]
70106da0:	4a5d      	ldr	r2, [pc, #372]	@ (70106f18 <LL_ATON_Init+0x2c0>)
70106da2:	b2e4      	uxtb	r4, r4
70106da4:	495d      	ldr	r1, [pc, #372]	@ (70106f1c <LL_ATON_Init+0x2c4>)
70106da6:	9200      	str	r2, [sp, #0]
70106da8:	485d      	ldr	r0, [pc, #372]	@ (70106f20 <LL_ATON_Init+0x2c8>)
70106daa:	22fa      	movs	r2, #250	@ 0xfa
70106dac:	9401      	str	r4, [sp, #4]
70106dae:	f004 fd03 	bl	7010b7b8 <iprintf>
70106db2:	21fa      	movs	r1, #250	@ 0xfa
70106db4:	4b5b      	ldr	r3, [pc, #364]	@ (70106f24 <LL_ATON_Init+0x2cc>)
70106db6:	4a5c      	ldr	r2, [pc, #368]	@ (70106f28 <LL_ATON_Init+0x2d0>)
70106db8:	e022      	b.n	70106e00 <LL_ATON_Init+0x1a8>
70106dba:	f005 f8a5 	bl	7010bf08 <__errno>
70106dbe:	6803      	ldr	r3, [r0, #0]
70106dc0:	b30b      	cbz	r3, 70106e06 <LL_ATON_Init+0x1ae>
70106dc2:	f005 f8a1 	bl	7010bf08 <__errno>
70106dc6:	6800      	ldr	r0, [r0, #0]
70106dc8:	f005 f82a 	bl	7010be20 <strerror>
70106dcc:	4603      	mov	r3, r0
70106dce:	2205      	movs	r2, #5
70106dd0:	f04f 0e00 	mov.w	lr, #0
70106dd4:	e9cd 2e05 	strd	r2, lr, [sp, #20]
70106dd8:	2201      	movs	r2, #1
70106dda:	9204      	str	r2, [sp, #16]
70106ddc:	f3c4 2203 	ubfx	r2, r4, #8, #4
70106de0:	9203      	str	r2, [sp, #12]
70106de2:	f3c4 3203 	ubfx	r2, r4, #12, #4
70106de6:	9202      	str	r2, [sp, #8]
70106de8:	4a50      	ldr	r2, [pc, #320]	@ (70106f2c <LL_ATON_Init+0x2d4>)
70106dea:	b2e4      	uxtb	r4, r4
70106dec:	494b      	ldr	r1, [pc, #300]	@ (70106f1c <LL_ATON_Init+0x2c4>)
70106dee:	9200      	str	r2, [sp, #0]
70106df0:	484b      	ldr	r0, [pc, #300]	@ (70106f20 <LL_ATON_Init+0x2c8>)
70106df2:	22c6      	movs	r2, #198	@ 0xc6
70106df4:	9401      	str	r4, [sp, #4]
70106df6:	f004 fcdf 	bl	7010b7b8 <iprintf>
70106dfa:	21c6      	movs	r1, #198	@ 0xc6
70106dfc:	4b49      	ldr	r3, [pc, #292]	@ (70106f24 <LL_ATON_Init+0x2cc>)
70106dfe:	4a4a      	ldr	r2, [pc, #296]	@ (70106f28 <LL_ATON_Init+0x2d0>)
70106e00:	4846      	ldr	r0, [pc, #280]	@ (70106f1c <LL_ATON_Init+0x2c4>)
70106e02:	f004 fa8f 	bl	7010b324 <__assert_func>
70106e06:	4b4a      	ldr	r3, [pc, #296]	@ (70106f30 <LL_ATON_Init+0x2d8>)
70106e08:	e7e1      	b.n	70106dce <LL_ATON_Init+0x176>
70106e0a:	f005 f87d 	bl	7010bf08 <__errno>
70106e0e:	6803      	ldr	r3, [r0, #0]
70106e10:	b1fb      	cbz	r3, 70106e52 <LL_ATON_Init+0x1fa>
70106e12:	f005 f879 	bl	7010bf08 <__errno>
70106e16:	6800      	ldr	r0, [r0, #0]
70106e18:	f005 f802 	bl	7010be20 <strerror>
70106e1c:	4603      	mov	r3, r0
70106e1e:	2205      	movs	r2, #5
70106e20:	f04f 0c01 	mov.w	ip, #1
70106e24:	e9cd 2c05 	strd	r2, ip, [sp, #20]
70106e28:	2217      	movs	r2, #23
70106e2a:	9204      	str	r2, [sp, #16]
70106e2c:	f3c4 2203 	ubfx	r2, r4, #8, #4
70106e30:	9203      	str	r2, [sp, #12]
70106e32:	f3c4 3203 	ubfx	r2, r4, #12, #4
70106e36:	9202      	str	r2, [sp, #8]
70106e38:	4a3e      	ldr	r2, [pc, #248]	@ (70106f34 <LL_ATON_Init+0x2dc>)
70106e3a:	b2e4      	uxtb	r4, r4
70106e3c:	4937      	ldr	r1, [pc, #220]	@ (70106f1c <LL_ATON_Init+0x2c4>)
70106e3e:	9200      	str	r2, [sp, #0]
70106e40:	4837      	ldr	r0, [pc, #220]	@ (70106f20 <LL_ATON_Init+0x2c8>)
70106e42:	22c9      	movs	r2, #201	@ 0xc9
70106e44:	9401      	str	r4, [sp, #4]
70106e46:	f004 fcb7 	bl	7010b7b8 <iprintf>
70106e4a:	21c9      	movs	r1, #201	@ 0xc9
70106e4c:	4b35      	ldr	r3, [pc, #212]	@ (70106f24 <LL_ATON_Init+0x2cc>)
70106e4e:	4a36      	ldr	r2, [pc, #216]	@ (70106f28 <LL_ATON_Init+0x2d0>)
70106e50:	e7d6      	b.n	70106e00 <LL_ATON_Init+0x1a8>
70106e52:	4b37      	ldr	r3, [pc, #220]	@ (70106f30 <LL_ATON_Init+0x2d8>)
70106e54:	e7e3      	b.n	70106e1e <LL_ATON_Init+0x1c6>
70106e56:	f005 f857 	bl	7010bf08 <__errno>
70106e5a:	6803      	ldr	r3, [r0, #0]
70106e5c:	b1eb      	cbz	r3, 70106e9a <LL_ATON_Init+0x242>
70106e5e:	f005 f853 	bl	7010bf08 <__errno>
70106e62:	6800      	ldr	r0, [r0, #0]
70106e64:	f004 ffdc 	bl	7010be20 <strerror>
70106e68:	4603      	mov	r3, r0
70106e6a:	2201      	movs	r2, #1
70106e6c:	e9cd 2205 	strd	r2, r2, [sp, #20]
70106e70:	221c      	movs	r2, #28
70106e72:	9204      	str	r2, [sp, #16]
70106e74:	f3c4 2203 	ubfx	r2, r4, #8, #4
70106e78:	9203      	str	r2, [sp, #12]
70106e7a:	f3c4 3203 	ubfx	r2, r4, #12, #4
70106e7e:	9202      	str	r2, [sp, #8]
70106e80:	4a2d      	ldr	r2, [pc, #180]	@ (70106f38 <LL_ATON_Init+0x2e0>)
70106e82:	b2e4      	uxtb	r4, r4
70106e84:	4925      	ldr	r1, [pc, #148]	@ (70106f1c <LL_ATON_Init+0x2c4>)
70106e86:	9200      	str	r2, [sp, #0]
70106e88:	4825      	ldr	r0, [pc, #148]	@ (70106f20 <LL_ATON_Init+0x2c8>)
70106e8a:	22cd      	movs	r2, #205	@ 0xcd
70106e8c:	9401      	str	r4, [sp, #4]
70106e8e:	f004 fc93 	bl	7010b7b8 <iprintf>
70106e92:	21cd      	movs	r1, #205	@ 0xcd
70106e94:	4b23      	ldr	r3, [pc, #140]	@ (70106f24 <LL_ATON_Init+0x2cc>)
70106e96:	4a24      	ldr	r2, [pc, #144]	@ (70106f28 <LL_ATON_Init+0x2d0>)
70106e98:	e7b2      	b.n	70106e00 <LL_ATON_Init+0x1a8>
70106e9a:	4b25      	ldr	r3, [pc, #148]	@ (70106f30 <LL_ATON_Init+0x2d8>)
70106e9c:	e7e5      	b.n	70106e6a <LL_ATON_Init+0x212>
70106e9e:	f005 f833 	bl	7010bf08 <__errno>
70106ea2:	6803      	ldr	r3, [r0, #0]
70106ea4:	b1f3      	cbz	r3, 70106ee4 <LL_ATON_Init+0x28c>
70106ea6:	f005 f82f 	bl	7010bf08 <__errno>
70106eaa:	6800      	ldr	r0, [r0, #0]
70106eac:	f004 ffb8 	bl	7010be20 <strerror>
70106eb0:	4603      	mov	r3, r0
70106eb2:	2201      	movs	r2, #1
70106eb4:	2000      	movs	r0, #0
70106eb6:	e9cd 2005 	strd	r2, r0, [sp, #20]
70106eba:	221a      	movs	r2, #26
70106ebc:	9204      	str	r2, [sp, #16]
70106ebe:	f3c4 2203 	ubfx	r2, r4, #8, #4
70106ec2:	9203      	str	r2, [sp, #12]
70106ec4:	f3c4 3203 	ubfx	r2, r4, #12, #4
70106ec8:	9202      	str	r2, [sp, #8]
70106eca:	4a1c      	ldr	r2, [pc, #112]	@ (70106f3c <LL_ATON_Init+0x2e4>)
70106ecc:	b2e4      	uxtb	r4, r4
70106ece:	4913      	ldr	r1, [pc, #76]	@ (70106f1c <LL_ATON_Init+0x2c4>)
70106ed0:	9200      	str	r2, [sp, #0]
70106ed2:	4813      	ldr	r0, [pc, #76]	@ (70106f20 <LL_ATON_Init+0x2c8>)
70106ed4:	22d1      	movs	r2, #209	@ 0xd1
70106ed6:	9401      	str	r4, [sp, #4]
70106ed8:	f004 fc6e 	bl	7010b7b8 <iprintf>
70106edc:	21d1      	movs	r1, #209	@ 0xd1
70106ede:	4b11      	ldr	r3, [pc, #68]	@ (70106f24 <LL_ATON_Init+0x2cc>)
70106ee0:	4a11      	ldr	r2, [pc, #68]	@ (70106f28 <LL_ATON_Init+0x2d0>)
70106ee2:	e78d      	b.n	70106e00 <LL_ATON_Init+0x1a8>
70106ee4:	4b12      	ldr	r3, [pc, #72]	@ (70106f30 <LL_ATON_Init+0x2d8>)
70106ee6:	e7e4      	b.n	70106eb2 <LL_ATON_Init+0x25a>
70106ee8:	34000dbc 	.word	0x34000dbc
70106eec:	580e0000 	.word	0x580e0000
70106ef0:	580ef000 	.word	0x580ef000
70106ef4:	580fb000 	.word	0x580fb000
70106ef8:	580f7000 	.word	0x580f7000
70106efc:	580f5000 	.word	0x580f5000
70106f00:	580f3000 	.word	0x580f3000
70106f04:	580fe000 	.word	0x580fe000
70106f08:	580fd000 	.word	0x580fd000
70106f0c:	580e1000 	.word	0x580e1000
70106f10:	580e4000 	.word	0x580e4000
70106f14:	580e2000 	.word	0x580e2000
70106f18:	7010d74a 	.word	0x7010d74a
70106f1c:	7010d631 	.word	0x7010d631
70106f20:	7010d695 	.word	0x7010d695
70106f24:	7010d8ed 	.word	0x7010d8ed
70106f28:	7010f960 	.word	0x7010f960
70106f2c:	7010d6f9 	.word	0x7010d6f9
70106f30:	7010d62c 	.word	0x7010d62c
70106f34:	7010d700 	.word	0x7010d700
70106f38:	7010d708 	.word	0x7010d708
70106f3c:	7010d70d 	.word	0x7010d70d
70106f40:	f004 ffe2 	bl	7010bf08 <__errno>
70106f44:	6803      	ldr	r3, [r0, #0]
70106f46:	b1eb      	cbz	r3, 70106f84 <LL_ATON_Init+0x32c>
70106f48:	f004 ffde 	bl	7010bf08 <__errno>
70106f4c:	6800      	ldr	r0, [r0, #0]
70106f4e:	f004 ff67 	bl	7010be20 <strerror>
70106f52:	4603      	mov	r3, r0
70106f54:	2201      	movs	r2, #1
70106f56:	e9cd 2205 	strd	r2, r2, [sp, #20]
70106f5a:	221b      	movs	r2, #27
70106f5c:	9204      	str	r2, [sp, #16]
70106f5e:	f3c4 2203 	ubfx	r2, r4, #8, #4
70106f62:	9203      	str	r2, [sp, #12]
70106f64:	f3c4 3203 	ubfx	r2, r4, #12, #4
70106f68:	9202      	str	r2, [sp, #8]
70106f6a:	4a7c      	ldr	r2, [pc, #496]	@ (7010715c <LL_ATON_Init+0x504>)
70106f6c:	b2e4      	uxtb	r4, r4
70106f6e:	497c      	ldr	r1, [pc, #496]	@ (70107160 <LL_ATON_Init+0x508>)
70106f70:	9200      	str	r2, [sp, #0]
70106f72:	487c      	ldr	r0, [pc, #496]	@ (70107164 <LL_ATON_Init+0x50c>)
70106f74:	22d5      	movs	r2, #213	@ 0xd5
70106f76:	9401      	str	r4, [sp, #4]
70106f78:	f004 fc1e 	bl	7010b7b8 <iprintf>
70106f7c:	21d5      	movs	r1, #213	@ 0xd5
70106f7e:	4b7a      	ldr	r3, [pc, #488]	@ (70107168 <LL_ATON_Init+0x510>)
70106f80:	4a7a      	ldr	r2, [pc, #488]	@ (7010716c <LL_ATON_Init+0x514>)
70106f82:	e73d      	b.n	70106e00 <LL_ATON_Init+0x1a8>
70106f84:	4b7a      	ldr	r3, [pc, #488]	@ (70107170 <LL_ATON_Init+0x518>)
70106f86:	e7e5      	b.n	70106f54 <LL_ATON_Init+0x2fc>
70106f88:	f004 ffbe 	bl	7010bf08 <__errno>
70106f8c:	6803      	ldr	r3, [r0, #0]
70106f8e:	b1f3      	cbz	r3, 70106fce <LL_ATON_Init+0x376>
70106f90:	f004 ffba 	bl	7010bf08 <__errno>
70106f94:	6800      	ldr	r0, [r0, #0]
70106f96:	f004 ff43 	bl	7010be20 <strerror>
70106f9a:	4603      	mov	r3, r0
70106f9c:	2201      	movs	r2, #1
70106f9e:	210a      	movs	r1, #10
70106fa0:	e9cd 2105 	strd	r2, r1, [sp, #20]
70106fa4:	2219      	movs	r2, #25
70106fa6:	9204      	str	r2, [sp, #16]
70106fa8:	f3c4 2203 	ubfx	r2, r4, #8, #4
70106fac:	9203      	str	r2, [sp, #12]
70106fae:	f3c4 3203 	ubfx	r2, r4, #12, #4
70106fb2:	9202      	str	r2, [sp, #8]
70106fb4:	4a6f      	ldr	r2, [pc, #444]	@ (70107174 <LL_ATON_Init+0x51c>)
70106fb6:	b2e4      	uxtb	r4, r4
70106fb8:	4969      	ldr	r1, [pc, #420]	@ (70107160 <LL_ATON_Init+0x508>)
70106fba:	9200      	str	r2, [sp, #0]
70106fbc:	4869      	ldr	r0, [pc, #420]	@ (70107164 <LL_ATON_Init+0x50c>)
70106fbe:	22d9      	movs	r2, #217	@ 0xd9
70106fc0:	9401      	str	r4, [sp, #4]
70106fc2:	f004 fbf9 	bl	7010b7b8 <iprintf>
70106fc6:	21d9      	movs	r1, #217	@ 0xd9
70106fc8:	4b67      	ldr	r3, [pc, #412]	@ (70107168 <LL_ATON_Init+0x510>)
70106fca:	4a68      	ldr	r2, [pc, #416]	@ (7010716c <LL_ATON_Init+0x514>)
70106fcc:	e718      	b.n	70106e00 <LL_ATON_Init+0x1a8>
70106fce:	4b68      	ldr	r3, [pc, #416]	@ (70107170 <LL_ATON_Init+0x518>)
70106fd0:	e7e4      	b.n	70106f9c <LL_ATON_Init+0x344>
70106fd2:	f004 ff99 	bl	7010bf08 <__errno>
70106fd6:	6803      	ldr	r3, [r0, #0]
70106fd8:	b1eb      	cbz	r3, 70107016 <LL_ATON_Init+0x3be>
70106fda:	f004 ff95 	bl	7010bf08 <__errno>
70106fde:	6800      	ldr	r0, [r0, #0]
70106fe0:	f004 ff1e 	bl	7010be20 <strerror>
70106fe4:	4603      	mov	r3, r0
70106fe6:	2201      	movs	r2, #1
70106fe8:	e9cd 2205 	strd	r2, r2, [sp, #20]
70106fec:	2221      	movs	r2, #33	@ 0x21
70106fee:	9204      	str	r2, [sp, #16]
70106ff0:	f3c4 2203 	ubfx	r2, r4, #8, #4
70106ff4:	9203      	str	r2, [sp, #12]
70106ff6:	f3c4 3203 	ubfx	r2, r4, #12, #4
70106ffa:	9202      	str	r2, [sp, #8]
70106ffc:	4a5e      	ldr	r2, [pc, #376]	@ (70107178 <LL_ATON_Init+0x520>)
70106ffe:	b2e4      	uxtb	r4, r4
70107000:	4957      	ldr	r1, [pc, #348]	@ (70107160 <LL_ATON_Init+0x508>)
70107002:	9200      	str	r2, [sp, #0]
70107004:	4857      	ldr	r0, [pc, #348]	@ (70107164 <LL_ATON_Init+0x50c>)
70107006:	22dd      	movs	r2, #221	@ 0xdd
70107008:	9401      	str	r4, [sp, #4]
7010700a:	f004 fbd5 	bl	7010b7b8 <iprintf>
7010700e:	21dd      	movs	r1, #221	@ 0xdd
70107010:	4b55      	ldr	r3, [pc, #340]	@ (70107168 <LL_ATON_Init+0x510>)
70107012:	4a56      	ldr	r2, [pc, #344]	@ (7010716c <LL_ATON_Init+0x514>)
70107014:	e6f4      	b.n	70106e00 <LL_ATON_Init+0x1a8>
70107016:	4b56      	ldr	r3, [pc, #344]	@ (70107170 <LL_ATON_Init+0x518>)
70107018:	e7e5      	b.n	70106fe6 <LL_ATON_Init+0x38e>
7010701a:	f004 ff75 	bl	7010bf08 <__errno>
7010701e:	6803      	ldr	r3, [r0, #0]
70107020:	b1fb      	cbz	r3, 70107062 <LL_ATON_Init+0x40a>
70107022:	f004 ff71 	bl	7010bf08 <__errno>
70107026:	6800      	ldr	r0, [r0, #0]
70107028:	f004 fefa 	bl	7010be20 <strerror>
7010702c:	4603      	mov	r3, r0
7010702e:	2203      	movs	r2, #3
70107030:	f04f 0e02 	mov.w	lr, #2
70107034:	e9cd 2e05 	strd	r2, lr, [sp, #20]
70107038:	2220      	movs	r2, #32
7010703a:	9204      	str	r2, [sp, #16]
7010703c:	f3c4 2203 	ubfx	r2, r4, #8, #4
70107040:	9203      	str	r2, [sp, #12]
70107042:	f3c4 3203 	ubfx	r2, r4, #12, #4
70107046:	9202      	str	r2, [sp, #8]
70107048:	4a4c      	ldr	r2, [pc, #304]	@ (7010717c <LL_ATON_Init+0x524>)
7010704a:	b2e4      	uxtb	r4, r4
7010704c:	4944      	ldr	r1, [pc, #272]	@ (70107160 <LL_ATON_Init+0x508>)
7010704e:	9200      	str	r2, [sp, #0]
70107050:	4844      	ldr	r0, [pc, #272]	@ (70107164 <LL_ATON_Init+0x50c>)
70107052:	22e1      	movs	r2, #225	@ 0xe1
70107054:	9401      	str	r4, [sp, #4]
70107056:	f004 fbaf 	bl	7010b7b8 <iprintf>
7010705a:	21e1      	movs	r1, #225	@ 0xe1
7010705c:	4b42      	ldr	r3, [pc, #264]	@ (70107168 <LL_ATON_Init+0x510>)
7010705e:	4a43      	ldr	r2, [pc, #268]	@ (7010716c <LL_ATON_Init+0x514>)
70107060:	e6ce      	b.n	70106e00 <LL_ATON_Init+0x1a8>
70107062:	4b43      	ldr	r3, [pc, #268]	@ (70107170 <LL_ATON_Init+0x518>)
70107064:	e7e3      	b.n	7010702e <LL_ATON_Init+0x3d6>
70107066:	f004 ff4f 	bl	7010bf08 <__errno>
7010706a:	6803      	ldr	r3, [r0, #0]
7010706c:	b1fb      	cbz	r3, 701070ae <LL_ATON_Init+0x456>
7010706e:	f004 ff4b 	bl	7010bf08 <__errno>
70107072:	6800      	ldr	r0, [r0, #0]
70107074:	f004 fed4 	bl	7010be20 <strerror>
70107078:	4603      	mov	r3, r0
7010707a:	2201      	movs	r2, #1
7010707c:	f04f 0c02 	mov.w	ip, #2
70107080:	e9cd 2c05 	strd	r2, ip, [sp, #20]
70107084:	221f      	movs	r2, #31
70107086:	9204      	str	r2, [sp, #16]
70107088:	f3c4 2203 	ubfx	r2, r4, #8, #4
7010708c:	9203      	str	r2, [sp, #12]
7010708e:	f3c4 3203 	ubfx	r2, r4, #12, #4
70107092:	9202      	str	r2, [sp, #8]
70107094:	4a3a      	ldr	r2, [pc, #232]	@ (70107180 <LL_ATON_Init+0x528>)
70107096:	b2e4      	uxtb	r4, r4
70107098:	4931      	ldr	r1, [pc, #196]	@ (70107160 <LL_ATON_Init+0x508>)
7010709a:	9200      	str	r2, [sp, #0]
7010709c:	4831      	ldr	r0, [pc, #196]	@ (70107164 <LL_ATON_Init+0x50c>)
7010709e:	22f4      	movs	r2, #244	@ 0xf4
701070a0:	9401      	str	r4, [sp, #4]
701070a2:	f004 fb89 	bl	7010b7b8 <iprintf>
701070a6:	21f4      	movs	r1, #244	@ 0xf4
701070a8:	4b2f      	ldr	r3, [pc, #188]	@ (70107168 <LL_ATON_Init+0x510>)
701070aa:	4a30      	ldr	r2, [pc, #192]	@ (7010716c <LL_ATON_Init+0x514>)
701070ac:	e6a8      	b.n	70106e00 <LL_ATON_Init+0x1a8>
701070ae:	4b30      	ldr	r3, [pc, #192]	@ (70107170 <LL_ATON_Init+0x518>)
701070b0:	e7e3      	b.n	7010707a <LL_ATON_Init+0x422>
701070b2:	f004 ff29 	bl	7010bf08 <__errno>
701070b6:	6803      	ldr	r3, [r0, #0]
701070b8:	b1eb      	cbz	r3, 701070f6 <LL_ATON_Init+0x49e>
701070ba:	f004 ff25 	bl	7010bf08 <__errno>
701070be:	6800      	ldr	r0, [r0, #0]
701070c0:	f004 feae 	bl	7010be20 <strerror>
701070c4:	4603      	mov	r3, r0
701070c6:	2201      	movs	r2, #1
701070c8:	e9cd 2205 	strd	r2, r2, [sp, #20]
701070cc:	221e      	movs	r2, #30
701070ce:	9204      	str	r2, [sp, #16]
701070d0:	f3c4 2203 	ubfx	r2, r4, #8, #4
701070d4:	9203      	str	r2, [sp, #12]
701070d6:	f3c4 3203 	ubfx	r2, r4, #12, #4
701070da:	9202      	str	r2, [sp, #8]
701070dc:	4a29      	ldr	r2, [pc, #164]	@ (70107184 <LL_ATON_Init+0x52c>)
701070de:	b2e4      	uxtb	r4, r4
701070e0:	491f      	ldr	r1, [pc, #124]	@ (70107160 <LL_ATON_Init+0x508>)
701070e2:	9200      	str	r2, [sp, #0]
701070e4:	481f      	ldr	r0, [pc, #124]	@ (70107164 <LL_ATON_Init+0x50c>)
701070e6:	22f6      	movs	r2, #246	@ 0xf6
701070e8:	9401      	str	r4, [sp, #4]
701070ea:	f004 fb65 	bl	7010b7b8 <iprintf>
701070ee:	21f6      	movs	r1, #246	@ 0xf6
701070f0:	4b1d      	ldr	r3, [pc, #116]	@ (70107168 <LL_ATON_Init+0x510>)
701070f2:	4a1e      	ldr	r2, [pc, #120]	@ (7010716c <LL_ATON_Init+0x514>)
701070f4:	e684      	b.n	70106e00 <LL_ATON_Init+0x1a8>
701070f6:	4b1e      	ldr	r3, [pc, #120]	@ (70107170 <LL_ATON_Init+0x518>)
701070f8:	e7e5      	b.n	701070c6 <LL_ATON_Init+0x46e>
701070fa:	f004 ff05 	bl	7010bf08 <__errno>
701070fe:	6803      	ldr	r3, [r0, #0]
70107100:	b1f3      	cbz	r3, 70107140 <LL_ATON_Init+0x4e8>
70107102:	f004 ff01 	bl	7010bf08 <__errno>
70107106:	6800      	ldr	r0, [r0, #0]
70107108:	f004 fe8a 	bl	7010be20 <strerror>
7010710c:	4603      	mov	r3, r0
7010710e:	2201      	movs	r2, #1
70107110:	2006      	movs	r0, #6
70107112:	e9cd 2005 	strd	r2, r0, [sp, #20]
70107116:	2200      	movs	r2, #0
70107118:	9204      	str	r2, [sp, #16]
7010711a:	f3c4 2203 	ubfx	r2, r4, #8, #4
7010711e:	9203      	str	r2, [sp, #12]
70107120:	f3c4 3203 	ubfx	r2, r4, #12, #4
70107124:	9202      	str	r2, [sp, #8]
70107126:	4a18      	ldr	r2, [pc, #96]	@ (70107188 <LL_ATON_Init+0x530>)
70107128:	b2e4      	uxtb	r4, r4
7010712a:	490d      	ldr	r1, [pc, #52]	@ (70107160 <LL_ATON_Init+0x508>)
7010712c:	9200      	str	r2, [sp, #0]
7010712e:	480d      	ldr	r0, [pc, #52]	@ (70107164 <LL_ATON_Init+0x50c>)
70107130:	22f8      	movs	r2, #248	@ 0xf8
70107132:	9401      	str	r4, [sp, #4]
70107134:	f004 fb40 	bl	7010b7b8 <iprintf>
70107138:	21f8      	movs	r1, #248	@ 0xf8
7010713a:	4b0b      	ldr	r3, [pc, #44]	@ (70107168 <LL_ATON_Init+0x510>)
7010713c:	4a0b      	ldr	r2, [pc, #44]	@ (7010716c <LL_ATON_Init+0x514>)
7010713e:	e65f      	b.n	70106e00 <LL_ATON_Init+0x1a8>
70107140:	4b0b      	ldr	r3, [pc, #44]	@ (70107170 <LL_ATON_Init+0x518>)
70107142:	e7e4      	b.n	7010710e <LL_ATON_Init+0x4b6>
70107144:	4b0a      	ldr	r3, [pc, #40]	@ (70107170 <LL_ATON_Init+0x518>)
70107146:	e61f      	b.n	70106d88 <LL_ATON_Init+0x130>
70107148:	2301      	movs	r3, #1
7010714a:	2000      	movs	r0, #0
7010714c:	6013      	str	r3, [r2, #0]
7010714e:	4a0f      	ldr	r2, [pc, #60]	@ (7010718c <LL_ATON_Init+0x534>)
70107150:	6013      	str	r3, [r2, #0]
70107152:	f5a2 5200 	sub.w	r2, r2, #8192	@ 0x2000
70107156:	6013      	str	r3, [r2, #0]
70107158:	b008      	add	sp, #32
7010715a:	bd10      	pop	{r4, pc}
7010715c:	7010d713 	.word	0x7010d713
70107160:	7010d631 	.word	0x7010d631
70107164:	7010d695 	.word	0x7010d695
70107168:	7010d8ed 	.word	0x7010d8ed
7010716c:	7010f960 	.word	0x7010f960
70107170:	7010d62c 	.word	0x7010d62c
70107174:	7010d719 	.word	0x7010d719
70107178:	7010d71f 	.word	0x7010d71f
7010717c:	7010d729 	.word	0x7010d729
70107180:	7010d730 	.word	0x7010d730
70107184:	7010d738 	.word	0x7010d738
70107188:	7010d740 	.word	0x7010d740
7010718c:	580e3000 	.word	0x580e3000

70107190 <LL_ATON_DeInit>:
70107190:	2000      	movs	r0, #0
70107192:	4b07      	ldr	r3, [pc, #28]	@ (701071b0 <LL_ATON_DeInit+0x20>)
70107194:	6018      	str	r0, [r3, #0]
70107196:	f503 5380 	add.w	r3, r3, #4096	@ 0x1000
7010719a:	6018      	str	r0, [r3, #0]
7010719c:	f503 5380 	add.w	r3, r3, #4096	@ 0x1000
701071a0:	6018      	str	r0, [r3, #0]
701071a2:	f5a3 5340 	sub.w	r3, r3, #12288	@ 0x3000
701071a6:	6098      	str	r0, [r3, #8]
701071a8:	60d8      	str	r0, [r3, #12]
701071aa:	6118      	str	r0, [r3, #16]
701071ac:	6018      	str	r0, [r3, #0]
701071ae:	4770      	bx	lr
701071b0:	580e1000 	.word	0x580e1000

701071b4 <LL_EpochCtrl_Init>:
701071b4:	2800      	cmp	r0, #0
701071b6:	dc11      	bgt.n	701071dc <LL_EpochCtrl_Init+0x28>
701071b8:	4a0b      	ldr	r2, [pc, #44]	@ (701071e8 <LL_EpochCtrl_Init+0x34>)
701071ba:	6913      	ldr	r3, [r2, #16]
701071bc:	f043 7300 	orr.w	r3, r3, #33554432	@ 0x2000000
701071c0:	6113      	str	r3, [r2, #16]
701071c2:	790b      	ldrb	r3, [r1, #4]
701071c4:	f502 32f0 	add.w	r2, r2, #122880	@ 0x1e000
701071c8:	f003 0301 	and.w	r3, r3, #1
701071cc:	00db      	lsls	r3, r3, #3
701071ce:	6013      	str	r3, [r2, #0]
701071d0:	680b      	ldr	r3, [r1, #0]
701071d2:	f013 0007 	ands.w	r0, r3, #7
701071d6:	d104      	bne.n	701071e2 <LL_EpochCtrl_Init+0x2e>
701071d8:	6093      	str	r3, [r2, #8]
701071da:	4770      	bx	lr
701071dc:	f04f 30ff 	mov.w	r0, #4294967295
701071e0:	4770      	bx	lr
701071e2:	f06f 0001 	mvn.w	r0, #1
701071e6:	4770      	bx	lr
701071e8:	580e0000 	.word	0x580e0000

701071ec <LL_ATON_EnableClock>:
701071ec:	281f      	cmp	r0, #31
701071ee:	b530      	push	{r4, r5, lr}
701071f0:	d80b      	bhi.n	7010720a <LL_ATON_EnableClock+0x1e>
701071f2:	2401      	movs	r4, #1
701071f4:	2500      	movs	r5, #0
701071f6:	2301      	movs	r3, #1
701071f8:	ea54 050d 	lsll	r4, r5, r0
701071fc:	4903      	ldr	r1, [pc, #12]	@ (7010720c <LL_ATON_EnableClock+0x20>)
701071fe:	4083      	lsls	r3, r0
70107200:	690a      	ldr	r2, [r1, #16]
70107202:	4053      	eors	r3, r2
70107204:	4023      	ands	r3, r4
70107206:	405a      	eors	r2, r3
70107208:	610a      	str	r2, [r1, #16]
7010720a:	bd30      	pop	{r4, r5, pc}
7010720c:	580e0000 	.word	0x580e0000

70107210 <LL_ATON_DisableClock>:
70107210:	281f      	cmp	r0, #31
70107212:	b530      	push	{r4, r5, lr}
70107214:	d808      	bhi.n	70107228 <LL_ATON_DisableClock+0x18>
70107216:	2401      	movs	r4, #1
70107218:	2500      	movs	r5, #0
7010721a:	ea54 050d 	lsll	r4, r5, r0
7010721e:	4a03      	ldr	r2, [pc, #12]	@ (7010722c <LL_ATON_DisableClock+0x1c>)
70107220:	6913      	ldr	r3, [r2, #16]
70107222:	ea23 0304 	bic.w	r3, r3, r4
70107226:	6113      	str	r3, [r2, #16]
70107228:	bd30      	pop	{r4, r5, pc}
7010722a:	bf00      	nop
7010722c:	580e0000 	.word	0x580e0000

70107230 <LL_Busif_SetKeys>:
70107230:	b530      	push	{r4, r5, lr}
70107232:	2801      	cmp	r0, #1
70107234:	e9dd 5403 	ldrd	r5, r4, [sp, #12]
70107238:	dc16      	bgt.n	70107268 <LL_Busif_SetKeys+0x38>
7010723a:	2901      	cmp	r1, #1
7010723c:	dc14      	bgt.n	70107268 <LL_Busif_SetKeys+0x38>
7010723e:	b951      	cbnz	r1, 70107256 <LL_Busif_SetKeys+0x26>
70107240:	490b      	ldr	r1, [pc, #44]	@ (70107270 <LL_Busif_SetKeys+0x40>)
70107242:	0300      	lsls	r0, r0, #12
70107244:	5042      	str	r2, [r0, r1]
70107246:	4a0b      	ldr	r2, [pc, #44]	@ (70107274 <LL_Busif_SetKeys+0x44>)
70107248:	5083      	str	r3, [r0, r2]
7010724a:	4b0b      	ldr	r3, [pc, #44]	@ (70107278 <LL_Busif_SetKeys+0x48>)
7010724c:	50c5      	str	r5, [r0, r3]
7010724e:	3304      	adds	r3, #4
70107250:	50c4      	str	r4, [r0, r3]
70107252:	2000      	movs	r0, #0
70107254:	bd30      	pop	{r4, r5, pc}
70107256:	2901      	cmp	r1, #1
70107258:	d106      	bne.n	70107268 <LL_Busif_SetKeys+0x38>
7010725a:	4908      	ldr	r1, [pc, #32]	@ (7010727c <LL_Busif_SetKeys+0x4c>)
7010725c:	0300      	lsls	r0, r0, #12
7010725e:	5042      	str	r2, [r0, r1]
70107260:	4a07      	ldr	r2, [pc, #28]	@ (70107280 <LL_Busif_SetKeys+0x50>)
70107262:	5083      	str	r3, [r0, r2]
70107264:	4b07      	ldr	r3, [pc, #28]	@ (70107284 <LL_Busif_SetKeys+0x54>)
70107266:	e7f1      	b.n	7010724c <LL_Busif_SetKeys+0x1c>
70107268:	f04f 30ff 	mov.w	r0, #4294967295
7010726c:	e7f2      	b.n	70107254 <LL_Busif_SetKeys+0x24>
7010726e:	bf00      	nop
70107270:	580e2014 	.word	0x580e2014
70107274:	580e2018 	.word	0x580e2018
70107278:	580e201c 	.word	0x580e201c
7010727c:	580e2024 	.word	0x580e2024
70107280:	580e2028 	.word	0x580e2028
70107284:	580e202c 	.word	0x580e202c

70107288 <LL_EpochCtrl_EncryptionInit>:
70107288:	2800      	cmp	r0, #0
7010728a:	b510      	push	{r4, lr}
7010728c:	dc16      	bgt.n	701072bc <LL_EpochCtrl_EncryptionInit+0x34>
7010728e:	e9d1 3402 	ldrd	r3, r4, [r1, #8]
70107292:	480c      	ldr	r0, [pc, #48]	@ (701072c4 <LL_EpochCtrl_EncryptionInit+0x3c>)
70107294:	690a      	ldr	r2, [r1, #16]
70107296:	6103      	str	r3, [r0, #16]
70107298:	680b      	ldr	r3, [r1, #0]
7010729a:	0352      	lsls	r2, r2, #13
7010729c:	031b      	lsls	r3, r3, #12
7010729e:	f402 5200 	and.w	r2, r2, #8192	@ 0x2000
701072a2:	f403 5380 	and.w	r3, r3, #4096	@ 0x1000
701072a6:	4313      	orrs	r3, r2
701072a8:	694a      	ldr	r2, [r1, #20]
701072aa:	0392      	lsls	r2, r2, #14
701072ac:	b292      	uxth	r2, r2
701072ae:	4313      	orrs	r3, r2
701072b0:	f3c4 020a 	ubfx	r2, r4, #0, #11
701072b4:	4313      	orrs	r3, r2
701072b6:	6143      	str	r3, [r0, #20]
701072b8:	2000      	movs	r0, #0
701072ba:	bd10      	pop	{r4, pc}
701072bc:	f04f 30ff 	mov.w	r0, #4294967295
701072c0:	e7fb      	b.n	701072ba <LL_EpochCtrl_EncryptionInit+0x32>
701072c2:	bf00      	nop
701072c4:	580fe000 	.word	0x580fe000

701072c8 <LL_Dbgtrc_Init>:
701072c8:	b510      	push	{r4, lr}
701072ca:	1e04      	subs	r4, r0, #0
701072cc:	bfd4      	ite	le
701072ce:	201a      	movle	r0, #26
701072d0:	2000      	movgt	r0, #0
701072d2:	f7ff ff8b 	bl	701071ec <LL_ATON_EnableClock>
701072d6:	2c00      	cmp	r4, #0
701072d8:	f04f 0000 	mov.w	r0, #0
701072dc:	dd01      	ble.n	701072e2 <LL_Dbgtrc_Init+0x1a>
701072de:	6000      	str	r0, [r0, #0]
701072e0:	deff      	udf	#255	@ 0xff
701072e2:	2201      	movs	r2, #1
701072e4:	4b01      	ldr	r3, [pc, #4]	@ (701072ec <LL_Dbgtrc_Init+0x24>)
701072e6:	601a      	str	r2, [r3, #0]
701072e8:	bd10      	pop	{r4, pc}
701072ea:	bf00      	nop
701072ec:	580ff000 	.word	0x580ff000

701072f0 <LL_Dbgtrc_Deinit>:
701072f0:	2800      	cmp	r0, #0
701072f2:	b510      	push	{r4, lr}
701072f4:	f04f 0400 	mov.w	r4, #0
701072f8:	dd01      	ble.n	701072fe <LL_Dbgtrc_Deinit+0xe>
701072fa:	6024      	str	r4, [r4, #0]
701072fc:	deff      	udf	#255	@ 0xff
701072fe:	4b03      	ldr	r3, [pc, #12]	@ (7010730c <LL_Dbgtrc_Deinit+0x1c>)
70107300:	201a      	movs	r0, #26
70107302:	601c      	str	r4, [r3, #0]
70107304:	f7ff ff84 	bl	70107210 <LL_ATON_DisableClock>
70107308:	4620      	mov	r0, r4
7010730a:	bd10      	pop	{r4, pc}
7010730c:	580ff000 	.word	0x580ff000

70107310 <LL_Dbgtrc_EnableClock>:
70107310:	4a08      	ldr	r2, [pc, #32]	@ (70107334 <LL_Dbgtrc_EnableClock+0x24>)
70107312:	b530      	push	{r4, r5, lr}
70107314:	6914      	ldr	r4, [r2, #16]
70107316:	2c1f      	cmp	r4, #31
70107318:	d80a      	bhi.n	70107330 <LL_Dbgtrc_EnableClock+0x20>
7010731a:	2001      	movs	r0, #1
7010731c:	2100      	movs	r1, #0
7010731e:	2301      	movs	r3, #1
70107320:	ea50 410d 	lsll	r0, r1, r4
70107324:	6915      	ldr	r5, [r2, #16]
70107326:	40a3      	lsls	r3, r4
70107328:	406b      	eors	r3, r5
7010732a:	4003      	ands	r3, r0
7010732c:	406b      	eors	r3, r5
7010732e:	6113      	str	r3, [r2, #16]
70107330:	bd30      	pop	{r4, r5, pc}
70107332:	bf00      	nop
70107334:	580e0000 	.word	0x580e0000

70107338 <LL_Dbgtrc_DisableClock>:
70107338:	4a02      	ldr	r2, [pc, #8]	@ (70107344 <LL_Dbgtrc_DisableClock+0xc>)
7010733a:	6913      	ldr	r3, [r2, #16]
7010733c:	f023 6380 	bic.w	r3, r3, #67108864	@ 0x4000000
70107340:	6113      	str	r3, [r2, #16]
70107342:	4770      	bx	lr
70107344:	580e0000 	.word	0x580e0000

70107348 <LL_Dbgtrc_Counter_Init>:
70107348:	b570      	push	{r4, r5, r6, lr}
7010734a:	7913      	ldrb	r3, [r2, #4]
7010734c:	7954      	ldrb	r4, [r2, #5]
7010734e:	039b      	lsls	r3, r3, #14
70107350:	0424      	lsls	r4, r4, #16
70107352:	f404 3480 	and.w	r4, r4, #65536	@ 0x10000
70107356:	b29b      	uxth	r3, r3
70107358:	4323      	orrs	r3, r4
7010735a:	f240 34fe 	movw	r4, #1022	@ 0x3fe
7010735e:	2800      	cmp	r0, #0
70107360:	bfcc      	ite	gt
70107362:	2000      	movgt	r0, #0
70107364:	4810      	ldrle	r0, [pc, #64]	@ (701073a8 <LL_Dbgtrc_Counter_Init+0x60>)
70107366:	290f      	cmp	r1, #15
70107368:	bf8e      	itee	hi
7010736a:	2500      	movhi	r5, #0
7010736c:	f101 0510 	addls.w	r5, r1, #16
70107370:	00ad      	lslls	r5, r5, #2
70107372:	290f      	cmp	r1, #15
70107374:	bf88      	it	hi
70107376:	2100      	movhi	r1, #0
70107378:	6816      	ldr	r6, [r2, #0]
7010737a:	bf98      	it	ls
7010737c:	3121      	addls	r1, #33	@ 0x21
7010737e:	ea04 0446 	and.w	r4, r4, r6, lsl #1
70107382:	ea43 0304 	orr.w	r3, r3, r4
70107386:	7994      	ldrb	r4, [r2, #6]
70107388:	bf98      	it	ls
7010738a:	0089      	lslls	r1, r1, #2
7010738c:	0464      	lsls	r4, r4, #17
7010738e:	f404 3400 	and.w	r4, r4, #131072	@ 0x20000
70107392:	431c      	orrs	r4, r3
70107394:	79d3      	ldrb	r3, [r2, #7]
70107396:	049b      	lsls	r3, r3, #18
70107398:	f403 2380 	and.w	r3, r3, #262144	@ 0x40000
7010739c:	4323      	orrs	r3, r4
7010739e:	5143      	str	r3, [r0, r5]
701073a0:	6893      	ldr	r3, [r2, #8]
701073a2:	5043      	str	r3, [r0, r1]
701073a4:	2000      	movs	r0, #0
701073a6:	bd70      	pop	{r4, r5, r6, pc}
701073a8:	580ff000 	.word	0x580ff000

701073ac <LL_Dbgtrc_Counter_Start>:
701073ac:	2800      	cmp	r0, #0
701073ae:	bfcc      	ite	gt
701073b0:	2300      	movgt	r3, #0
701073b2:	4b06      	ldrle	r3, [pc, #24]	@ (701073cc <LL_Dbgtrc_Counter_Start+0x20>)
701073b4:	290f      	cmp	r1, #15
701073b6:	bf8e      	itee	hi
701073b8:	2100      	movhi	r1, #0
701073ba:	3110      	addls	r1, #16
701073bc:	0089      	lslls	r1, r1, #2
701073be:	585a      	ldr	r2, [r3, r1]
701073c0:	2000      	movs	r0, #0
701073c2:	f042 0201 	orr.w	r2, r2, #1
701073c6:	505a      	str	r2, [r3, r1]
701073c8:	4770      	bx	lr
701073ca:	bf00      	nop
701073cc:	580ff000 	.word	0x580ff000

701073d0 <LL_Dbgtrc_Counter_Stop>:
701073d0:	2800      	cmp	r0, #0
701073d2:	bfcc      	ite	gt
701073d4:	2300      	movgt	r3, #0
701073d6:	4b06      	ldrle	r3, [pc, #24]	@ (701073f0 <LL_Dbgtrc_Counter_Stop+0x20>)
701073d8:	290f      	cmp	r1, #15
701073da:	bf8e      	itee	hi
701073dc:	2100      	movhi	r1, #0
701073de:	3110      	addls	r1, #16
701073e0:	0089      	lslls	r1, r1, #2
701073e2:	585a      	ldr	r2, [r3, r1]
701073e4:	2000      	movs	r0, #0
701073e6:	f022 0201 	bic.w	r2, r2, #1
701073ea:	505a      	str	r2, [r3, r1]
701073ec:	4770      	bx	lr
701073ee:	bf00      	nop
701073f0:	580ff000 	.word	0x580ff000

701073f4 <LL_Dbgtrc_Counter_Read>:
701073f4:	2800      	cmp	r0, #0
701073f6:	bfcc      	ite	gt
701073f8:	2300      	movgt	r3, #0
701073fa:	4b04      	ldrle	r3, [pc, #16]	@ (7010740c <LL_Dbgtrc_Counter_Read+0x18>)
701073fc:	290f      	cmp	r1, #15
701073fe:	bf8e      	itee	hi
70107400:	2100      	movhi	r1, #0
70107402:	3121      	addls	r1, #33	@ 0x21
70107404:	0089      	lslls	r1, r1, #2
70107406:	5858      	ldr	r0, [r3, r1]
70107408:	4770      	bx	lr
7010740a:	bf00      	nop
7010740c:	580ff000 	.word	0x580ff000

70107410 <LL_Dbgtrc_Count_StrengActive_Config>:
70107410:	e92d 47ff 	stmdb	sp!, {r0, r1, r2, r3, r4, r5, r6, r7, r8, r9, sl, lr}
70107414:	2400      	movs	r4, #0
70107416:	f04f 0901 	mov.w	r9, #1
7010741a:	4607      	mov	r7, r0
7010741c:	4688      	mov	r8, r1
7010741e:	4615      	mov	r5, r2
70107420:	4626      	mov	r6, r4
70107422:	e9cd 4402 	strd	r4, r4, [sp, #8]
70107426:	f88d 900b 	strb.w	r9, [sp, #11]
7010742a:	fa09 fa06 	lsl.w	sl, r9, r6
7010742e:	ea1a 0f07 	tst.w	sl, r7
70107432:	d008      	beq.n	70107446 <LL_Dbgtrc_Count_StrengActive_Config+0x36>
70107434:	4629      	mov	r1, r5
70107436:	1cb3      	adds	r3, r6, #2
70107438:	2000      	movs	r0, #0
7010743a:	aa01      	add	r2, sp, #4
7010743c:	9301      	str	r3, [sp, #4]
7010743e:	f7ff ff83 	bl	70107348 <LL_Dbgtrc_Counter_Init>
70107442:	3501      	adds	r5, #1
70107444:	3401      	adds	r4, #1
70107446:	ea1a 0f08 	tst.w	sl, r8
7010744a:	d009      	beq.n	70107460 <LL_Dbgtrc_Count_StrengActive_Config+0x50>
7010744c:	4629      	mov	r1, r5
7010744e:	f106 0353 	add.w	r3, r6, #83	@ 0x53
70107452:	2000      	movs	r0, #0
70107454:	aa01      	add	r2, sp, #4
70107456:	9301      	str	r3, [sp, #4]
70107458:	f7ff ff76 	bl	70107348 <LL_Dbgtrc_Counter_Init>
7010745c:	3501      	adds	r5, #1
7010745e:	3401      	adds	r4, #1
70107460:	3601      	adds	r6, #1
70107462:	2e0a      	cmp	r6, #10
70107464:	d1e1      	bne.n	7010742a <LL_Dbgtrc_Count_StrengActive_Config+0x1a>
70107466:	4620      	mov	r0, r4
70107468:	b004      	add	sp, #16
7010746a:	e8bd 87f0 	ldmia.w	sp!, {r4, r5, r6, r7, r8, r9, sl, pc}

7010746e <LL_Dbgtrc_Count_StrengActive_Start>:
7010746e:	b5f8      	push	{r3, r4, r5, r6, r7, lr}
70107470:	2400      	movs	r4, #0
70107472:	2601      	movs	r6, #1
70107474:	ea40 0501 	orr.w	r5, r0, r1
70107478:	fa06 f304 	lsl.w	r3, r6, r4
7010747c:	421d      	tst	r5, r3
7010747e:	d005      	beq.n	7010748c <LL_Dbgtrc_Count_StrengActive_Start+0x1e>
70107480:	4611      	mov	r1, r2
70107482:	1c57      	adds	r7, r2, #1
70107484:	2000      	movs	r0, #0
70107486:	f7ff ff91 	bl	701073ac <LL_Dbgtrc_Counter_Start>
7010748a:	463a      	mov	r2, r7
7010748c:	3401      	adds	r4, #1
7010748e:	2c0a      	cmp	r4, #10
70107490:	d1f2      	bne.n	70107478 <LL_Dbgtrc_Count_StrengActive_Start+0xa>
70107492:	2000      	movs	r0, #0
70107494:	bdf8      	pop	{r3, r4, r5, r6, r7, pc}

70107496 <LL_Dbgtrc_Count_StrengActive_Stop>:
70107496:	b5f8      	push	{r3, r4, r5, r6, r7, lr}
70107498:	2400      	movs	r4, #0
7010749a:	2601      	movs	r6, #1
7010749c:	ea40 0501 	orr.w	r5, r0, r1
701074a0:	fa06 f304 	lsl.w	r3, r6, r4
701074a4:	421d      	tst	r5, r3
701074a6:	d005      	beq.n	701074b4 <LL_Dbgtrc_Count_StrengActive_Stop+0x1e>
701074a8:	4611      	mov	r1, r2
701074aa:	1c57      	adds	r7, r2, #1
701074ac:	2000      	movs	r0, #0
701074ae:	f7ff ff8f 	bl	701073d0 <LL_Dbgtrc_Counter_Stop>
701074b2:	463a      	mov	r2, r7
701074b4:	3401      	adds	r4, #1
701074b6:	2c0a      	cmp	r4, #10
701074b8:	d1f2      	bne.n	701074a0 <LL_Dbgtrc_Count_StrengActive_Stop+0xa>
701074ba:	2000      	movs	r0, #0
701074bc:	bdf8      	pop	{r3, r4, r5, r6, r7, pc}
	...

701074c0 <LL_Dbgtrc_Count_StrengHENV_Config>:
701074c0:	e92d 41ff 	stmdb	sp!, {r0, r1, r2, r3, r4, r5, r6, r7, r8, lr}
701074c4:	2400      	movs	r4, #0
701074c6:	4607      	mov	r7, r0
701074c8:	460e      	mov	r6, r1
701074ca:	4625      	mov	r5, r4
701074cc:	f04f 0801 	mov.w	r8, #1
701074d0:	4b0b      	ldr	r3, [pc, #44]	@ (70107500 <LL_Dbgtrc_Count_StrengHENV_Config+0x40>)
701074d2:	e9cd 3402 	strd	r3, r4, [sp, #8]
701074d6:	fa08 f305 	lsl.w	r3, r8, r5
701074da:	423b      	tst	r3, r7
701074dc:	d009      	beq.n	701074f2 <LL_Dbgtrc_Count_StrengHENV_Config+0x32>
701074de:	4631      	mov	r1, r6
701074e0:	f105 0338 	add.w	r3, r5, #56	@ 0x38
701074e4:	2000      	movs	r0, #0
701074e6:	aa01      	add	r2, sp, #4
701074e8:	9301      	str	r3, [sp, #4]
701074ea:	f7ff ff2d 	bl	70107348 <LL_Dbgtrc_Counter_Init>
701074ee:	3601      	adds	r6, #1
701074f0:	3401      	adds	r4, #1
701074f2:	3501      	adds	r5, #1
701074f4:	2d0a      	cmp	r5, #10
701074f6:	d1ee      	bne.n	701074d6 <LL_Dbgtrc_Count_StrengHENV_Config+0x16>
701074f8:	4620      	mov	r0, r4
701074fa:	b004      	add	sp, #16
701074fc:	e8bd 81f0 	ldmia.w	sp!, {r4, r5, r6, r7, r8, pc}
70107500:	01000001 	.word	0x01000001

70107504 <LL_Dbgtrc_Count_StrengHENV_Start>:
70107504:	b5f8      	push	{r3, r4, r5, r6, r7, lr}
70107506:	4605      	mov	r5, r0
70107508:	2400      	movs	r4, #0
7010750a:	2601      	movs	r6, #1
7010750c:	fa06 f304 	lsl.w	r3, r6, r4
70107510:	422b      	tst	r3, r5
70107512:	d004      	beq.n	7010751e <LL_Dbgtrc_Count_StrengHENV_Start+0x1a>
70107514:	1c4f      	adds	r7, r1, #1
70107516:	2000      	movs	r0, #0
70107518:	f7ff ff48 	bl	701073ac <LL_Dbgtrc_Counter_Start>
7010751c:	4639      	mov	r1, r7
7010751e:	3401      	adds	r4, #1
70107520:	2c0a      	cmp	r4, #10
70107522:	d1f3      	bne.n	7010750c <LL_Dbgtrc_Count_StrengHENV_Start+0x8>
70107524:	2000      	movs	r0, #0
70107526:	bdf8      	pop	{r3, r4, r5, r6, r7, pc}

70107528 <LL_Dbgtrc_Count_StrengHENV_Stop>:
70107528:	f7ff bfec 	b.w	70107504 <LL_Dbgtrc_Count_StrengHENV_Start>

7010752c <LL_Dbgtrc_Count_BurstsLen>:
7010752c:	2a00      	cmp	r2, #0
7010752e:	bf0c      	ite	eq
70107530:	f44f 738e 	moveq.w	r3, #284	@ 0x11c
70107534:	f44f 738a 	movne.w	r3, #276	@ 0x114
70107538:	b5f0      	push	{r4, r5, r6, r7, lr}
7010753a:	2400      	movs	r4, #0
7010753c:	18ce      	adds	r6, r1, r3
7010753e:	2301      	movs	r3, #1
70107540:	b085      	sub	sp, #20
70107542:	4605      	mov	r5, r0
70107544:	4620      	mov	r0, r4
70107546:	e9cd 4402 	strd	r4, r4, [sp, #8]
7010754a:	f88d 3008 	strb.w	r3, [sp, #8]
7010754e:	f7ff febb 	bl	701072c8 <LL_Dbgtrc_Init>
70107552:	1967      	adds	r7, r4, r5
70107554:	eb06 0344 	add.w	r3, r6, r4, lsl #1
70107558:	4639      	mov	r1, r7
7010755a:	aa01      	add	r2, sp, #4
7010755c:	2000      	movs	r0, #0
7010755e:	9301      	str	r3, [sp, #4]
70107560:	3401      	adds	r4, #1
70107562:	f7ff fef1 	bl	70107348 <LL_Dbgtrc_Counter_Init>
70107566:	4639      	mov	r1, r7
70107568:	2000      	movs	r0, #0
7010756a:	f7ff ff1f 	bl	701073ac <LL_Dbgtrc_Counter_Start>
7010756e:	2c04      	cmp	r4, #4
70107570:	d1ef      	bne.n	70107552 <LL_Dbgtrc_Count_BurstsLen+0x26>
70107572:	2000      	movs	r0, #0
70107574:	b005      	add	sp, #20
70107576:	bdf0      	pop	{r4, r5, r6, r7, pc}

70107578 <LL_Dbgtrc_BurstLenBenchStart>:
70107578:	2200      	movs	r2, #0
7010757a:	b510      	push	{r4, lr}
7010757c:	4604      	mov	r4, r0
7010757e:	4611      	mov	r1, r2
70107580:	f7ff ffd4 	bl	7010752c <LL_Dbgtrc_Count_BurstsLen>
70107584:	2201      	movs	r2, #1
70107586:	2100      	movs	r1, #0
70107588:	1d20      	adds	r0, r4, #4
7010758a:	f7ff ffcf 	bl	7010752c <LL_Dbgtrc_Count_BurstsLen>
7010758e:	2200      	movs	r2, #0
70107590:	2101      	movs	r1, #1
70107592:	f104 0008 	add.w	r0, r4, #8
70107596:	f7ff ffc9 	bl	7010752c <LL_Dbgtrc_Count_BurstsLen>
7010759a:	2201      	movs	r2, #1
7010759c:	f104 000c 	add.w	r0, r4, #12
701075a0:	4611      	mov	r1, r2
701075a2:	f7ff ffc3 	bl	7010752c <LL_Dbgtrc_Count_BurstsLen>
701075a6:	2000      	movs	r0, #0
701075a8:	bd10      	pop	{r4, pc}

701075aa <LL_Dbgtrc_BurstLenGet>:
701075aa:	b538      	push	{r3, r4, r5, lr}
701075ac:	2200      	movs	r2, #0
701075ae:	4605      	mov	r5, r0
701075b0:	460c      	mov	r4, r1
701075b2:	18a9      	adds	r1, r5, r2
701075b4:	2000      	movs	r0, #0
701075b6:	f7ff ff1d 	bl	701073f4 <LL_Dbgtrc_Counter_Read>
701075ba:	f844 0022 	str.w	r0, [r4, r2, lsl #2]
701075be:	3201      	adds	r2, #1
701075c0:	2a10      	cmp	r2, #16
701075c2:	d1f6      	bne.n	701075b2 <LL_Dbgtrc_BurstLenGet+0x8>
701075c4:	2000      	movs	r0, #0
701075c6:	bd38      	pop	{r3, r4, r5, pc}

701075c8 <LL_Dbgtrc_GetTotalTranfers>:
701075c8:	b570      	push	{r4, r5, r6, lr}
701075ca:	2400      	movs	r4, #0
701075cc:	b090      	sub	sp, #64	@ 0x40
701075ce:	460e      	mov	r6, r1
701075d0:	6014      	str	r4, [r2, #0]
701075d2:	4669      	mov	r1, sp
701075d4:	4615      	mov	r5, r2
701075d6:	f7ff ffe8 	bl	701075aa <LL_Dbgtrc_BurstLenGet>
701075da:	f04f 0e04 	mov.w	lr, #4
701075de:	4668      	mov	r0, sp
701075e0:	4623      	mov	r3, r4
701075e2:	4621      	mov	r1, r4
701075e4:	f04e e001 	dls	lr, lr
701075e8:	f850 2b04 	ldr.w	r2, [r0], #4
701075ec:	69c4      	ldr	r4, [r0, #28]
701075ee:	4422      	add	r2, r4
701075f0:	408a      	lsls	r2, r1
701075f2:	4413      	add	r3, r2
701075f4:	3101      	adds	r1, #1
701075f6:	f00f c809 	le	lr, 701075e8 <LL_Dbgtrc_GetTotalTranfers+0x20>
701075fa:	f04f 0e04 	mov.w	lr, #4
701075fe:	2100      	movs	r1, #0
70107600:	f04e e001 	dls	lr, lr
70107604:	00db      	lsls	r3, r3, #3
70107606:	6033      	str	r3, [r6, #0]
70107608:	682b      	ldr	r3, [r5, #0]
7010760a:	a803      	add	r0, sp, #12
7010760c:	f850 2f04 	ldr.w	r2, [r0, #4]!
70107610:	6a04      	ldr	r4, [r0, #32]
70107612:	4422      	add	r2, r4
70107614:	408a      	lsls	r2, r1
70107616:	4413      	add	r3, r2
70107618:	3101      	adds	r1, #1
7010761a:	f00f c809 	le	lr, 7010760c <LL_Dbgtrc_GetTotalTranfers+0x44>
7010761e:	2000      	movs	r0, #0
70107620:	00db      	lsls	r3, r3, #3
70107622:	602b      	str	r3, [r5, #0]
70107624:	b010      	add	sp, #64	@ 0x40
70107626:	bd70      	pop	{r4, r5, r6, pc}

70107628 <__LL_ATON_RT_Init_Network>:
70107628:	b510      	push	{r4, lr}
7010762a:	4604      	mov	r4, r0
7010762c:	b310      	cbz	r0, 70107674 <__LL_ATON_RT_Init_Network+0x4c>
7010762e:	6803      	ldr	r3, [r0, #0]
70107630:	b303      	cbz	r3, 70107674 <__LL_ATON_RT_Init_Network+0x4c>
70107632:	69db      	ldr	r3, [r3, #28]
70107634:	4798      	blx	r3
70107636:	2300      	movs	r3, #0
70107638:	6060      	str	r0, [r4, #4]
7010763a:	60a0      	str	r0, [r4, #8]
7010763c:	60e3      	str	r3, [r4, #12]
7010763e:	6123      	str	r3, [r4, #16]
70107640:	6163      	str	r3, [r4, #20]
70107642:	6863      	ldr	r3, [r4, #4]
70107644:	b9a3      	cbnz	r3, 70107670 <__LL_ATON_RT_Init_Network+0x48>
70107646:	461a      	mov	r2, r3
70107648:	6262      	str	r2, [r4, #36]	@ 0x24
7010764a:	2200      	movs	r2, #0
7010764c:	6ae3      	ldr	r3, [r4, #44]	@ 0x2c
7010764e:	62a2      	str	r2, [r4, #40]	@ 0x28
70107650:	7622      	strb	r2, [r4, #24]
70107652:	61e2      	str	r2, [r4, #28]
70107654:	f884 2020 	strb.w	r2, [r4, #32]
70107658:	b163      	cbz	r3, 70107674 <__LL_ATON_RT_Init_Network+0x4c>
7010765a:	4621      	mov	r1, r4
7010765c:	e8bd 4010 	ldmia.w	sp!, {r4, lr}
70107660:	2004      	movs	r0, #4
70107662:	4718      	bx	r3
70107664:	3330      	adds	r3, #48	@ 0x30
70107666:	3201      	adds	r2, #1
70107668:	8a19      	ldrh	r1, [r3, #16]
7010766a:	0709      	lsls	r1, r1, #28
7010766c:	d5fa      	bpl.n	70107664 <__LL_ATON_RT_Init_Network+0x3c>
7010766e:	e7eb      	b.n	70107648 <__LL_ATON_RT_Init_Network+0x20>
70107670:	2201      	movs	r2, #1
70107672:	e7f9      	b.n	70107668 <__LL_ATON_RT_Init_Network+0x40>
70107674:	bd10      	pop	{r4, pc}
	...

70107678 <__LL_ATON_RT_SetWaitMask>:
70107678:	b508      	push	{r3, lr}
7010767a:	4b07      	ldr	r3, [pc, #28]	@ (70107698 <__LL_ATON_RT_SetWaitMask+0x20>)
7010767c:	681b      	ldr	r3, [r3, #0]
7010767e:	b92b      	cbnz	r3, 7010768c <__LL_ATON_RT_SetWaitMask+0x14>
70107680:	2179      	movs	r1, #121	@ 0x79
70107682:	4b06      	ldr	r3, [pc, #24]	@ (7010769c <__LL_ATON_RT_SetWaitMask+0x24>)
70107684:	4a06      	ldr	r2, [pc, #24]	@ (701076a0 <__LL_ATON_RT_SetWaitMask+0x28>)
70107686:	4807      	ldr	r0, [pc, #28]	@ (701076a4 <__LL_ATON_RT_SetWaitMask+0x2c>)
70107688:	f003 fe4c 	bl	7010b324 <__assert_func>
7010768c:	4b06      	ldr	r3, [pc, #24]	@ (701076a8 <__LL_ATON_RT_SetWaitMask+0x30>)
7010768e:	6018      	str	r0, [r3, #0]
70107690:	43c0      	mvns	r0, r0
70107692:	4b06      	ldr	r3, [pc, #24]	@ (701076ac <__LL_ATON_RT_SetWaitMask+0x34>)
70107694:	6258      	str	r0, [r3, #36]	@ 0x24
70107696:	bd08      	pop	{r3, pc}
70107698:	34000dc8 	.word	0x34000dc8
7010769c:	7010d750 	.word	0x7010d750
701076a0:	7010fa0e 	.word	0x7010fa0e
701076a4:	7010d77a 	.word	0x7010d77a
701076a8:	34000dc4 	.word	0x34000dc4
701076ac:	580e1000 	.word	0x580e1000

701076b0 <EpochBlock_EpochControllerUnit>:
701076b0:	b508      	push	{r3, lr}
701076b2:	8a03      	ldrh	r3, [r0, #16]
701076b4:	075b      	lsls	r3, r3, #29
701076b6:	d406      	bmi.n	701076c6 <EpochBlock_EpochControllerUnit+0x16>
701076b8:	f44f 71f2 	mov.w	r1, #484	@ 0x1e4
701076bc:	4b03      	ldr	r3, [pc, #12]	@ (701076cc <EpochBlock_EpochControllerUnit+0x1c>)
701076be:	4a04      	ldr	r2, [pc, #16]	@ (701076d0 <EpochBlock_EpochControllerUnit+0x20>)
701076c0:	4804      	ldr	r0, [pc, #16]	@ (701076d4 <EpochBlock_EpochControllerUnit+0x24>)
701076c2:	f003 fe2f 	bl	7010b324 <__assert_func>
701076c6:	68c0      	ldr	r0, [r0, #12]
701076c8:	bd08      	pop	{r3, pc}
701076ca:	bf00      	nop
701076cc:	7010d7e6 	.word	0x7010d7e6
701076d0:	7010f9ef 	.word	0x7010f9ef
701076d4:	7010d801 	.word	0x7010d801

701076d8 <__ll_clear_aton_owner>:
701076d8:	b538      	push	{r3, r4, r5, lr}
701076da:	4d0e      	ldr	r5, [pc, #56]	@ (70107714 <__ll_clear_aton_owner+0x3c>)
701076dc:	682b      	ldr	r3, [r5, #0]
701076de:	4283      	cmp	r3, r0
701076e0:	d005      	beq.n	701076ee <__ll_clear_aton_owner+0x16>
701076e2:	213c      	movs	r1, #60	@ 0x3c
701076e4:	4b0c      	ldr	r3, [pc, #48]	@ (70107718 <__ll_clear_aton_owner+0x40>)
701076e6:	4a0d      	ldr	r2, [pc, #52]	@ (7010771c <__ll_clear_aton_owner+0x44>)
701076e8:	480d      	ldr	r0, [pc, #52]	@ (70107720 <__ll_clear_aton_owner+0x48>)
701076ea:	f003 fe1b 	bl	7010b324 <__assert_func>
701076ee:	4c0d      	ldr	r4, [pc, #52]	@ (70107724 <__ll_clear_aton_owner+0x4c>)
701076f0:	b149      	cbz	r1, 70107706 <__ll_clear_aton_owner+0x2e>
701076f2:	6823      	ldr	r3, [r4, #0]
701076f4:	b13b      	cbz	r3, 70107706 <__ll_clear_aton_owner+0x2e>
701076f6:	480c      	ldr	r0, [pc, #48]	@ (70107728 <__ll_clear_aton_owner+0x50>)
701076f8:	f004 f8c6 	bl	7010b888 <puts>
701076fc:	2300      	movs	r3, #0
701076fe:	6023      	str	r3, [r4, #0]
70107700:	2300      	movs	r3, #0
70107702:	602b      	str	r3, [r5, #0]
70107704:	bd38      	pop	{r3, r4, r5, pc}
70107706:	6823      	ldr	r3, [r4, #0]
70107708:	2b00      	cmp	r3, #0
7010770a:	d0f9      	beq.n	70107700 <__ll_clear_aton_owner+0x28>
7010770c:	2146      	movs	r1, #70	@ 0x46
7010770e:	4b07      	ldr	r3, [pc, #28]	@ (7010772c <__ll_clear_aton_owner+0x54>)
70107710:	4a02      	ldr	r2, [pc, #8]	@ (7010771c <__ll_clear_aton_owner+0x44>)
70107712:	e7e9      	b.n	701076e8 <__ll_clear_aton_owner+0x10>
70107714:	34000dc8 	.word	0x34000dc8
70107718:	7010d872 	.word	0x7010d872
7010771c:	7010fabb 	.word	0x7010fabb
70107720:	7010d77a 	.word	0x7010d77a
70107724:	34000dc4 	.word	0x34000dc4
70107728:	7010d89e 	.word	0x7010d89e
7010772c:	7010d8d3 	.word	0x7010d8d3

70107730 <__LL_ATON_RT_ExecEndEpochBlock>:
70107730:	6acb      	ldr	r3, [r1, #44]	@ 0x2c
70107732:	b570      	push	{r4, r5, r6, lr}
70107734:	4604      	mov	r4, r0
70107736:	460d      	mov	r5, r1
70107738:	b113      	cbz	r3, 70107740 <__LL_ATON_RT_ExecEndEpochBlock+0x10>
7010773a:	4602      	mov	r2, r0
7010773c:	2002      	movs	r0, #2
7010773e:	4798      	blx	r3
70107740:	8a23      	ldrh	r3, [r4, #16]
70107742:	0758      	lsls	r0, r3, #29
70107744:	d518      	bpl.n	70107778 <__LL_ATON_RT_ExecEndEpochBlock+0x48>
70107746:	4620      	mov	r0, r4
70107748:	f7ff ffb2 	bl	701076b0 <EpochBlock_EpochControllerUnit>
7010774c:	b128      	cbz	r0, 7010775a <__LL_ATON_RT_ExecEndEpochBlock+0x2a>
7010774e:	21db      	movs	r1, #219	@ 0xdb
70107750:	4b20      	ldr	r3, [pc, #128]	@ (701077d4 <__LL_ATON_RT_ExecEndEpochBlock+0xa4>)
70107752:	4a21      	ldr	r2, [pc, #132]	@ (701077d8 <__LL_ATON_RT_ExecEndEpochBlock+0xa8>)
70107754:	4821      	ldr	r0, [pc, #132]	@ (701077dc <__LL_ATON_RT_ExecEndEpochBlock+0xac>)
70107756:	f003 fde5 	bl	7010b324 <__assert_func>
7010775a:	2202      	movs	r2, #2
7010775c:	4b20      	ldr	r3, [pc, #128]	@ (701077e0 <__LL_ATON_RT_ExecEndEpochBlock+0xb0>)
7010775e:	601a      	str	r2, [r3, #0]
70107760:	681a      	ldr	r2, [r3, #0]
70107762:	0791      	lsls	r1, r2, #30
70107764:	d4fc      	bmi.n	70107760 <__LL_ATON_RT_ExecEndEpochBlock+0x30>
70107766:	f04f 4280 	mov.w	r2, #1073741824	@ 0x40000000
7010776a:	601a      	str	r2, [r3, #0]
7010776c:	681a      	ldr	r2, [r3, #0]
7010776e:	0052      	lsls	r2, r2, #1
70107770:	d4fc      	bmi.n	7010776c <__LL_ATON_RT_ExecEndEpochBlock+0x3c>
70107772:	2019      	movs	r0, #25
70107774:	f7ff fd4c 	bl	70107210 <LL_ATON_DisableClock>
70107778:	6863      	ldr	r3, [r4, #4]
7010777a:	b113      	cbz	r3, 70107782 <__LL_ATON_RT_ExecEndEpochBlock+0x52>
7010777c:	4629      	mov	r1, r5
7010777e:	4620      	mov	r0, r4
70107780:	4798      	blx	r3
70107782:	8a23      	ldrh	r3, [r4, #16]
70107784:	06db      	lsls	r3, r3, #27
70107786:	d50e      	bpl.n	701077a6 <__LL_ATON_RT_ExecEndEpochBlock+0x76>
70107788:	4b16      	ldr	r3, [pc, #88]	@ (701077e4 <__LL_ATON_RT_ExecEndEpochBlock+0xb4>)
7010778a:	681b      	ldr	r3, [r3, #0]
7010778c:	42ab      	cmp	r3, r5
7010778e:	d003      	beq.n	70107798 <__LL_ATON_RT_ExecEndEpochBlock+0x68>
70107790:	21f8      	movs	r1, #248	@ 0xf8
70107792:	4b15      	ldr	r3, [pc, #84]	@ (701077e8 <__LL_ATON_RT_ExecEndEpochBlock+0xb8>)
70107794:	4a10      	ldr	r2, [pc, #64]	@ (701077d8 <__LL_ATON_RT_ExecEndEpochBlock+0xa8>)
70107796:	e7dd      	b.n	70107754 <__LL_ATON_RT_ExecEndEpochBlock+0x24>
70107798:	2000      	movs	r0, #0
7010779a:	f7ff ff6d 	bl	70107678 <__LL_ATON_RT_SetWaitMask>
7010779e:	2100      	movs	r1, #0
701077a0:	4628      	mov	r0, r5
701077a2:	f7ff ff99 	bl	701076d8 <__ll_clear_aton_owner>
701077a6:	8a23      	ldrh	r3, [r4, #16]
701077a8:	f003 03c0 	and.w	r3, r3, #192	@ 0xc0
701077ac:	b943      	cbnz	r3, 701077c0 <__LL_ATON_RT_ExecEndEpochBlock+0x90>
701077ae:	4b0d      	ldr	r3, [pc, #52]	@ (701077e4 <__LL_ATON_RT_ExecEndEpochBlock+0xb4>)
701077b0:	681b      	ldr	r3, [r3, #0]
701077b2:	42ab      	cmp	r3, r5
701077b4:	d104      	bne.n	701077c0 <__LL_ATON_RT_ExecEndEpochBlock+0x90>
701077b6:	f240 1101 	movw	r1, #257	@ 0x101
701077ba:	4b0c      	ldr	r3, [pc, #48]	@ (701077ec <__LL_ATON_RT_ExecEndEpochBlock+0xbc>)
701077bc:	4a06      	ldr	r2, [pc, #24]	@ (701077d8 <__LL_ATON_RT_ExecEndEpochBlock+0xa8>)
701077be:	e7c9      	b.n	70107754 <__LL_ATON_RT_ExecEndEpochBlock+0x24>
701077c0:	6aeb      	ldr	r3, [r5, #44]	@ 0x2c
701077c2:	b12b      	cbz	r3, 701077d0 <__LL_ATON_RT_ExecEndEpochBlock+0xa0>
701077c4:	4622      	mov	r2, r4
701077c6:	4629      	mov	r1, r5
701077c8:	e8bd 4070 	ldmia.w	sp!, {r4, r5, r6, lr}
701077cc:	2003      	movs	r0, #3
701077ce:	4718      	bx	r3
701077d0:	bd70      	pop	{r4, r5, r6, pc}
701077d2:	bf00      	nop
701077d4:	7010d8ef 	.word	0x7010d8ef
701077d8:	7010f9d0 	.word	0x7010f9d0
701077dc:	7010d8f8 	.word	0x7010d8f8
701077e0:	580fe000 	.word	0x580fe000
701077e4:	34000dc8 	.word	0x34000dc8
701077e8:	7010d964 	.word	0x7010d964
701077ec:	7010d98e 	.word	0x7010d98e

701077f0 <__LL_ATON_RT_DetermineNextEpochBlock>:
701077f0:	b508      	push	{r3, lr}
701077f2:	b930      	cbnz	r0, 70107802 <__LL_ATON_RT_DetermineNextEpochBlock+0x12>
701077f4:	f44f 7186 	mov.w	r1, #268	@ 0x10c
701077f8:	4b1a      	ldr	r3, [pc, #104]	@ (70107864 <__LL_ATON_RT_DetermineNextEpochBlock+0x74>)
701077fa:	4a1b      	ldr	r2, [pc, #108]	@ (70107868 <__LL_ATON_RT_DetermineNextEpochBlock+0x78>)
701077fc:	481b      	ldr	r0, [pc, #108]	@ (7010786c <__LL_ATON_RT_DetermineNextEpochBlock+0x7c>)
701077fe:	f003 fd91 	bl	7010b324 <__assert_func>
70107802:	69c3      	ldr	r3, [r0, #28]
70107804:	b123      	cbz	r3, 70107810 <__LL_ATON_RT_DetermineNextEpochBlock+0x20>
70107806:	f44f 7187 	mov.w	r1, #270	@ 0x10e
7010780a:	4b19      	ldr	r3, [pc, #100]	@ (70107870 <__LL_ATON_RT_DetermineNextEpochBlock+0x80>)
7010780c:	4a16      	ldr	r2, [pc, #88]	@ (70107868 <__LL_ATON_RT_DetermineNextEpochBlock+0x78>)
7010780e:	e7f5      	b.n	701077fc <__LL_ATON_RT_DetermineNextEpochBlock+0xc>
70107810:	68c3      	ldr	r3, [r0, #12]
70107812:	b313      	cbz	r3, 7010785a <__LL_ATON_RT_DetermineNextEpochBlock+0x6a>
70107814:	6903      	ldr	r3, [r0, #16]
70107816:	b123      	cbz	r3, 70107822 <__LL_ATON_RT_DetermineNextEpochBlock+0x32>
70107818:	f44f 718b 	mov.w	r1, #278	@ 0x116
7010781c:	4b15      	ldr	r3, [pc, #84]	@ (70107874 <__LL_ATON_RT_DetermineNextEpochBlock+0x84>)
7010781e:	4a12      	ldr	r2, [pc, #72]	@ (70107868 <__LL_ATON_RT_DetermineNextEpochBlock+0x78>)
70107820:	e7ec      	b.n	701077fc <__LL_ATON_RT_DetermineNextEpochBlock+0xc>
70107822:	6843      	ldr	r3, [r0, #4]
70107824:	6103      	str	r3, [r0, #16]
70107826:	6883      	ldr	r3, [r0, #8]
70107828:	6143      	str	r3, [r0, #20]
7010782a:	6a43      	ldr	r3, [r0, #36]	@ 0x24
7010782c:	6283      	str	r3, [r0, #40]	@ 0x28
7010782e:	68c3      	ldr	r3, [r0, #12]
70107830:	6043      	str	r3, [r0, #4]
70107832:	68c3      	ldr	r3, [r0, #12]
70107834:	6083      	str	r3, [r0, #8]
70107836:	6883      	ldr	r3, [r0, #8]
70107838:	b96b      	cbnz	r3, 70107856 <__LL_ATON_RT_DetermineNextEpochBlock+0x66>
7010783a:	461a      	mov	r2, r3
7010783c:	2300      	movs	r3, #0
7010783e:	6242      	str	r2, [r0, #36]	@ 0x24
70107840:	60c3      	str	r3, [r0, #12]
70107842:	2300      	movs	r3, #0
70107844:	f880 3020 	strb.w	r3, [r0, #32]
70107848:	bd08      	pop	{r3, pc}
7010784a:	3330      	adds	r3, #48	@ 0x30
7010784c:	3201      	adds	r2, #1
7010784e:	8a19      	ldrh	r1, [r3, #16]
70107850:	0709      	lsls	r1, r1, #28
70107852:	d5fa      	bpl.n	7010784a <__LL_ATON_RT_DetermineNextEpochBlock+0x5a>
70107854:	e7f2      	b.n	7010783c <__LL_ATON_RT_DetermineNextEpochBlock+0x4c>
70107856:	2201      	movs	r2, #1
70107858:	e7f9      	b.n	7010784e <__LL_ATON_RT_DetermineNextEpochBlock+0x5e>
7010785a:	6843      	ldr	r3, [r0, #4]
7010785c:	3330      	adds	r3, #48	@ 0x30
7010785e:	6043      	str	r3, [r0, #4]
70107860:	e7ef      	b.n	70107842 <__LL_ATON_RT_DetermineNextEpochBlock+0x52>
70107862:	bf00      	nop
70107864:	7010d9fc 	.word	0x7010d9fc
70107868:	7010f9ab 	.word	0x7010f9ab
7010786c:	7010d8f8 	.word	0x7010d8f8
70107870:	7010da17 	.word	0x7010da17
70107874:	7010da47 	.word	0x7010da47

70107878 <dump_dma_state>:
70107878:	4770      	bx	lr
	...

7010787c <__LL_ATON_RT_IrqErr>:
7010787c:	b538      	push	{r3, r4, r5, lr}
7010787e:	4604      	mov	r4, r0
70107880:	2800      	cmp	r0, #0
70107882:	d05d      	beq.n	70107940 <__LL_ATON_RT_IrqErr+0xc4>
70107884:	4b2f      	ldr	r3, [pc, #188]	@ (70107944 <__LL_ATON_RT_IrqErr+0xc8>)
70107886:	4003      	ands	r3, r0
70107888:	d009      	beq.n	7010789e <__LL_ATON_RT_IrqErr+0x22>
7010788a:	4259      	negs	r1, r3
7010788c:	4019      	ands	r1, r3
7010788e:	2909      	cmp	r1, #9
70107890:	bfcc      	ite	gt
70107892:	233c      	movgt	r3, #60	@ 0x3c
70107894:	4b2c      	ldrle	r3, [pc, #176]	@ (70107948 <__LL_ATON_RT_IrqErr+0xcc>)
70107896:	482d      	ldr	r0, [pc, #180]	@ (7010794c <__LL_ATON_RT_IrqErr+0xd0>)
70107898:	681a      	ldr	r2, [r3, #0]
7010789a:	f003 ff8d 	bl	7010b7b8 <iprintf>
7010789e:	f3c4 0309 	ubfx	r3, r4, #0, #10
701078a2:	b113      	cbz	r3, 701078aa <__LL_ATON_RT_IrqErr+0x2e>
701078a4:	482a      	ldr	r0, [pc, #168]	@ (70107950 <__LL_ATON_RT_IrqErr+0xd4>)
701078a6:	f003 ffef 	bl	7010b888 <puts>
701078aa:	f414 0f70 	tst.w	r4, #15728640	@ 0xf00000
701078ae:	d002      	beq.n	701078b6 <__LL_ATON_RT_IrqErr+0x3a>
701078b0:	4828      	ldr	r0, [pc, #160]	@ (70107954 <__LL_ATON_RT_IrqErr+0xd8>)
701078b2:	f003 ffe9 	bl	7010b888 <puts>
701078b6:	01e5      	lsls	r5, r4, #7
701078b8:	d502      	bpl.n	701078c0 <__LL_ATON_RT_IrqErr+0x44>
701078ba:	4827      	ldr	r0, [pc, #156]	@ (70107958 <__LL_ATON_RT_IrqErr+0xdc>)
701078bc:	f003 ffe4 	bl	7010b888 <puts>
701078c0:	f014 6fc0 	tst.w	r4, #100663296	@ 0x6000000
701078c4:	d00e      	beq.n	701078e4 <__LL_ATON_RT_IrqErr+0x68>
701078c6:	4825      	ldr	r0, [pc, #148]	@ (7010795c <__LL_ATON_RT_IrqErr+0xe0>)
701078c8:	f003 ffde 	bl	7010b888 <puts>
701078cc:	4b24      	ldr	r3, [pc, #144]	@ (70107960 <__LL_ATON_RT_IrqErr+0xe4>)
701078ce:	2100      	movs	r1, #0
701078d0:	691a      	ldr	r2, [r3, #16]
701078d2:	4824      	ldr	r0, [pc, #144]	@ (70107964 <__LL_ATON_RT_IrqErr+0xe8>)
701078d4:	f003 ff70 	bl	7010b7b8 <iprintf>
701078d8:	4b23      	ldr	r3, [pc, #140]	@ (70107968 <__LL_ATON_RT_IrqErr+0xec>)
701078da:	2101      	movs	r1, #1
701078dc:	691a      	ldr	r2, [r3, #16]
701078de:	4821      	ldr	r0, [pc, #132]	@ (70107964 <__LL_ATON_RT_IrqErr+0xe8>)
701078e0:	f003 ff6a 	bl	7010b7b8 <iprintf>
701078e4:	0120      	lsls	r0, r4, #4
701078e6:	d502      	bpl.n	701078ee <__LL_ATON_RT_IrqErr+0x72>
701078e8:	4820      	ldr	r0, [pc, #128]	@ (7010796c <__LL_ATON_RT_IrqErr+0xf0>)
701078ea:	f003 ffcd 	bl	7010b888 <puts>
701078ee:	0061      	lsls	r1, r4, #1
701078f0:	d50c      	bpl.n	7010790c <__LL_ATON_RT_IrqErr+0x90>
701078f2:	4d1f      	ldr	r5, [pc, #124]	@ (70107970 <__LL_ATON_RT_IrqErr+0xf4>)
701078f4:	481f      	ldr	r0, [pc, #124]	@ (70107974 <__LL_ATON_RT_IrqErr+0xf8>)
701078f6:	68e9      	ldr	r1, [r5, #12]
701078f8:	f003 ff5e 	bl	7010b7b8 <iprintf>
701078fc:	6a29      	ldr	r1, [r5, #32]
701078fe:	481e      	ldr	r0, [pc, #120]	@ (70107978 <__LL_ATON_RT_IrqErr+0xfc>)
70107900:	f003 ff5a 	bl	7010b7b8 <iprintf>
70107904:	69e9      	ldr	r1, [r5, #28]
70107906:	481d      	ldr	r0, [pc, #116]	@ (7010797c <__LL_ATON_RT_IrqErr+0x100>)
70107908:	f003 ff56 	bl	7010b7b8 <iprintf>
7010790c:	00a2      	lsls	r2, r4, #2
7010790e:	d502      	bpl.n	70107916 <__LL_ATON_RT_IrqErr+0x9a>
70107910:	481b      	ldr	r0, [pc, #108]	@ (70107980 <__LL_ATON_RT_IrqErr+0x104>)
70107912:	f003 ffb9 	bl	7010b888 <puts>
70107916:	00e3      	lsls	r3, r4, #3
70107918:	d502      	bpl.n	70107920 <__LL_ATON_RT_IrqErr+0xa4>
7010791a:	481a      	ldr	r0, [pc, #104]	@ (70107984 <__LL_ATON_RT_IrqErr+0x108>)
7010791c:	f003 ffb4 	bl	7010b888 <puts>
70107920:	f7ff ffaa 	bl	70107878 <dump_dma_state>
70107924:	4622      	mov	r2, r4
70107926:	2300      	movs	r3, #0
70107928:	f240 3167 	movw	r1, #871	@ 0x367
7010792c:	4816      	ldr	r0, [pc, #88]	@ (70107988 <__LL_ATON_RT_IrqErr+0x10c>)
7010792e:	f003 ff43 	bl	7010b7b8 <iprintf>
70107932:	f240 316b 	movw	r1, #875	@ 0x36b
70107936:	4b15      	ldr	r3, [pc, #84]	@ (7010798c <__LL_ATON_RT_IrqErr+0x110>)
70107938:	4a15      	ldr	r2, [pc, #84]	@ (70107990 <__LL_ATON_RT_IrqErr+0x114>)
7010793a:	4816      	ldr	r0, [pc, #88]	@ (70107994 <__LL_ATON_RT_IrqErr+0x118>)
7010793c:	f003 fcf2 	bl	7010b324 <__assert_func>
70107940:	bd38      	pop	{r3, r4, r5, pc}
70107942:	bf00      	nop
70107944:	000ffc00 	.word	0x000ffc00
70107948:	580e503c 	.word	0x580e503c
7010794c:	7010da88 	.word	0x7010da88
70107950:	7010dab6 	.word	0x7010dab6
70107954:	7010dadc 	.word	0x7010dadc
70107958:	7010db00 	.word	0x7010db00
7010795c:	7010db20 	.word	0x7010db20
70107960:	580e2000 	.word	0x580e2000
70107964:	7010db38 	.word	0x7010db38
70107968:	580e3000 	.word	0x580e3000
7010796c:	7010db4d 	.word	0x7010db4d
70107970:	580fe000 	.word	0x580fe000
70107974:	7010db65 	.word	0x7010db65
70107978:	7010db99 	.word	0x7010db99
7010797c:	7010dbc3 	.word	0x7010dbc3
70107980:	7010dbe4 	.word	0x7010dbe4
70107984:	7010dc05 	.word	0x7010dc05
70107988:	7010dc20 	.word	0x7010dc20
7010798c:	7010d8ed 	.word	0x7010d8ed
70107990:	7010f987 	.word	0x7010f987
70107994:	7010d8f8 	.word	0x7010d8f8

70107998 <LL_ATON_RT_SetRuntimeCallback>:
70107998:	4b01      	ldr	r3, [pc, #4]	@ (701079a0 <LL_ATON_RT_SetRuntimeCallback+0x8>)
7010799a:	6018      	str	r0, [r3, #0]
7010799c:	4770      	bx	lr
7010799e:	bf00      	nop
701079a0:	34000dc0 	.word	0x34000dc0

701079a4 <LL_ATON_RT_SetNetworkCallback>:
701079a4:	b508      	push	{r3, lr}
701079a6:	b930      	cbnz	r0, 701079b6 <LL_ATON_RT_SetNetworkCallback+0x12>
701079a8:	f44f 71d0 	mov.w	r1, #416	@ 0x1a0
701079ac:	4b03      	ldr	r3, [pc, #12]	@ (701079bc <LL_ATON_RT_SetNetworkCallback+0x18>)
701079ae:	4a04      	ldr	r2, [pc, #16]	@ (701079c0 <LL_ATON_RT_SetNetworkCallback+0x1c>)
701079b0:	4804      	ldr	r0, [pc, #16]	@ (701079c4 <LL_ATON_RT_SetNetworkCallback+0x20>)
701079b2:	f003 fcb7 	bl	7010b324 <__assert_func>
701079b6:	62c1      	str	r1, [r0, #44]	@ 0x2c
701079b8:	bd08      	pop	{r3, pc}
701079ba:	bf00      	nop
701079bc:	7010d9fc 	.word	0x7010d9fc
701079c0:	7010fae9 	.word	0x7010fae9
701079c4:	7010d8f8 	.word	0x7010d8f8

701079c8 <LL_ATON_RT_Init_Network>:
701079c8:	b510      	push	{r4, lr}
701079ca:	4604      	mov	r4, r0
701079cc:	b1b0      	cbz	r0, 701079fc <LL_ATON_RT_Init_Network+0x34>
701079ce:	6803      	ldr	r3, [r0, #0]
701079d0:	b1a3      	cbz	r3, 701079fc <LL_ATON_RT_Init_Network+0x34>
701079d2:	685b      	ldr	r3, [r3, #4]
701079d4:	b933      	cbnz	r3, 701079e4 <LL_ATON_RT_Init_Network+0x1c>
701079d6:	f240 11c3 	movw	r1, #451	@ 0x1c3
701079da:	4b09      	ldr	r3, [pc, #36]	@ (70107a00 <LL_ATON_RT_Init_Network+0x38>)
701079dc:	4a09      	ldr	r2, [pc, #36]	@ (70107a04 <LL_ATON_RT_Init_Network+0x3c>)
701079de:	480a      	ldr	r0, [pc, #40]	@ (70107a08 <LL_ATON_RT_Init_Network+0x40>)
701079e0:	f003 fca0 	bl	7010b324 <__assert_func>
701079e4:	4798      	blx	r3
701079e6:	b920      	cbnz	r0, 701079f2 <LL_ATON_RT_Init_Network+0x2a>
701079e8:	f44f 71e3 	mov.w	r1, #454	@ 0x1c6
701079ec:	4b07      	ldr	r3, [pc, #28]	@ (70107a0c <LL_ATON_RT_Init_Network+0x44>)
701079ee:	4a05      	ldr	r2, [pc, #20]	@ (70107a04 <LL_ATON_RT_Init_Network+0x3c>)
701079f0:	e7f5      	b.n	701079de <LL_ATON_RT_Init_Network+0x16>
701079f2:	4620      	mov	r0, r4
701079f4:	e8bd 4010 	ldmia.w	sp!, {r4, lr}
701079f8:	f7ff be16 	b.w	70107628 <__LL_ATON_RT_Init_Network>
701079fc:	bd10      	pop	{r4, pc}
701079fe:	bf00      	nop
70107a00:	7010dc47 	.word	0x7010dc47
70107a04:	7010fad1 	.word	0x7010fad1
70107a08:	7010d8f8 	.word	0x7010d8f8
70107a0c:	7010dc7c 	.word	0x7010dc7c

70107a10 <LL_ATON_RT_DeInit_Network>:
70107a10:	b510      	push	{r4, lr}
70107a12:	4604      	mov	r4, r0
70107a14:	b1c0      	cbz	r0, 70107a48 <LL_ATON_RT_DeInit_Network+0x38>
70107a16:	6ac3      	ldr	r3, [r0, #44]	@ 0x2c
70107a18:	b11b      	cbz	r3, 70107a22 <LL_ATON_RT_DeInit_Network+0x12>
70107a1a:	4601      	mov	r1, r0
70107a1c:	2200      	movs	r2, #0
70107a1e:	2005      	movs	r0, #5
70107a20:	4798      	blx	r3
70107a22:	4b0a      	ldr	r3, [pc, #40]	@ (70107a4c <LL_ATON_RT_DeInit_Network+0x3c>)
70107a24:	681b      	ldr	r3, [r3, #0]
70107a26:	42a3      	cmp	r3, r4
70107a28:	d103      	bne.n	70107a32 <LL_ATON_RT_DeInit_Network+0x22>
70107a2a:	2101      	movs	r1, #1
70107a2c:	4620      	mov	r0, r4
70107a2e:	f7ff fe53 	bl	701076d8 <__ll_clear_aton_owner>
70107a32:	2300      	movs	r3, #0
70107a34:	6063      	str	r3, [r4, #4]
70107a36:	60a3      	str	r3, [r4, #8]
70107a38:	60e3      	str	r3, [r4, #12]
70107a3a:	6123      	str	r3, [r4, #16]
70107a3c:	6163      	str	r3, [r4, #20]
70107a3e:	6263      	str	r3, [r4, #36]	@ 0x24
70107a40:	62a3      	str	r3, [r4, #40]	@ 0x28
70107a42:	61e3      	str	r3, [r4, #28]
70107a44:	f884 3020 	strb.w	r3, [r4, #32]
70107a48:	bd10      	pop	{r4, pc}
70107a4a:	bf00      	nop
70107a4c:	34000dc8 	.word	0x34000dc8

70107a50 <LL_ATON_RT_Reset_Network>:
70107a50:	b510      	push	{r4, lr}
70107a52:	4604      	mov	r4, r0
70107a54:	f7ff ffdc 	bl	70107a10 <LL_ATON_RT_DeInit_Network>
70107a58:	4620      	mov	r0, r4
70107a5a:	e8bd 4010 	ldmia.w	sp!, {r4, lr}
70107a5e:	f7ff bde3 	b.w	70107628 <__LL_ATON_RT_Init_Network>
	...

70107a64 <LL_ATON_RT_RuntimeInit>:
70107a64:	b510      	push	{r4, lr}
70107a66:	f7ff f8f7 	bl	70106c58 <LL_ATON_Init>
70107a6a:	2202      	movs	r2, #2
70107a6c:	4b1f      	ldr	r3, [pc, #124]	@ (70107aec <LL_ATON_RT_RuntimeInit+0x88>)
70107a6e:	601a      	str	r2, [r3, #0]
70107a70:	681a      	ldr	r2, [r3, #0]
70107a72:	0791      	lsls	r1, r2, #30
70107a74:	d4fc      	bmi.n	70107a70 <LL_ATON_RT_RuntimeInit+0xc>
70107a76:	f04f 4280 	mov.w	r2, #1073741824	@ 0x40000000
70107a7a:	601a      	str	r2, [r3, #0]
70107a7c:	681a      	ldr	r2, [r3, #0]
70107a7e:	0052      	lsls	r2, r2, #1
70107a80:	d4fc      	bmi.n	70107a7c <LL_ATON_RT_RuntimeInit+0x18>
70107a82:	f240 32ff 	movw	r2, #1023	@ 0x3ff
70107a86:	615a      	str	r2, [r3, #20]
70107a88:	f04f 32ff 	mov.w	r2, #4294967295
70107a8c:	625a      	str	r2, [r3, #36]	@ 0x24
70107a8e:	681a      	ldr	r2, [r3, #0]
70107a90:	f042 0201 	orr.w	r2, r2, #1
70107a94:	601a      	str	r2, [r3, #0]
70107a96:	f44f 1200 	mov.w	r2, #2097152	@ 0x200000
70107a9a:	4b15      	ldr	r3, [pc, #84]	@ (70107af0 <LL_ATON_RT_RuntimeInit+0x8c>)
70107a9c:	f8c3 2084 	str.w	r2, [r3, #132]	@ 0x84
70107aa0:	f3bf 8f4f 	dsb	sy
70107aa4:	f3bf 8f6f 	isb	sy
70107aa8:	f44f 0180 	mov.w	r1, #4194304	@ 0x400000
70107aac:	f8c3 1084 	str.w	r1, [r3, #132]	@ 0x84
70107ab0:	f3bf 8f4f 	dsb	sy
70107ab4:	f3bf 8f6f 	isb	sy
70107ab8:	f44f 0100 	mov.w	r1, #8388608	@ 0x800000
70107abc:	f8c3 1084 	str.w	r1, [r3, #132]	@ 0x84
70107ac0:	f3bf 8f4f 	dsb	sy
70107ac4:	f3bf 8f6f 	isb	sy
70107ac8:	f04f 7180 	mov.w	r1, #16777216	@ 0x1000000
70107acc:	f8c3 1084 	str.w	r1, [r3, #132]	@ 0x84
70107ad0:	f3bf 8f4f 	dsb	sy
70107ad4:	f3bf 8f6f 	isb	sy
70107ad8:	605a      	str	r2, [r3, #4]
70107ada:	4b06      	ldr	r3, [pc, #24]	@ (70107af4 <LL_ATON_RT_RuntimeInit+0x90>)
70107adc:	681b      	ldr	r3, [r3, #0]
70107ade:	b11b      	cbz	r3, 70107ae8 <LL_ATON_RT_RuntimeInit+0x84>
70107ae0:	e8bd 4010 	ldmia.w	sp!, {r4, lr}
70107ae4:	2006      	movs	r0, #6
70107ae6:	4718      	bx	r3
70107ae8:	bd10      	pop	{r4, pc}
70107aea:	bf00      	nop
70107aec:	580e1000 	.word	0x580e1000
70107af0:	e000e100 	.word	0xe000e100
70107af4:	34000dc0 	.word	0x34000dc0

70107af8 <LL_ATON_RT_RuntimeDeInit>:
70107af8:	b508      	push	{r3, lr}
70107afa:	4b15      	ldr	r3, [pc, #84]	@ (70107b50 <LL_ATON_RT_RuntimeDeInit+0x58>)
70107afc:	681b      	ldr	r3, [r3, #0]
70107afe:	b10b      	cbz	r3, 70107b04 <LL_ATON_RT_RuntimeDeInit+0xc>
70107b00:	2007      	movs	r0, #7
70107b02:	4798      	blx	r3
70107b04:	f44f 1200 	mov.w	r2, #2097152	@ 0x200000
70107b08:	4b12      	ldr	r3, [pc, #72]	@ (70107b54 <LL_ATON_RT_RuntimeDeInit+0x5c>)
70107b0a:	f8c3 2084 	str.w	r2, [r3, #132]	@ 0x84
70107b0e:	f3bf 8f4f 	dsb	sy
70107b12:	f3bf 8f6f 	isb	sy
70107b16:	f44f 0280 	mov.w	r2, #4194304	@ 0x400000
70107b1a:	f8c3 2084 	str.w	r2, [r3, #132]	@ 0x84
70107b1e:	f3bf 8f4f 	dsb	sy
70107b22:	f3bf 8f6f 	isb	sy
70107b26:	f44f 0200 	mov.w	r2, #8388608	@ 0x800000
70107b2a:	f8c3 2084 	str.w	r2, [r3, #132]	@ 0x84
70107b2e:	f3bf 8f4f 	dsb	sy
70107b32:	f3bf 8f6f 	isb	sy
70107b36:	f04f 7280 	mov.w	r2, #16777216	@ 0x1000000
70107b3a:	f8c3 2084 	str.w	r2, [r3, #132]	@ 0x84
70107b3e:	f3bf 8f4f 	dsb	sy
70107b42:	f3bf 8f6f 	isb	sy
70107b46:	e8bd 4008 	ldmia.w	sp!, {r3, lr}
70107b4a:	f7ff bb21 	b.w	70107190 <LL_ATON_DeInit>
70107b4e:	bf00      	nop
70107b50:	34000dc0 	.word	0x34000dc0
70107b54:	e000e100 	.word	0xe000e100

70107b58 <LL_ATON_RT_RunEpochBlock>:
70107b58:	b573      	push	{r0, r1, r4, r5, r6, lr}
70107b5a:	4604      	mov	r4, r0
70107b5c:	b930      	cbnz	r0, 70107b6c <LL_ATON_RT_RunEpochBlock+0x14>
70107b5e:	f240 215d 	movw	r1, #605	@ 0x25d
70107b62:	4b82      	ldr	r3, [pc, #520]	@ (70107d6c <LL_ATON_RT_RunEpochBlock+0x214>)
70107b64:	4a82      	ldr	r2, [pc, #520]	@ (70107d70 <LL_ATON_RT_RunEpochBlock+0x218>)
70107b66:	4883      	ldr	r0, [pc, #524]	@ (70107d74 <LL_ATON_RT_RunEpochBlock+0x21c>)
70107b68:	f003 fbdc 	bl	7010b324 <__assert_func>
70107b6c:	6843      	ldr	r3, [r0, #4]
70107b6e:	b923      	cbnz	r3, 70107b7a <LL_ATON_RT_RunEpochBlock+0x22>
70107b70:	f44f 7118 	mov.w	r1, #608	@ 0x260
70107b74:	4b80      	ldr	r3, [pc, #512]	@ (70107d78 <LL_ATON_RT_RunEpochBlock+0x220>)
70107b76:	4a7e      	ldr	r2, [pc, #504]	@ (70107d70 <LL_ATON_RT_RunEpochBlock+0x218>)
70107b78:	e7f5      	b.n	70107b66 <LL_ATON_RT_RunEpochBlock+0xe>
70107b7a:	7e03      	ldrb	r3, [r0, #24]
70107b7c:	b98b      	cbnz	r3, 70107ba2 <LL_ATON_RT_RunEpochBlock+0x4a>
70107b7e:	6803      	ldr	r3, [r0, #0]
70107b80:	b10b      	cbz	r3, 70107b86 <LL_ATON_RT_RunEpochBlock+0x2e>
70107b82:	689b      	ldr	r3, [r3, #8]
70107b84:	b923      	cbnz	r3, 70107b90 <LL_ATON_RT_RunEpochBlock+0x38>
70107b86:	f240 2172 	movw	r1, #626	@ 0x272
70107b8a:	4b7c      	ldr	r3, [pc, #496]	@ (70107d7c <LL_ATON_RT_RunEpochBlock+0x224>)
70107b8c:	4a78      	ldr	r2, [pc, #480]	@ (70107d70 <LL_ATON_RT_RunEpochBlock+0x218>)
70107b8e:	e7ea      	b.n	70107b66 <LL_ATON_RT_RunEpochBlock+0xe>
70107b90:	4798      	blx	r3
70107b92:	b920      	cbnz	r0, 70107b9e <LL_ATON_RT_RunEpochBlock+0x46>
70107b94:	f240 2176 	movw	r1, #630	@ 0x276
70107b98:	4b79      	ldr	r3, [pc, #484]	@ (70107d80 <LL_ATON_RT_RunEpochBlock+0x228>)
70107b9a:	4a75      	ldr	r2, [pc, #468]	@ (70107d70 <LL_ATON_RT_RunEpochBlock+0x218>)
70107b9c:	e7e3      	b.n	70107b66 <LL_ATON_RT_RunEpochBlock+0xe>
70107b9e:	2301      	movs	r3, #1
70107ba0:	7623      	strb	r3, [r4, #24]
70107ba2:	6860      	ldr	r0, [r4, #4]
70107ba4:	8a03      	ldrh	r3, [r0, #16]
70107ba6:	075a      	lsls	r2, r3, #29
70107ba8:	d512      	bpl.n	70107bd0 <LL_ATON_RT_RunEpochBlock+0x78>
70107baa:	f7ff fd81 	bl	701076b0 <EpochBlock_EpochControllerUnit>
70107bae:	2301      	movs	r3, #1
70107bb0:	fa03 f000 	lsl.w	r0, r3, r0
70107bb4:	f894 3020 	ldrb.w	r3, [r4, #32]
70107bb8:	f003 06ff 	and.w	r6, r3, #255	@ 0xff
70107bbc:	b343      	cbz	r3, 70107c10 <LL_ATON_RT_RunEpochBlock+0xb8>
70107bbe:	2800      	cmp	r0, #0
70107bc0:	d035      	beq.n	70107c2e <LL_ATON_RT_RunEpochBlock+0xd6>
70107bc2:	69e3      	ldr	r3, [r4, #28]
70107bc4:	ea30 0303 	bics.w	r3, r0, r3
70107bc8:	d004      	beq.n	70107bd4 <LL_ATON_RT_RunEpochBlock+0x7c>
70107bca:	2001      	movs	r0, #1
70107bcc:	b002      	add	sp, #8
70107bce:	bd70      	pop	{r4, r5, r6, pc}
70107bd0:	68c0      	ldr	r0, [r0, #12]
70107bd2:	e7ef      	b.n	70107bb4 <LL_ATON_RT_RunEpochBlock+0x5c>
70107bd4:	4b6b      	ldr	r3, [pc, #428]	@ (70107d84 <LL_ATON_RT_RunEpochBlock+0x22c>)
70107bd6:	681b      	ldr	r3, [r3, #0]
70107bd8:	42a3      	cmp	r3, r4
70107bda:	d004      	beq.n	70107be6 <LL_ATON_RT_RunEpochBlock+0x8e>
70107bdc:	f240 218e 	movw	r1, #654	@ 0x28e
70107be0:	4b69      	ldr	r3, [pc, #420]	@ (70107d88 <LL_ATON_RT_RunEpochBlock+0x230>)
70107be2:	4a63      	ldr	r2, [pc, #396]	@ (70107d70 <LL_ATON_RT_RunEpochBlock+0x218>)
70107be4:	e7bf      	b.n	70107b66 <LL_ATON_RT_RunEpochBlock+0xe>
70107be6:	f44f 1100 	mov.w	r1, #2097152	@ 0x200000
70107bea:	4a68      	ldr	r2, [pc, #416]	@ (70107d8c <LL_ATON_RT_RunEpochBlock+0x234>)
70107bec:	f8c2 1084 	str.w	r1, [r2, #132]	@ 0x84
70107bf0:	f3bf 8f4f 	dsb	sy
70107bf4:	f3bf 8f6f 	isb	sy
70107bf8:	69e3      	ldr	r3, [r4, #28]
70107bfa:	ea23 0300 	bic.w	r3, r3, r0
70107bfe:	61e3      	str	r3, [r4, #28]
70107c00:	6051      	str	r1, [r2, #4]
70107c02:	6860      	ldr	r0, [r4, #4]
70107c04:	4621      	mov	r1, r4
70107c06:	f7ff fd93 	bl	70107730 <__LL_ATON_RT_ExecEndEpochBlock>
70107c0a:	4620      	mov	r0, r4
70107c0c:	f7ff fdf0 	bl	701077f0 <__LL_ATON_RT_DetermineNextEpochBlock>
70107c10:	6863      	ldr	r3, [r4, #4]
70107c12:	8a1b      	ldrh	r3, [r3, #16]
70107c14:	071b      	lsls	r3, r3, #28
70107c16:	d545      	bpl.n	70107ca4 <LL_ATON_RT_RunEpochBlock+0x14c>
70107c18:	6923      	ldr	r3, [r4, #16]
70107c1a:	2b00      	cmp	r3, #0
70107c1c:	f000 810e 	beq.w	70107e3c <LL_ATON_RT_RunEpochBlock+0x2e4>
70107c20:	6863      	ldr	r3, [r4, #4]
70107c22:	b933      	cbnz	r3, 70107c32 <LL_ATON_RT_RunEpochBlock+0xda>
70107c24:	2194      	movs	r1, #148	@ 0x94
70107c26:	4b54      	ldr	r3, [pc, #336]	@ (70107d78 <LL_ATON_RT_RunEpochBlock+0x220>)
70107c28:	4a59      	ldr	r2, [pc, #356]	@ (70107d90 <LL_ATON_RT_RunEpochBlock+0x238>)
70107c2a:	485a      	ldr	r0, [pc, #360]	@ (70107d94 <LL_ATON_RT_RunEpochBlock+0x23c>)
70107c2c:	e79c      	b.n	70107b68 <LL_ATON_RT_RunEpochBlock+0x10>
70107c2e:	4606      	mov	r6, r0
70107c30:	e7ee      	b.n	70107c10 <LL_ATON_RT_RunEpochBlock+0xb8>
70107c32:	6923      	ldr	r3, [r4, #16]
70107c34:	b91b      	cbnz	r3, 70107c3e <LL_ATON_RT_RunEpochBlock+0xe6>
70107c36:	2195      	movs	r1, #149	@ 0x95
70107c38:	4b57      	ldr	r3, [pc, #348]	@ (70107d98 <LL_ATON_RT_RunEpochBlock+0x240>)
70107c3a:	4a55      	ldr	r2, [pc, #340]	@ (70107d90 <LL_ATON_RT_RunEpochBlock+0x238>)
70107c3c:	e7f5      	b.n	70107c2a <LL_ATON_RT_RunEpochBlock+0xd2>
70107c3e:	6863      	ldr	r3, [r4, #4]
70107c40:	8a1b      	ldrh	r3, [r3, #16]
70107c42:	f013 0f80 	tst.w	r3, #128	@ 0x80
70107c46:	6863      	ldr	r3, [r4, #4]
70107c48:	8a1b      	ldrh	r3, [r3, #16]
70107c4a:	d009      	beq.n	70107c60 <LL_ATON_RT_RunEpochBlock+0x108>
70107c4c:	071d      	lsls	r5, r3, #28
70107c4e:	d40d      	bmi.n	70107c6c <LL_ATON_RT_RunEpochBlock+0x114>
70107c50:	4b4c      	ldr	r3, [pc, #304]	@ (70107d84 <LL_ATON_RT_RunEpochBlock+0x22c>)
70107c52:	681b      	ldr	r3, [r3, #0]
70107c54:	429c      	cmp	r4, r3
70107c56:	d009      	beq.n	70107c6c <LL_ATON_RT_RunEpochBlock+0x114>
70107c58:	219a      	movs	r1, #154	@ 0x9a
70107c5a:	4b4b      	ldr	r3, [pc, #300]	@ (70107d88 <LL_ATON_RT_RunEpochBlock+0x230>)
70107c5c:	4a4c      	ldr	r2, [pc, #304]	@ (70107d90 <LL_ATON_RT_RunEpochBlock+0x238>)
70107c5e:	e7e4      	b.n	70107c2a <LL_ATON_RT_RunEpochBlock+0xd2>
70107c60:	0718      	lsls	r0, r3, #28
70107c62:	d403      	bmi.n	70107c6c <LL_ATON_RT_RunEpochBlock+0x114>
70107c64:	219f      	movs	r1, #159	@ 0x9f
70107c66:	4b4d      	ldr	r3, [pc, #308]	@ (70107d9c <LL_ATON_RT_RunEpochBlock+0x244>)
70107c68:	4a49      	ldr	r2, [pc, #292]	@ (70107d90 <LL_ATON_RT_RunEpochBlock+0x238>)
70107c6a:	e7de      	b.n	70107c2a <LL_ATON_RT_RunEpochBlock+0xd2>
70107c6c:	6923      	ldr	r3, [r4, #16]
70107c6e:	8a1b      	ldrh	r3, [r3, #16]
70107c70:	0659      	lsls	r1, r3, #25
70107c72:	d403      	bmi.n	70107c7c <LL_ATON_RT_RunEpochBlock+0x124>
70107c74:	21a1      	movs	r1, #161	@ 0xa1
70107c76:	4b4a      	ldr	r3, [pc, #296]	@ (70107da0 <LL_ATON_RT_RunEpochBlock+0x248>)
70107c78:	4a45      	ldr	r2, [pc, #276]	@ (70107d90 <LL_ATON_RT_RunEpochBlock+0x238>)
70107c7a:	e7d6      	b.n	70107c2a <LL_ATON_RT_RunEpochBlock+0xd2>
70107c7c:	68e3      	ldr	r3, [r4, #12]
70107c7e:	b11b      	cbz	r3, 70107c88 <LL_ATON_RT_RunEpochBlock+0x130>
70107c80:	21a5      	movs	r1, #165	@ 0xa5
70107c82:	4b48      	ldr	r3, [pc, #288]	@ (70107da4 <LL_ATON_RT_RunEpochBlock+0x24c>)
70107c84:	4a42      	ldr	r2, [pc, #264]	@ (70107d90 <LL_ATON_RT_RunEpochBlock+0x238>)
70107c86:	e7d0      	b.n	70107c2a <LL_ATON_RT_RunEpochBlock+0xd2>
70107c88:	6922      	ldr	r2, [r4, #16]
70107c8a:	6062      	str	r2, [r4, #4]
70107c8c:	6962      	ldr	r2, [r4, #20]
70107c8e:	60a2      	str	r2, [r4, #8]
70107c90:	6aa2      	ldr	r2, [r4, #40]	@ 0x28
70107c92:	6262      	str	r2, [r4, #36]	@ 0x24
70107c94:	6123      	str	r3, [r4, #16]
70107c96:	6163      	str	r3, [r4, #20]
70107c98:	62a3      	str	r3, [r4, #40]	@ 0x28
70107c9a:	6863      	ldr	r3, [r4, #4]
70107c9c:	3330      	adds	r3, #48	@ 0x30
70107c9e:	6063      	str	r3, [r4, #4]
70107ca0:	2000      	movs	r0, #0
70107ca2:	e793      	b.n	70107bcc <LL_ATON_RT_RunEpochBlock+0x74>
70107ca4:	2e00      	cmp	r6, #0
70107ca6:	d1fb      	bne.n	70107ca0 <LL_ATON_RT_RunEpochBlock+0x148>
70107ca8:	f894 3020 	ldrb.w	r3, [r4, #32]
70107cac:	2b00      	cmp	r3, #0
70107cae:	f040 80af 	bne.w	70107e10 <LL_ATON_RT_RunEpochBlock+0x2b8>
70107cb2:	2301      	movs	r3, #1
70107cb4:	f884 3020 	strb.w	r3, [r4, #32]
70107cb8:	6865      	ldr	r5, [r4, #4]
70107cba:	68e3      	ldr	r3, [r4, #12]
70107cbc:	b11b      	cbz	r3, 70107cc6 <LL_ATON_RT_RunEpochBlock+0x16e>
70107cbe:	2168      	movs	r1, #104	@ 0x68
70107cc0:	4b38      	ldr	r3, [pc, #224]	@ (70107da4 <LL_ATON_RT_RunEpochBlock+0x24c>)
70107cc2:	4a39      	ldr	r2, [pc, #228]	@ (70107da8 <LL_ATON_RT_RunEpochBlock+0x250>)
70107cc4:	e74f      	b.n	70107b66 <LL_ATON_RT_RunEpochBlock+0xe>
70107cc6:	6ae3      	ldr	r3, [r4, #44]	@ 0x2c
70107cc8:	b11b      	cbz	r3, 70107cd2 <LL_ATON_RT_RunEpochBlock+0x17a>
70107cca:	462a      	mov	r2, r5
70107ccc:	4621      	mov	r1, r4
70107cce:	4630      	mov	r0, r6
70107cd0:	4798      	blx	r3
70107cd2:	8a2e      	ldrh	r6, [r5, #16]
70107cd4:	07f2      	lsls	r2, r6, #31
70107cd6:	d505      	bpl.n	70107ce4 <LL_ATON_RT_RunEpochBlock+0x18c>
70107cd8:	69e3      	ldr	r3, [r4, #28]
70107cda:	b11b      	cbz	r3, 70107ce4 <LL_ATON_RT_RunEpochBlock+0x18c>
70107cdc:	2159      	movs	r1, #89	@ 0x59
70107cde:	4b33      	ldr	r3, [pc, #204]	@ (70107dac <LL_ATON_RT_RunEpochBlock+0x254>)
70107ce0:	4a33      	ldr	r2, [pc, #204]	@ (70107db0 <LL_ATON_RT_RunEpochBlock+0x258>)
70107ce2:	e7a2      	b.n	70107c2a <LL_ATON_RT_RunEpochBlock+0xd2>
70107ce4:	06f3      	lsls	r3, r6, #27
70107ce6:	d515      	bpl.n	70107d14 <LL_ATON_RT_RunEpochBlock+0x1bc>
70107ce8:	4b26      	ldr	r3, [pc, #152]	@ (70107d84 <LL_ATON_RT_RunEpochBlock+0x22c>)
70107cea:	681a      	ldr	r2, [r3, #0]
70107cec:	4294      	cmp	r4, r2
70107cee:	d103      	bne.n	70107cf8 <LL_ATON_RT_RunEpochBlock+0x1a0>
70107cf0:	2128      	movs	r1, #40	@ 0x28
70107cf2:	4b30      	ldr	r3, [pc, #192]	@ (70107db4 <LL_ATON_RT_RunEpochBlock+0x25c>)
70107cf4:	4a30      	ldr	r2, [pc, #192]	@ (70107db8 <LL_ATON_RT_RunEpochBlock+0x260>)
70107cf6:	e798      	b.n	70107c2a <LL_ATON_RT_RunEpochBlock+0xd2>
70107cf8:	681a      	ldr	r2, [r3, #0]
70107cfa:	b11a      	cbz	r2, 70107d04 <LL_ATON_RT_RunEpochBlock+0x1ac>
70107cfc:	212c      	movs	r1, #44	@ 0x2c
70107cfe:	4b2f      	ldr	r3, [pc, #188]	@ (70107dbc <LL_ATON_RT_RunEpochBlock+0x264>)
70107d00:	4a2d      	ldr	r2, [pc, #180]	@ (70107db8 <LL_ATON_RT_RunEpochBlock+0x260>)
70107d02:	e792      	b.n	70107c2a <LL_ATON_RT_RunEpochBlock+0xd2>
70107d04:	4a2e      	ldr	r2, [pc, #184]	@ (70107dc0 <LL_ATON_RT_RunEpochBlock+0x268>)
70107d06:	6812      	ldr	r2, [r2, #0]
70107d08:	b11a      	cbz	r2, 70107d12 <LL_ATON_RT_RunEpochBlock+0x1ba>
70107d0a:	2130      	movs	r1, #48	@ 0x30
70107d0c:	4b2d      	ldr	r3, [pc, #180]	@ (70107dc4 <LL_ATON_RT_RunEpochBlock+0x26c>)
70107d0e:	4a2a      	ldr	r2, [pc, #168]	@ (70107db8 <LL_ATON_RT_RunEpochBlock+0x260>)
70107d10:	e78b      	b.n	70107c2a <LL_ATON_RT_RunEpochBlock+0xd2>
70107d12:	601c      	str	r4, [r3, #0]
70107d14:	0770      	lsls	r0, r6, #29
70107d16:	d416      	bmi.n	70107d46 <LL_ATON_RT_RunEpochBlock+0x1ee>
70107d18:	f016 0f90 	tst.w	r6, #144	@ 0x90
70107d1c:	d00a      	beq.n	70107d34 <LL_ATON_RT_RunEpochBlock+0x1dc>
70107d1e:	4b19      	ldr	r3, [pc, #100]	@ (70107d84 <LL_ATON_RT_RunEpochBlock+0x22c>)
70107d20:	681b      	ldr	r3, [r3, #0]
70107d22:	429c      	cmp	r4, r3
70107d24:	d003      	beq.n	70107d2e <LL_ATON_RT_RunEpochBlock+0x1d6>
70107d26:	217e      	movs	r1, #126	@ 0x7e
70107d28:	4b17      	ldr	r3, [pc, #92]	@ (70107d88 <LL_ATON_RT_RunEpochBlock+0x230>)
70107d2a:	4a1f      	ldr	r2, [pc, #124]	@ (70107da8 <LL_ATON_RT_RunEpochBlock+0x250>)
70107d2c:	e71b      	b.n	70107b66 <LL_ATON_RT_RunEpochBlock+0xe>
70107d2e:	68e8      	ldr	r0, [r5, #12]
70107d30:	f7ff fca2 	bl	70107678 <__LL_ATON_RT_SetWaitMask>
70107d34:	682b      	ldr	r3, [r5, #0]
70107d36:	b163      	cbz	r3, 70107d52 <LL_ATON_RT_RunEpochBlock+0x1fa>
70107d38:	f016 0f60 	tst.w	r6, #96	@ 0x60
70107d3c:	d006      	beq.n	70107d4c <LL_ATON_RT_RunEpochBlock+0x1f4>
70107d3e:	2196      	movs	r1, #150	@ 0x96
70107d40:	4b21      	ldr	r3, [pc, #132]	@ (70107dc8 <LL_ATON_RT_RunEpochBlock+0x270>)
70107d42:	4a19      	ldr	r2, [pc, #100]	@ (70107da8 <LL_ATON_RT_RunEpochBlock+0x250>)
70107d44:	e70f      	b.n	70107b66 <LL_ATON_RT_RunEpochBlock+0xe>
70107d46:	f240 30ff 	movw	r0, #1023	@ 0x3ff
70107d4a:	e7f1      	b.n	70107d30 <LL_ATON_RT_RunEpochBlock+0x1d8>
70107d4c:	4621      	mov	r1, r4
70107d4e:	4628      	mov	r0, r5
70107d50:	4798      	blx	r3
70107d52:	8a2b      	ldrh	r3, [r5, #16]
70107d54:	0759      	lsls	r1, r3, #29
70107d56:	d555      	bpl.n	70107e04 <LL_ATON_RT_RunEpochBlock+0x2ac>
70107d58:	4628      	mov	r0, r5
70107d5a:	f7ff fca9 	bl	701076b0 <EpochBlock_EpochControllerUnit>
70107d5e:	4606      	mov	r6, r0
70107d60:	b3b0      	cbz	r0, 70107dd0 <LL_ATON_RT_RunEpochBlock+0x278>
70107d62:	21ac      	movs	r1, #172	@ 0xac
70107d64:	4b19      	ldr	r3, [pc, #100]	@ (70107dcc <LL_ATON_RT_RunEpochBlock+0x274>)
70107d66:	4a10      	ldr	r2, [pc, #64]	@ (70107da8 <LL_ATON_RT_RunEpochBlock+0x250>)
70107d68:	e6fd      	b.n	70107b66 <LL_ATON_RT_RunEpochBlock+0xe>
70107d6a:	bf00      	nop
70107d6c:	7010d9fc 	.word	0x7010d9fc
70107d70:	7010faa2 	.word	0x7010faa2
70107d74:	7010d8f8 	.word	0x7010d8f8
70107d78:	7010dc85 	.word	0x7010dc85
70107d7c:	7010dcc0 	.word	0x7010dcc0
70107d80:	7010dc7c 	.word	0x7010dc7c
70107d84:	34000dc8 	.word	0x34000dc8
70107d88:	7010dd22 	.word	0x7010dd22
70107d8c:	e000e100 	.word	0xe000e100
70107d90:	7010fa7b 	.word	0x7010fa7b
70107d94:	7010d77a 	.word	0x7010d77a
70107d98:	7010dd4c 	.word	0x7010dd4c
70107d9c:	7010dd8d 	.word	0x7010dd8d
70107da0:	7010ddd6 	.word	0x7010ddd6
70107da4:	7010de22 	.word	0x7010de22
70107da8:	7010fa5a 	.word	0x7010fa5a
70107dac:	7010da17 	.word	0x7010da17
70107db0:	7010fa3b 	.word	0x7010fa3b
70107db4:	7010de5a 	.word	0x7010de5a
70107db8:	7010fa27 	.word	0x7010fa27
70107dbc:	7010de82 	.word	0x7010de82
70107dc0:	34000dc4 	.word	0x34000dc4
70107dc4:	7010d8d3 	.word	0x7010d8d3
70107dc8:	7010deac 	.word	0x7010deac
70107dcc:	7010d8ef 	.word	0x7010d8ef
70107dd0:	f89d 3004 	ldrb.w	r3, [sp, #4]
70107dd4:	4669      	mov	r1, sp
70107dd6:	f360 0300 	bfi	r3, r0, #0, #1
70107dda:	f88d 3004 	strb.w	r3, [sp, #4]
70107dde:	68ab      	ldr	r3, [r5, #8]
70107de0:	9300      	str	r3, [sp, #0]
70107de2:	f7ff f9e7 	bl	701071b4 <LL_EpochCtrl_Init>
70107de6:	8a2b      	ldrh	r3, [r5, #16]
70107de8:	05da      	lsls	r2, r3, #23
70107dea:	d506      	bpl.n	70107dfa <LL_ATON_RT_RunEpochBlock+0x2a2>
70107dec:	6823      	ldr	r3, [r4, #0]
70107dee:	6a9b      	ldr	r3, [r3, #40]	@ 0x28
70107df0:	4798      	blx	r3
70107df2:	4601      	mov	r1, r0
70107df4:	4630      	mov	r0, r6
70107df6:	f7ff fa47 	bl	70107288 <LL_EpochCtrl_EncryptionInit>
70107dfa:	4a11      	ldr	r2, [pc, #68]	@ (70107e40 <LL_ATON_RT_RunEpochBlock+0x2e8>)
70107dfc:	6813      	ldr	r3, [r2, #0]
70107dfe:	f043 0301 	orr.w	r3, r3, #1
70107e02:	6013      	str	r3, [r2, #0]
70107e04:	6ae3      	ldr	r3, [r4, #44]	@ 0x2c
70107e06:	b11b      	cbz	r3, 70107e10 <LL_ATON_RT_RunEpochBlock+0x2b8>
70107e08:	462a      	mov	r2, r5
70107e0a:	4621      	mov	r1, r4
70107e0c:	2001      	movs	r0, #1
70107e0e:	4798      	blx	r3
70107e10:	6860      	ldr	r0, [r4, #4]
70107e12:	8a03      	ldrh	r3, [r0, #16]
70107e14:	075b      	lsls	r3, r3, #29
70107e16:	d50f      	bpl.n	70107e38 <LL_ATON_RT_RunEpochBlock+0x2e0>
70107e18:	f7ff fc4a 	bl	701076b0 <EpochBlock_EpochControllerUnit>
70107e1c:	2301      	movs	r3, #1
70107e1e:	fa03 f000 	lsl.w	r0, r3, r0
70107e22:	2800      	cmp	r0, #0
70107e24:	f47f aed1 	bne.w	70107bca <LL_ATON_RT_RunEpochBlock+0x72>
70107e28:	6860      	ldr	r0, [r4, #4]
70107e2a:	4621      	mov	r1, r4
70107e2c:	f7ff fc80 	bl	70107730 <__LL_ATON_RT_ExecEndEpochBlock>
70107e30:	4620      	mov	r0, r4
70107e32:	f7ff fcdd 	bl	701077f0 <__LL_ATON_RT_DetermineNextEpochBlock>
70107e36:	e733      	b.n	70107ca0 <LL_ATON_RT_RunEpochBlock+0x148>
70107e38:	68c0      	ldr	r0, [r0, #12]
70107e3a:	e7f2      	b.n	70107e22 <LL_ATON_RT_RunEpochBlock+0x2ca>
70107e3c:	2002      	movs	r0, #2
70107e3e:	e6c5      	b.n	70107bcc <LL_ATON_RT_RunEpochBlock+0x74>
70107e40:	580fe000 	.word	0x580fe000

70107e44 <NPU0_IRQHandler>:
70107e44:	b5f8      	push	{r3, r4, r5, r6, r7, lr}
70107e46:	4b38      	ldr	r3, [pc, #224]	@ (70107f28 <NPU0_IRQHandler+0xe4>)
70107e48:	4c38      	ldr	r4, [pc, #224]	@ (70107f2c <NPU0_IRQHandler+0xe8>)
70107e4a:	689d      	ldr	r5, [r3, #8]
70107e4c:	6823      	ldr	r3, [r4, #0]
70107e4e:	b343      	cbz	r3, 70107ea2 <NPU0_IRQHandler+0x5e>
70107e50:	6823      	ldr	r3, [r4, #0]
70107e52:	685b      	ldr	r3, [r3, #4]
70107e54:	b933      	cbnz	r3, 70107e64 <NPU0_IRQHandler+0x20>
70107e56:	f240 31ce 	movw	r1, #974	@ 0x3ce
70107e5a:	4b35      	ldr	r3, [pc, #212]	@ (70107f30 <NPU0_IRQHandler+0xec>)
70107e5c:	4a35      	ldr	r2, [pc, #212]	@ (70107f34 <NPU0_IRQHandler+0xf0>)
70107e5e:	4836      	ldr	r0, [pc, #216]	@ (70107f38 <NPU0_IRQHandler+0xf4>)
70107e60:	f003 fa60 	bl	7010b324 <__assert_func>
70107e64:	6823      	ldr	r3, [r4, #0]
70107e66:	685b      	ldr	r3, [r3, #4]
70107e68:	8a1b      	ldrh	r3, [r3, #16]
70107e6a:	075b      	lsls	r3, r3, #29
70107e6c:	d40c      	bmi.n	70107e88 <NPU0_IRQHandler+0x44>
70107e6e:	f425 707f 	bic.w	r0, r5, #1020	@ 0x3fc
70107e72:	f020 0003 	bic.w	r0, r0, #3
70107e76:	f7ff fd01 	bl	7010787c <__LL_ATON_RT_IrqErr>
70107e7a:	6823      	ldr	r3, [r4, #0]
70107e7c:	b99b      	cbnz	r3, 70107ea6 <NPU0_IRQHandler+0x62>
70107e7e:	f240 31ef 	movw	r1, #1007	@ 0x3ef
70107e82:	4b2e      	ldr	r3, [pc, #184]	@ (70107f3c <NPU0_IRQHandler+0xf8>)
70107e84:	4a2b      	ldr	r2, [pc, #172]	@ (70107f34 <NPU0_IRQHandler+0xf0>)
70107e86:	e7ea      	b.n	70107e5e <NPU0_IRQHandler+0x1a>
70107e88:	6823      	ldr	r3, [r4, #0]
70107e8a:	6858      	ldr	r0, [r3, #4]
70107e8c:	f7ff fc10 	bl	701076b0 <EpochBlock_EpochControllerUnit>
70107e90:	b120      	cbz	r0, 70107e9c <NPU0_IRQHandler+0x58>
70107e92:	f240 31db 	movw	r1, #987	@ 0x3db
70107e96:	4b2a      	ldr	r3, [pc, #168]	@ (70107f40 <NPU0_IRQHandler+0xfc>)
70107e98:	4a26      	ldr	r2, [pc, #152]	@ (70107f34 <NPU0_IRQHandler+0xf0>)
70107e9a:	e7e0      	b.n	70107e5e <NPU0_IRQHandler+0x1a>
70107e9c:	f025 5080 	bic.w	r0, r5, #268435456	@ 0x10000000
70107ea0:	e7e9      	b.n	70107e76 <NPU0_IRQHandler+0x32>
70107ea2:	4628      	mov	r0, r5
70107ea4:	e7e7      	b.n	70107e76 <NPU0_IRQHandler+0x32>
70107ea6:	6823      	ldr	r3, [r4, #0]
70107ea8:	685b      	ldr	r3, [r3, #4]
70107eaa:	8a1b      	ldrh	r3, [r3, #16]
70107eac:	f013 0304 	ands.w	r3, r3, #4
70107eb0:	d123      	bne.n	70107efa <NPU0_IRQHandler+0xb6>
70107eb2:	6822      	ldr	r2, [r4, #0]
70107eb4:	6852      	ldr	r2, [r2, #4]
70107eb6:	68d2      	ldr	r2, [r2, #12]
70107eb8:	402a      	ands	r2, r5
70107eba:	d017      	beq.n	70107eec <NPU0_IRQHandler+0xa8>
70107ebc:	f04f 0c01 	mov.w	ip, #1
70107ec0:	200a      	movs	r0, #10
70107ec2:	6821      	ldr	r1, [r4, #0]
70107ec4:	4e1f      	ldr	r6, [pc, #124]	@ (70107f44 <NPU0_IRQHandler+0x100>)
70107ec6:	69c9      	ldr	r1, [r1, #28]
70107ec8:	fa22 f703 	lsr.w	r7, r2, r3
70107ecc:	07ff      	lsls	r7, r7, #31
70107ece:	d507      	bpl.n	70107ee0 <NPU0_IRQHandler+0x9c>
70107ed0:	031f      	lsls	r7, r3, #12
70107ed2:	f857 e006 	ldr.w	lr, [r7, r6]
70107ed6:	f847 e006 	str.w	lr, [r7, r6]
70107eda:	fa0c f703 	lsl.w	r7, ip, r3
70107ede:	4339      	orrs	r1, r7
70107ee0:	3801      	subs	r0, #1
70107ee2:	f103 0301 	add.w	r3, r3, #1
70107ee6:	d1ef      	bne.n	70107ec8 <NPU0_IRQHandler+0x84>
70107ee8:	6823      	ldr	r3, [r4, #0]
70107eea:	61d9      	str	r1, [r3, #28]
70107eec:	f3bf 8f4f 	dsb	sy
70107ef0:	4b0d      	ldr	r3, [pc, #52]	@ (70107f28 <NPU0_IRQHandler+0xe4>)
70107ef2:	611d      	str	r5, [r3, #16]
70107ef4:	f3bf 8f4f 	dsb	sy
70107ef8:	bdf8      	pop	{r3, r4, r5, r6, r7, pc}
70107efa:	6823      	ldr	r3, [r4, #0]
70107efc:	6858      	ldr	r0, [r3, #4]
70107efe:	f7ff fbd7 	bl	701076b0 <EpochBlock_EpochControllerUnit>
70107f02:	b120      	cbz	r0, 70107f0e <NPU0_IRQHandler+0xca>
70107f04:	f240 31ae 	movw	r1, #942	@ 0x3ae
70107f08:	4b0d      	ldr	r3, [pc, #52]	@ (70107f40 <NPU0_IRQHandler+0xfc>)
70107f0a:	4a0f      	ldr	r2, [pc, #60]	@ (70107f48 <NPU0_IRQHandler+0x104>)
70107f0c:	e7a7      	b.n	70107e5e <NPU0_IRQHandler+0x1a>
70107f0e:	00eb      	lsls	r3, r5, #3
70107f10:	d5ec      	bpl.n	70107eec <NPU0_IRQHandler+0xa8>
70107f12:	4b0e      	ldr	r3, [pc, #56]	@ (70107f4c <NPU0_IRQHandler+0x108>)
70107f14:	68da      	ldr	r2, [r3, #12]
70107f16:	60da      	str	r2, [r3, #12]
70107f18:	6823      	ldr	r3, [r4, #0]
70107f1a:	69db      	ldr	r3, [r3, #28]
70107f1c:	6822      	ldr	r2, [r4, #0]
70107f1e:	f043 0301 	orr.w	r3, r3, #1
70107f22:	61d3      	str	r3, [r2, #28]
70107f24:	e7e2      	b.n	70107eec <NPU0_IRQHandler+0xa8>
70107f26:	bf00      	nop
70107f28:	580e1000 	.word	0x580e1000
70107f2c:	34000dc8 	.word	0x34000dc8
70107f30:	7010deeb 	.word	0x7010deeb
70107f34:	7010f99b 	.word	0x7010f99b
70107f38:	7010d8f8 	.word	0x7010d8f8
70107f3c:	7010d750 	.word	0x7010d750
70107f40:	7010d8ef 	.word	0x7010d8ef
70107f44:	580e503c 	.word	0x580e503c
70107f48:	7010f96d 	.word	0x7010f96d
70107f4c:	580fe000 	.word	0x580fe000

70107f50 <_stai_aton_internal_rt_callback>:
70107f50:	4b04      	ldr	r3, [pc, #16]	@ (70107f64 <_stai_aton_internal_rt_callback+0x14>)
70107f52:	4601      	mov	r1, r0
70107f54:	681b      	ldr	r3, [r3, #0]
70107f56:	b11b      	cbz	r3, 70107f60 <_stai_aton_internal_rt_callback+0x10>
70107f58:	4803      	ldr	r0, [pc, #12]	@ (70107f68 <_stai_aton_internal_rt_callback+0x18>)
70107f5a:	2200      	movs	r2, #0
70107f5c:	6800      	ldr	r0, [r0, #0]
70107f5e:	4718      	bx	r3
70107f60:	4770      	bx	lr
70107f62:	bf00      	nop
70107f64:	34000dd0 	.word	0x34000dd0
70107f68:	34000dcc 	.word	0x34000dcc

70107f6c <_stai_aton_internal_epoch_block_callback>:
70107f6c:	b410      	push	{r4}
70107f6e:	6b0c      	ldr	r4, [r1, #48]	@ 0x30
70107f70:	460b      	mov	r3, r1
70107f72:	b12c      	cbz	r4, 70107f80 <_stai_aton_internal_epoch_block_callback+0x14>
70107f74:	4601      	mov	r1, r0
70107f76:	6b58      	ldr	r0, [r3, #52]	@ 0x34
70107f78:	4623      	mov	r3, r4
70107f7a:	f85d 4b04 	ldr.w	r4, [sp], #4
70107f7e:	4718      	bx	r3
70107f80:	f85d 4b04 	ldr.w	r4, [sp], #4
70107f84:	4770      	bx	lr
	...

70107f88 <stai_runtime_set_callback>:
70107f88:	b508      	push	{r3, lr}
70107f8a:	4b05      	ldr	r3, [pc, #20]	@ (70107fa0 <stai_runtime_set_callback+0x18>)
70107f8c:	6018      	str	r0, [r3, #0]
70107f8e:	4b05      	ldr	r3, [pc, #20]	@ (70107fa4 <stai_runtime_set_callback+0x1c>)
70107f90:	6019      	str	r1, [r3, #0]
70107f92:	b100      	cbz	r0, 70107f96 <stai_runtime_set_callback+0xe>
70107f94:	4804      	ldr	r0, [pc, #16]	@ (70107fa8 <stai_runtime_set_callback+0x20>)
70107f96:	f7ff fcff 	bl	70107998 <LL_ATON_RT_SetRuntimeCallback>
70107f9a:	2000      	movs	r0, #0
70107f9c:	bd08      	pop	{r3, pc}
70107f9e:	bf00      	nop
70107fa0:	34000dd0 	.word	0x34000dd0
70107fa4:	34000dcc 	.word	0x34000dcc
70107fa8:	70107f51 	.word	0x70107f51

70107fac <stai_runtime_init>:
70107fac:	b508      	push	{r3, lr}
70107fae:	f7ff fd59 	bl	70107a64 <LL_ATON_RT_RuntimeInit>
70107fb2:	2000      	movs	r0, #0
70107fb4:	bd08      	pop	{r3, pc}
	...

70107fb8 <stai_runtime_deinit>:
70107fb8:	b510      	push	{r4, lr}
70107fba:	2400      	movs	r4, #0
70107fbc:	f7ff fd9c 	bl	70107af8 <LL_ATON_RT_RuntimeDeInit>
70107fc0:	4b04      	ldr	r3, [pc, #16]	@ (70107fd4 <stai_runtime_deinit+0x1c>)
70107fc2:	4620      	mov	r0, r4
70107fc4:	601c      	str	r4, [r3, #0]
70107fc6:	4b04      	ldr	r3, [pc, #16]	@ (70107fd8 <stai_runtime_deinit+0x20>)
70107fc8:	601c      	str	r4, [r3, #0]
70107fca:	f7ff fce5 	bl	70107998 <LL_ATON_RT_SetRuntimeCallback>
70107fce:	4620      	mov	r0, r4
70107fd0:	bd10      	pop	{r4, pc}
70107fd2:	bf00      	nop
70107fd4:	34000dd0 	.word	0x34000dd0
70107fd8:	34000dcc 	.word	0x34000dcc

70107fdc <stai_runtime_get_info>:
70107fdc:	b530      	push	{r4, r5, lr}
70107fde:	4604      	mov	r4, r0
70107fe0:	b140      	cbz	r0, 70107ff4 <stai_runtime_get_info+0x18>
70107fe2:	4d05      	ldr	r5, [pc, #20]	@ (70107ff8 <stai_runtime_get_info+0x1c>)
70107fe4:	cd0f      	ldmia	r5!, {r0, r1, r2, r3}
70107fe6:	c40f      	stmia	r4!, {r0, r1, r2, r3}
70107fe8:	e895 0003 	ldmia.w	r5, {r0, r1}
70107fec:	e884 0003 	stmia.w	r4, {r0, r1}
70107ff0:	2000      	movs	r0, #0
70107ff2:	bd30      	pop	{r4, r5, pc}
70107ff4:	4801      	ldr	r0, [pc, #4]	@ (70107ffc <stai_runtime_get_info+0x20>)
70107ff6:	e7fc      	b.n	70107ff2 <stai_runtime_get_info+0x16>
70107ff8:	7010fb1c 	.word	0x7010fb1c
70107ffc:	00020001 	.word	0x00020001

70108000 <__ll_aton_stai_init_network_instance>:
70108000:	f7ff bce2 	b.w	701079c8 <LL_ATON_RT_Init_Network>

70108004 <__ll_aton_stai_deinit_network_instance>:
70108004:	f7ff bd04 	b.w	70107a10 <LL_ATON_RT_DeInit_Network>

70108008 <__ll_aton_stai_set_execution_status>:
70108008:	2801      	cmp	r0, #1
7010800a:	d005      	beq.n	70108018 <__ll_aton_stai_set_execution_status+0x10>
7010800c:	2802      	cmp	r0, #2
7010800e:	d005      	beq.n	7010801c <__ll_aton_stai_set_execution_status+0x14>
70108010:	b908      	cbnz	r0, 70108016 <__ll_aton_stai_set_execution_status+0xe>
70108012:	2310      	movs	r3, #16
70108014:	638b      	str	r3, [r1, #56]	@ 0x38
70108016:	4770      	bx	lr
70108018:	2311      	movs	r3, #17
7010801a:	e7fb      	b.n	70108014 <__ll_aton_stai_set_execution_status+0xc>
7010801c:	2312      	movs	r3, #18
7010801e:	e7f9      	b.n	70108014 <__ll_aton_stai_set_execution_status+0xc>

70108020 <__ll_aton_stai_get_execution_status>:
70108020:	6b80      	ldr	r0, [r0, #56]	@ 0x38
70108022:	4770      	bx	lr

70108024 <__ll_aton_stai_reset>:
70108024:	b510      	push	{r4, lr}
70108026:	b128      	cbz	r0, 70108034 <__ll_aton_stai_reset+0x10>
70108028:	6802      	ldr	r2, [r0, #0]
7010802a:	b952      	cbnz	r2, 70108042 <__ll_aton_stai_reset+0x1e>
7010802c:	6bc2      	ldr	r2, [r0, #60]	@ 0x3c
7010802e:	f5b2 3f00 	cmp.w	r2, #131072	@ 0x20000
70108032:	d302      	bcc.n	7010803a <__ll_aton_stai_reset+0x16>
70108034:	f44f 3040 	mov.w	r0, #196608	@ 0x30000
70108038:	bd10      	pop	{r4, pc}
7010803a:	f44f 3240 	mov.w	r2, #196608	@ 0x30000
7010803e:	63c2      	str	r2, [r0, #60]	@ 0x3c
70108040:	e7f8      	b.n	70108034 <__ll_aton_stai_reset+0x10>
70108042:	6b82      	ldr	r2, [r0, #56]	@ 0x38
70108044:	f022 0202 	bic.w	r2, r2, #2
70108048:	2a10      	cmp	r2, #16
7010804a:	d009      	beq.n	70108060 <__ll_aton_stai_reset+0x3c>
7010804c:	6bc2      	ldr	r2, [r0, #60]	@ 0x3c
7010804e:	f5b2 3f00 	cmp.w	r2, #131072	@ 0x20000
70108052:	bf3c      	itt	cc
70108054:	f44f 22a0 	movcc.w	r2, #327680	@ 0x50000
70108058:	63c2      	strcc	r2, [r0, #60]	@ 0x3c
7010805a:	f44f 20a0 	mov.w	r0, #327680	@ 0x50000
7010805e:	e7eb      	b.n	70108038 <__ll_aton_stai_reset+0x14>
70108060:	2400      	movs	r4, #0
70108062:	6384      	str	r4, [r0, #56]	@ 0x38
70108064:	f7ff fcf4 	bl	70107a50 <LL_ATON_RT_Reset_Network>
70108068:	4620      	mov	r0, r4
7010806a:	e7e5      	b.n	70108038 <__ll_aton_stai_reset+0x14>

7010806c <__ll_aton_stai_run>:
7010806c:	b538      	push	{r3, r4, r5, lr}
7010806e:	6843      	ldr	r3, [r0, #4]
70108070:	4604      	mov	r4, r0
70108072:	460d      	mov	r5, r1
70108074:	b93b      	cbnz	r3, 70108086 <__ll_aton_stai_run+0x1a>
70108076:	6be3      	ldr	r3, [r4, #60]	@ 0x3c
70108078:	f5b3 3f00 	cmp.w	r3, #131072	@ 0x20000
7010807c:	d201      	bcs.n	70108082 <__ll_aton_stai_run+0x16>
7010807e:	4b1b      	ldr	r3, [pc, #108]	@ (701080ec <__ll_aton_stai_run+0x80>)
70108080:	63e3      	str	r3, [r4, #60]	@ 0x3c
70108082:	481a      	ldr	r0, [pc, #104]	@ (701080ec <__ll_aton_stai_run+0x80>)
70108084:	e011      	b.n	701080aa <__ll_aton_stai_run+0x3e>
70108086:	2300      	movs	r3, #0
70108088:	6b01      	ldr	r1, [r0, #48]	@ 0x30
7010808a:	63c3      	str	r3, [r0, #60]	@ 0x3c
7010808c:	b101      	cbz	r1, 70108090 <__ll_aton_stai_run+0x24>
7010808e:	4918      	ldr	r1, [pc, #96]	@ (701080f0 <__ll_aton_stai_run+0x84>)
70108090:	f7ff fc88 	bl	701079a4 <LL_ATON_RT_SetNetworkCallback>
70108094:	2d01      	cmp	r5, #1
70108096:	d009      	beq.n	701080ac <__ll_aton_stai_run+0x40>
70108098:	2d02      	cmp	r5, #2
7010809a:	d1ec      	bne.n	70108076 <__ll_aton_stai_run+0xa>
7010809c:	4620      	mov	r0, r4
7010809e:	f7ff fd5b 	bl	70107b58 <LL_ATON_RT_RunEpochBlock>
701080a2:	4621      	mov	r1, r4
701080a4:	f7ff ffb0 	bl	70108008 <__ll_aton_stai_set_execution_status>
701080a8:	6ba0      	ldr	r0, [r4, #56]	@ 0x38
701080aa:	bd38      	pop	{r3, r4, r5, pc}
701080ac:	4620      	mov	r0, r4
701080ae:	f7ff fd53 	bl	70107b58 <LL_ATON_RT_RunEpochBlock>
701080b2:	4621      	mov	r1, r4
701080b4:	f7ff ffa8 	bl	70108008 <__ll_aton_stai_set_execution_status>
701080b8:	2801      	cmp	r0, #1
701080ba:	d101      	bne.n	701080c0 <__ll_aton_stai_run+0x54>
701080bc:	bf20      	wfe
701080be:	e7f5      	b.n	701080ac <__ll_aton_stai_run+0x40>
701080c0:	2802      	cmp	r0, #2
701080c2:	d1f3      	bne.n	701080ac <__ll_aton_stai_run+0x40>
701080c4:	6ba3      	ldr	r3, [r4, #56]	@ 0x38
701080c6:	2b12      	cmp	r3, #18
701080c8:	d006      	beq.n	701080d8 <__ll_aton_stai_run+0x6c>
701080ca:	f240 11b3 	movw	r1, #435	@ 0x1b3
701080ce:	4b09      	ldr	r3, [pc, #36]	@ (701080f4 <__ll_aton_stai_run+0x88>)
701080d0:	4a09      	ldr	r2, [pc, #36]	@ (701080f8 <__ll_aton_stai_run+0x8c>)
701080d2:	480a      	ldr	r0, [pc, #40]	@ (701080fc <__ll_aton_stai_run+0x90>)
701080d4:	f003 f926 	bl	7010b324 <__assert_func>
701080d8:	4620      	mov	r0, r4
701080da:	f7ff ffa3 	bl	70108024 <__ll_aton_stai_reset>
701080de:	2800      	cmp	r0, #0
701080e0:	d0e3      	beq.n	701080aa <__ll_aton_stai_run+0x3e>
701080e2:	f240 11b5 	movw	r1, #437	@ 0x1b5
701080e6:	4b06      	ldr	r3, [pc, #24]	@ (70108100 <__ll_aton_stai_run+0x94>)
701080e8:	4a03      	ldr	r2, [pc, #12]	@ (701080f8 <__ll_aton_stai_run+0x8c>)
701080ea:	e7f2      	b.n	701080d2 <__ll_aton_stai_run+0x66>
701080ec:	00020001 	.word	0x00020001
701080f0:	70107f6d 	.word	0x70107f6d
701080f4:	7010df35 	.word	0x7010df35
701080f8:	7010fb07 	.word	0x7010fb07
701080fc:	7010df5a 	.word	0x7010df5a
70108100:	7010dfcc 	.word	0x7010dfcc

70108104 <mcu_cache_clean_invalidate>:
70108104:	4a14      	ldr	r2, [pc, #80]	@ (70108158 <mcu_cache_clean_invalidate+0x54>)
70108106:	b570      	push	{r4, r5, r6, lr}
70108108:	6953      	ldr	r3, [r2, #20]
7010810a:	03db      	lsls	r3, r3, #15
7010810c:	d523      	bpl.n	70108156 <mcu_cache_clean_invalidate+0x52>
7010810e:	2300      	movs	r3, #0
70108110:	f8c2 3084 	str.w	r3, [r2, #132]	@ 0x84
70108114:	f3bf 8f4f 	dsb	sy
70108118:	f643 74e0 	movw	r4, #16352	@ 0x3fe0
7010811c:	f8d2 3080 	ldr.w	r3, [r2, #128]	@ 0x80
70108120:	f3c3 00c9 	ubfx	r0, r3, #3, #10
70108124:	f3c3 334e 	ubfx	r3, r3, #13, #15
70108128:	015b      	lsls	r3, r3, #5
7010812a:	f100 0e01 	add.w	lr, r0, #1
7010812e:	4601      	mov	r1, r0
70108130:	f04e e001 	dls	lr, lr
70108134:	ea03 0604 	and.w	r6, r3, r4
70108138:	ea46 7581 	orr.w	r5, r6, r1, lsl #30
7010813c:	f8c2 5274 	str.w	r5, [r2, #628]	@ 0x274
70108140:	3901      	subs	r1, #1
70108142:	f00f c807 	le	lr, 70108138 <mcu_cache_clean_invalidate+0x34>
70108146:	3b20      	subs	r3, #32
70108148:	f113 0f20 	cmn.w	r3, #32
7010814c:	d1ed      	bne.n	7010812a <mcu_cache_clean_invalidate+0x26>
7010814e:	f3bf 8f4f 	dsb	sy
70108152:	f3bf 8f6f 	isb	sy
70108156:	bd70      	pop	{r4, r5, r6, pc}
70108158:	e000ed00 	.word	0xe000ed00

7010815c <mcu_cache_invalidate_range>:
7010815c:	b510      	push	{r4, lr}
7010815e:	4c13      	ldr	r4, [pc, #76]	@ (701081ac <mcu_cache_invalidate_range+0x50>)
70108160:	6963      	ldr	r3, [r4, #20]
70108162:	03db      	lsls	r3, r3, #15
70108164:	d521      	bpl.n	701081aa <mcu_cache_invalidate_range+0x4e>
70108166:	1a0a      	subs	r2, r1, r0
70108168:	2a00      	cmp	r2, #0
7010816a:	dd1e      	ble.n	701081aa <mcu_cache_invalidate_range+0x4e>
7010816c:	f000 031f 	and.w	r3, r0, #31
70108170:	441a      	add	r2, r3
70108172:	f3bf 8f4f 	dsb	sy
70108176:	ea6f 0e00 	mvn.w	lr, r0
7010817a:	1a1b      	subs	r3, r3, r0
7010817c:	4402      	add	r2, r0
7010817e:	440b      	add	r3, r1
70108180:	4496      	add	lr, r2
70108182:	3b20      	subs	r3, #32
70108184:	ea4f 1e5e 	mov.w	lr, lr, lsr #5
70108188:	3320      	adds	r3, #32
7010818a:	f10e 0e01 	add.w	lr, lr, #1
7010818e:	bfd8      	it	le
70108190:	f04f 0e01 	movle.w	lr, #1
70108194:	f04e e001 	dls	lr, lr
70108198:	f8c4 025c 	str.w	r0, [r4, #604]	@ 0x25c
7010819c:	3020      	adds	r0, #32
7010819e:	f00f c805 	le	lr, 70108198 <mcu_cache_invalidate_range+0x3c>
701081a2:	f3bf 8f4f 	dsb	sy
701081a6:	f3bf 8f6f 	isb	sy
701081aa:	bd10      	pop	{r4, pc}
701081ac:	e000ed00 	.word	0xe000ed00

701081b0 <mcu_cache_clean_range>:
701081b0:	b510      	push	{r4, lr}
701081b2:	4c13      	ldr	r4, [pc, #76]	@ (70108200 <mcu_cache_clean_range+0x50>)
701081b4:	6963      	ldr	r3, [r4, #20]
701081b6:	03db      	lsls	r3, r3, #15
701081b8:	d521      	bpl.n	701081fe <mcu_cache_clean_range+0x4e>
701081ba:	1a0a      	subs	r2, r1, r0
701081bc:	2a00      	cmp	r2, #0
701081be:	dd1e      	ble.n	701081fe <mcu_cache_clean_range+0x4e>
701081c0:	f000 031f 	and.w	r3, r0, #31
701081c4:	441a      	add	r2, r3
701081c6:	f3bf 8f4f 	dsb	sy
701081ca:	ea6f 0e00 	mvn.w	lr, r0
701081ce:	1a1b      	subs	r3, r3, r0
701081d0:	4402      	add	r2, r0
701081d2:	440b      	add	r3, r1
701081d4:	4496      	add	lr, r2
701081d6:	3b20      	subs	r3, #32
701081d8:	ea4f 1e5e 	mov.w	lr, lr, lsr #5
701081dc:	3320      	adds	r3, #32
701081de:	f10e 0e01 	add.w	lr, lr, #1
701081e2:	bfd8      	it	le
701081e4:	f04f 0e01 	movle.w	lr, #1
701081e8:	f04e e001 	dls	lr, lr
701081ec:	f8c4 0268 	str.w	r0, [r4, #616]	@ 0x268
701081f0:	3020      	adds	r0, #32
701081f2:	f00f c805 	le	lr, 701081ec <mcu_cache_clean_range+0x3c>
701081f6:	f3bf 8f4f 	dsb	sy
701081fa:	f3bf 8f6f 	isb	sy
701081fe:	bd10      	pop	{r4, pc}
70108200:	e000ed00 	.word	0xe000ed00

70108204 <mcu_cache_clean_invalidate_range>:
70108204:	b510      	push	{r4, lr}
70108206:	4c13      	ldr	r4, [pc, #76]	@ (70108254 <mcu_cache_clean_invalidate_range+0x50>)
70108208:	6963      	ldr	r3, [r4, #20]
7010820a:	03db      	lsls	r3, r3, #15
7010820c:	d521      	bpl.n	70108252 <mcu_cache_clean_invalidate_range+0x4e>
7010820e:	1a0a      	subs	r2, r1, r0
70108210:	2a00      	cmp	r2, #0
70108212:	dd1e      	ble.n	70108252 <mcu_cache_clean_invalidate_range+0x4e>
70108214:	f000 031f 	and.w	r3, r0, #31
70108218:	441a      	add	r2, r3
7010821a:	f3bf 8f4f 	dsb	sy
7010821e:	ea6f 0e00 	mvn.w	lr, r0
70108222:	1a1b      	subs	r3, r3, r0
70108224:	4402      	add	r2, r0
70108226:	440b      	add	r3, r1
70108228:	4496      	add	lr, r2
7010822a:	3b20      	subs	r3, #32
7010822c:	ea4f 1e5e 	mov.w	lr, lr, lsr #5
70108230:	3320      	adds	r3, #32
70108232:	f10e 0e01 	add.w	lr, lr, #1
70108236:	bfd8      	it	le
70108238:	f04f 0e01 	movle.w	lr, #1
7010823c:	f04e e001 	dls	lr, lr
70108240:	f8c4 0270 	str.w	r0, [r4, #624]	@ 0x270
70108244:	3020      	adds	r0, #32
70108246:	f00f c805 	le	lr, 70108240 <mcu_cache_clean_invalidate_range+0x3c>
7010824a:	f3bf 8f4f 	dsb	sy
7010824e:	f3bf 8f6f 	isb	sy
70108252:	bd10      	pop	{r4, pc}
70108254:	e000ed00 	.word	0xe000ed00

70108258 <write_callback>:
70108258:	e92d 41f0 	stmdb	sp!, {r4, r5, r6, r7, r8, lr}
7010825c:	2001      	movs	r0, #1
7010825e:	460e      	mov	r6, r1
70108260:	4614      	mov	r4, r2
70108262:	f04f 0800 	mov.w	r8, #0
70108266:	4f10      	ldr	r7, [pc, #64]	@ (701082a8 <write_callback+0x50>)
70108268:	4d10      	ldr	r5, [pc, #64]	@ (701082ac <write_callback+0x54>)
7010826a:	b184      	cbz	r4, 7010828e <write_callback+0x36>
7010826c:	8839      	ldrh	r1, [r7, #0]
7010826e:	1c62      	adds	r2, r4, #1
70108270:	e008      	b.n	70108284 <write_callback+0x2c>
70108272:	f816 eb01 	ldrb.w	lr, [r6], #1
70108276:	eb05 0c03 	add.w	ip, r5, r3
7010827a:	3301      	adds	r3, #1
7010827c:	f88c e002 	strb.w	lr, [ip, #2]
70108280:	3c01      	subs	r4, #1
70108282:	802b      	strh	r3, [r5, #0]
70108284:	882b      	ldrh	r3, [r5, #0]
70108286:	428b      	cmp	r3, r1
70108288:	d203      	bcs.n	70108292 <write_callback+0x3a>
7010828a:	3a01      	subs	r2, #1
7010828c:	d1f1      	bne.n	70108272 <write_callback+0x1a>
7010828e:	e8bd 81f0 	ldmia.w	sp!, {r4, r5, r6, r7, r8, pc}
70108292:	d1ea      	bne.n	7010826a <write_callback+0x12>
70108294:	ba4b      	rev16	r3, r1
70108296:	4628      	mov	r0, r5
70108298:	3102      	adds	r1, #2
7010829a:	802b      	strh	r3, [r5, #0]
7010829c:	f7fd ffda 	bl	70106254 <ioRawWriteBuffer>
701082a0:	f8a5 8000 	strh.w	r8, [r5]
701082a4:	e7e1      	b.n	7010826a <write_callback+0x12>
701082a6:	bf00      	nop
701082a8:	3400000e 	.word	0x3400000e
701082ac:	34000dfa 	.word	0x34000dfa

701082b0 <read_packet>:
701082b0:	4b07      	ldr	r3, [pc, #28]	@ (701082d0 <read_packet+0x20>)
701082b2:	b510      	push	{r4, lr}
701082b4:	8819      	ldrh	r1, [r3, #0]
701082b6:	4c07      	ldr	r4, [pc, #28]	@ (701082d4 <read_packet+0x24>)
701082b8:	3102      	adds	r1, #2
701082ba:	4620      	mov	r0, r4
701082bc:	f7fd ffd8 	bl	70106270 <ioRawReadBuffer>
701082c0:	2200      	movs	r2, #0
701082c2:	4b05      	ldr	r3, [pc, #20]	@ (701082d8 <read_packet+0x28>)
701082c4:	601a      	str	r2, [r3, #0]
701082c6:	8823      	ldrh	r3, [r4, #0]
701082c8:	ba5b      	rev16	r3, r3
701082ca:	8023      	strh	r3, [r4, #0]
701082cc:	bd10      	pop	{r4, pc}
701082ce:	bf00      	nop
701082d0:	3400000e 	.word	0x3400000e
701082d4:	34000dd8 	.word	0x34000dd8
701082d8:	34000dd4 	.word	0x34000dd4

701082dc <read_callback>:
701082dc:	b5f7      	push	{r0, r1, r2, r4, r5, r6, r7, lr}
701082de:	460c      	mov	r4, r1
701082e0:	4615      	mov	r5, r2
701082e2:	b342      	cbz	r2, 70108336 <read_callback+0x5a>
701082e4:	f64f 73ff 	movw	r3, #65535	@ 0xffff
701082e8:	4e1c      	ldr	r6, [pc, #112]	@ (7010835c <read_callback+0x80>)
701082ea:	8832      	ldrh	r2, [r6, #0]
701082ec:	429a      	cmp	r2, r3
701082ee:	d007      	beq.n	70108300 <read_callback+0x24>
701082f0:	4f1b      	ldr	r7, [pc, #108]	@ (70108360 <read_callback+0x84>)
701082f2:	683b      	ldr	r3, [r7, #0]
701082f4:	2100      	movs	r1, #0
701082f6:	1c5a      	adds	r2, r3, #1
701082f8:	4432      	add	r2, r6
701082fa:	1b1b      	subs	r3, r3, r4
701082fc:	1c68      	adds	r0, r5, #1
701082fe:	e00e      	b.n	7010831e <read_callback+0x42>
70108300:	f7ff ffd6 	bl	701082b0 <read_packet>
70108304:	2800      	cmp	r0, #0
70108306:	d1f3      	bne.n	701082f0 <read_callback+0x14>
70108308:	b003      	add	sp, #12
7010830a:	bdf0      	pop	{r4, r5, r6, r7, pc}
7010830c:	f812 1f01 	ldrb.w	r1, [r2, #1]!
70108310:	3d01      	subs	r5, #1
70108312:	f804 1b01 	strb.w	r1, [r4], #1
70108316:	8831      	ldrh	r1, [r6, #0]
70108318:	3901      	subs	r1, #1
7010831a:	8031      	strh	r1, [r6, #0]
7010831c:	2101      	movs	r1, #1
7010831e:	f8b6 e000 	ldrh.w	lr, [r6]
70108322:	eb04 0c03 	add.w	ip, r4, r3
70108326:	f1be 0f00 	cmp.w	lr, #0
7010832a:	d006      	beq.n	7010833a <read_callback+0x5e>
7010832c:	3801      	subs	r0, #1
7010832e:	d1ed      	bne.n	7010830c <read_callback+0x30>
70108330:	b109      	cbz	r1, 70108336 <read_callback+0x5a>
70108332:	f8c7 c000 	str.w	ip, [r7]
70108336:	2001      	movs	r0, #1
70108338:	e7e6      	b.n	70108308 <read_callback+0x2c>
7010833a:	b109      	cbz	r1, 70108340 <read_callback+0x64>
7010833c:	f8c7 c000 	str.w	ip, [r7]
70108340:	2d00      	cmp	r5, #0
70108342:	d0f8      	beq.n	70108336 <read_callback+0x5a>
70108344:	23aa      	movs	r3, #170	@ 0xaa
70108346:	2101      	movs	r1, #1
70108348:	f10d 0007 	add.w	r0, sp, #7
7010834c:	f88d 3007 	strb.w	r3, [sp, #7]
70108350:	f7fd ff80 	bl	70106254 <ioRawWriteBuffer>
70108354:	f7ff ffac 	bl	701082b0 <read_packet>
70108358:	e7cb      	b.n	701082f2 <read_callback+0x16>
7010835a:	bf00      	nop
7010835c:	34000dd8 	.word	0x34000dd8
70108360:	34000dd4 	.word	0x34000dd4

70108364 <pb_io_reset_packet_size>:
70108364:	2220      	movs	r2, #32
70108366:	4b01      	ldr	r3, [pc, #4]	@ (7010836c <pb_io_reset_packet_size+0x8>)
70108368:	801a      	strh	r2, [r3, #0]
7010836a:	4770      	bx	lr
7010836c:	3400000e 	.word	0x3400000e

70108370 <pb_io_flush_ostream>:
70108370:	b510      	push	{r4, lr}
70108372:	4c08      	ldr	r4, [pc, #32]	@ (70108394 <pb_io_flush_ostream+0x24>)
70108374:	8823      	ldrh	r3, [r4, #0]
70108376:	4620      	mov	r0, r4
70108378:	ba5b      	rev16	r3, r3
7010837a:	8023      	strh	r3, [r4, #0]
7010837c:	f063 037f 	orn	r3, r3, #127	@ 0x7f
70108380:	7023      	strb	r3, [r4, #0]
70108382:	4b05      	ldr	r3, [pc, #20]	@ (70108398 <pb_io_flush_ostream+0x28>)
70108384:	8819      	ldrh	r1, [r3, #0]
70108386:	3102      	adds	r1, #2
70108388:	f7fd ff64 	bl	70106254 <ioRawWriteBuffer>
7010838c:	2300      	movs	r3, #0
7010838e:	8023      	strh	r3, [r4, #0]
70108390:	bd10      	pop	{r4, pc}
70108392:	bf00      	nop
70108394:	34000dfa 	.word	0x34000dfa
70108398:	3400000e 	.word	0x3400000e

7010839c <pb_io_flush_istream>:
7010839c:	f64f 72ff 	movw	r2, #65535	@ 0xffff
701083a0:	4b02      	ldr	r3, [pc, #8]	@ (701083ac <pb_io_flush_istream+0x10>)
701083a2:	801a      	strh	r2, [r3, #0]
701083a4:	2200      	movs	r2, #0
701083a6:	4b02      	ldr	r3, [pc, #8]	@ (701083b0 <pb_io_flush_istream+0x14>)
701083a8:	601a      	str	r2, [r3, #0]
701083aa:	4770      	bx	lr
701083ac:	34000dd8 	.word	0x34000dd8
701083b0:	34000dd4 	.word	0x34000dd4

701083b4 <pb_io_ostream>:
701083b4:	4a04      	ldr	r2, [pc, #16]	@ (701083c8 <pb_io_ostream+0x14>)
701083b6:	e9c0 2100 	strd	r2, r1, [r0]
701083ba:	f04f 31ff 	mov.w	r1, #4294967295
701083be:	2200      	movs	r2, #0
701083c0:	e9c0 1202 	strd	r1, r2, [r0, #8]
701083c4:	4770      	bx	lr
701083c6:	bf00      	nop
701083c8:	70108259 	.word	0x70108259

701083cc <pb_io_istream>:
701083cc:	4a03      	ldr	r2, [pc, #12]	@ (701083dc <pb_io_istream+0x10>)
701083ce:	e9c0 2100 	strd	r2, r1, [r0]
701083d2:	f04f 32ff 	mov.w	r2, #4294967295
701083d6:	6082      	str	r2, [r0, #8]
701083d8:	4770      	bx	lr
701083da:	bf00      	nop
701083dc:	701082dd 	.word	0x701082dd

701083e0 <pb_io_stream_init>:
701083e0:	b508      	push	{r3, lr}
701083e2:	f7fd ff53 	bl	7010628c <ioRawDisableLLWrite>
701083e6:	2000      	movs	r0, #0
701083e8:	bd08      	pop	{r3, pc}

701083ea <encode_uint32>:
701083ea:	e92d 43f8 	stmdb	sp!, {r3, r4, r5, r6, r7, r8, r9, lr}
701083ee:	2600      	movs	r6, #0
701083f0:	f8d2 8000 	ldr.w	r8, [r2]
701083f4:	4607      	mov	r7, r0
701083f6:	f8d8 4008 	ldr.w	r4, [r8, #8]
701083fa:	4689      	mov	r9, r1
701083fc:	2c00      	cmp	r4, #0
701083fe:	bf08      	it	eq
70108400:	2404      	moveq	r4, #4
70108402:	4635      	mov	r5, r6
70108404:	f8d8 3000 	ldr.w	r3, [r8]
70108408:	42ab      	cmp	r3, r5
7010840a:	d801      	bhi.n	70108410 <encode_uint32+0x26>
7010840c:	2001      	movs	r0, #1
7010840e:	e005      	b.n	7010841c <encode_uint32+0x32>
70108410:	4649      	mov	r1, r9
70108412:	4638      	mov	r0, r7
70108414:	f002 fdcf 	bl	7010afb6 <pb_encode_tag_for_field>
70108418:	b910      	cbnz	r0, 70108420 <encode_uint32+0x36>
7010841a:	2000      	movs	r0, #0
7010841c:	e8bd 83f8 	ldmia.w	sp!, {r3, r4, r5, r6, r7, r8, r9, pc}
70108420:	f8d8 3004 	ldr.w	r3, [r8, #4]
70108424:	2c02      	cmp	r4, #2
70108426:	bf14      	ite	ne
70108428:	599a      	ldrne	r2, [r3, r6]
7010842a:	f833 2015 	ldrheq.w	r2, [r3, r5, lsl #1]
7010842e:	4638      	mov	r0, r7
70108430:	17d3      	asrs	r3, r2, #31
70108432:	f002 fd14 	bl	7010ae5e <pb_encode_varint>
70108436:	4426      	add	r6, r4
70108438:	2800      	cmp	r0, #0
7010843a:	d0ee      	beq.n	7010841a <encode_uint32+0x30>
7010843c:	3501      	adds	r5, #1
7010843e:	e7e1      	b.n	70108404 <encode_uint32+0x1a>

70108440 <encode_data_cb>:
70108440:	b570      	push	{r4, r5, r6, lr}
70108442:	6815      	ldr	r5, [r2, #0]
70108444:	4604      	mov	r4, r0
70108446:	68ae      	ldr	r6, [r5, #8]
70108448:	f002 fdb5 	bl	7010afb6 <pb_encode_tag_for_field>
7010844c:	b130      	cbz	r0, 7010845c <encode_data_cb+0x1c>
7010844e:	4631      	mov	r1, r6
70108450:	4620      	mov	r0, r4
70108452:	686a      	ldr	r2, [r5, #4]
70108454:	e8bd 4070 	ldmia.w	sp!, {r4, r5, r6, lr}
70108458:	f002 bed8 	b.w	7010b20c <pb_encode_string>
7010845c:	bd70      	pop	{r4, r5, r6, pc}

7010845e <decode_data_cb>:
7010845e:	b5f7      	push	{r0, r1, r2, r4, r5, r6, r7, lr}
70108460:	2300      	movs	r3, #0
70108462:	4605      	mov	r5, r0
70108464:	6814      	ldr	r4, [r2, #0]
70108466:	e9d4 6701 	ldrd	r6, r7, [r4, #4]
7010846a:	60e3      	str	r3, [r4, #12]
7010846c:	68ab      	ldr	r3, [r5, #8]
7010846e:	b913      	cbnz	r3, 70108476 <decode_data_cb+0x18>
70108470:	2001      	movs	r0, #1
70108472:	b003      	add	sp, #12
70108474:	bdf0      	pop	{r4, r5, r6, r7, pc}
70108476:	2201      	movs	r2, #1
70108478:	4669      	mov	r1, sp
7010847a:	4628      	mov	r0, r5
7010847c:	f002 f894 	bl	7010a5a8 <pb_read>
70108480:	2800      	cmp	r0, #0
70108482:	d0f6      	beq.n	70108472 <decode_data_cb+0x14>
70108484:	b13f      	cbz	r7, 70108496 <decode_data_cb+0x38>
70108486:	2e00      	cmp	r6, #0
70108488:	bfc2      	ittt	gt
7010848a:	f89d 3000 	ldrbgt.w	r3, [sp]
7010848e:	f106 36ff 	addgt.w	r6, r6, #4294967295
70108492:	f807 3b01 	strbgt.w	r3, [r7], #1
70108496:	68e3      	ldr	r3, [r4, #12]
70108498:	3301      	adds	r3, #1
7010849a:	e7e6      	b.n	7010846a <decode_data_cb+0xc>

7010849c <aiPbMgrInit>:
7010849c:	b5f0      	push	{r4, r5, r6, r7, lr}
7010849e:	4c1a      	ldr	r4, [pc, #104]	@ (70108508 <aiPbMgrInit+0x6c>)
701084a0:	b089      	sub	sp, #36	@ 0x24
701084a2:	f44f 72f0 	mov.w	r2, #480	@ 0x1e0
701084a6:	2100      	movs	r1, #0
701084a8:	ae04      	add	r6, sp, #16
701084aa:	4605      	mov	r5, r0
701084ac:	4620      	mov	r0, r4
701084ae:	f003 fac9 	bl	7010ba44 <memset>
701084b2:	f7ff ff95 	bl	701083e0 <pb_io_stream_init>
701084b6:	2100      	movs	r1, #0
701084b8:	4630      	mov	r0, r6
701084ba:	f7ff ff87 	bl	701083cc <pb_io_istream>
701084be:	e896 0007 	ldmia.w	r6, {r0, r1, r2}
701084c2:	f104 070c 	add.w	r7, r4, #12
701084c6:	e884 0007 	stmia.w	r4, {r0, r1, r2}
701084ca:	2100      	movs	r1, #0
701084cc:	4668      	mov	r0, sp
701084ce:	f7ff ff71 	bl	701083b4 <pb_io_ostream>
701084d2:	e89d 000f 	ldmia.w	sp, {r0, r1, r2, r3}
701084d6:	e887 000f 	stmia.w	r7, {r0, r1, r2, r3}
701084da:	2300      	movs	r3, #0
701084dc:	e9c4 3307 	strd	r3, r3, [r4, #28]
701084e0:	b97d      	cbnz	r5, 70108502 <aiPbMgrInit+0x66>
701084e2:	2301      	movs	r3, #1
701084e4:	f884 31d8 	strb.w	r3, [r4, #472]	@ 0x1d8
701084e8:	b009      	add	sp, #36	@ 0x24
701084ea:	bdf0      	pop	{r4, r5, r6, r7, pc}
701084ec:	4633      	mov	r3, r6
701084ee:	2101      	movs	r1, #1
701084f0:	320c      	adds	r2, #12
701084f2:	6850      	ldr	r0, [r2, #4]
701084f4:	1c5e      	adds	r6, r3, #1
701084f6:	2800      	cmp	r0, #0
701084f8:	d1f8      	bne.n	701084ec <aiPbMgrInit+0x50>
701084fa:	b101      	cbz	r1, 701084fe <aiPbMgrInit+0x62>
701084fc:	6223      	str	r3, [r4, #32]
701084fe:	61e5      	str	r5, [r4, #28]
70108500:	e7ef      	b.n	701084e2 <aiPbMgrInit+0x46>
70108502:	462a      	mov	r2, r5
70108504:	4619      	mov	r1, r3
70108506:	e7f4      	b.n	701084f2 <aiPbMgrInit+0x56>
70108508:	34000e20 	.word	0x34000e20

7010850c <aiPbTensorFormat>:
7010850c:	2803      	cmp	r0, #3
7010850e:	b510      	push	{r4, lr}
70108510:	d808      	bhi.n	70108524 <aiPbTensorFormat+0x18>
70108512:	3801      	subs	r0, #1
70108514:	2802      	cmp	r0, #2
70108516:	d825      	bhi.n	70108564 <aiPbTensorFormat+0x58>
70108518:	e8df f000 	tbb	[pc, r0]
7010851c:	0802      	.short	0x0802
7010851e:	15          	.byte	0x15
7010851f:	00          	.byte	0x00
70108520:	4811      	ldr	r0, [pc, #68]	@ (70108568 <aiPbTensorFormat+0x5c>)
70108522:	bd10      	pop	{r4, pc}
70108524:	280f      	cmp	r0, #15
70108526:	d010      	beq.n	7010854a <aiPbTensorFormat+0x3e>
70108528:	2000      	movs	r0, #0
7010852a:	e7fa      	b.n	70108522 <aiPbTensorFormat+0x16>
7010852c:	f103 0040 	add.w	r0, r3, #64	@ 0x40
70108530:	f000 007f 	and.w	r0, r0, #127	@ 0x7f
70108534:	01d2      	lsls	r2, r2, #7
70108536:	ea40 50c1 	orr.w	r0, r0, r1, lsl #23
7010853a:	f402 527e 	and.w	r2, r2, #16256	@ 0x3f80
7010853e:	4310      	orrs	r0, r2
70108540:	f440 2080 	orr.w	r0, r0, #262144	@ 0x40000
70108544:	e7ed      	b.n	70108522 <aiPbTensorFormat+0x16>
70108546:	4809      	ldr	r0, [pc, #36]	@ (7010856c <aiPbTensorFormat+0x60>)
70108548:	e7eb      	b.n	70108522 <aiPbTensorFormat+0x16>
7010854a:	f103 0040 	add.w	r0, r3, #64	@ 0x40
7010854e:	f000 007f 	and.w	r0, r0, #127	@ 0x7f
70108552:	01d2      	lsls	r2, r2, #7
70108554:	ea40 50c1 	orr.w	r0, r0, r1, lsl #23
70108558:	f402 527e 	and.w	r2, r2, #16256	@ 0x3f80
7010855c:	4310      	orrs	r0, r2
7010855e:	f440 10f0 	orr.w	r0, r0, #1966080	@ 0x1e0000
70108562:	e7de      	b.n	70108522 <aiPbTensorFormat+0x16>
70108564:	2040      	movs	r0, #64	@ 0x40
70108566:	e7dc      	b.n	70108522 <aiPbTensorFormat+0x16>
70108568:	00821040 	.word	0x00821040
7010856c:	00060440 	.word	0x00060440

70108570 <aiPbStrCopy>:
70108570:	b57f      	push	{r0, r1, r2, r3, r4, r5, r6, lr}
70108572:	4605      	mov	r5, r0
70108574:	4616      	mov	r6, r2
70108576:	4a10      	ldr	r2, [pc, #64]	@ (701085b8 <aiPbStrCopy+0x48>)
70108578:	460c      	mov	r4, r1
7010857a:	6810      	ldr	r0, [r2, #0]
7010857c:	6851      	ldr	r1, [r2, #4]
7010857e:	ab01      	add	r3, sp, #4
70108580:	c303      	stmia	r3!, {r0, r1}
70108582:	8912      	ldrh	r2, [r2, #8]
70108584:	4628      	mov	r0, r5
70108586:	801a      	strh	r2, [r3, #0]
70108588:	f7f8 f902 	bl	70100790 <strlen>
7010858c:	1e73      	subs	r3, r6, #1
7010858e:	42b0      	cmp	r0, r6
70108590:	bf88      	it	hi
70108592:	4618      	movhi	r0, r3
70108594:	b174      	cbz	r4, 701085b4 <aiPbStrCopy+0x44>
70108596:	b138      	cbz	r0, 701085a8 <aiPbStrCopy+0x38>
70108598:	1c42      	adds	r2, r0, #1
7010859a:	4629      	mov	r1, r5
7010859c:	4620      	mov	r0, r4
7010859e:	b004      	add	sp, #16
701085a0:	e8bd 4070 	ldmia.w	sp!, {r4, r5, r6, lr}
701085a4:	f003 bcdd 	b.w	7010bf62 <memcpy>
701085a8:	ab01      	add	r3, sp, #4
701085aa:	cb03      	ldmia	r3!, {r0, r1}
701085ac:	881b      	ldrh	r3, [r3, #0]
701085ae:	6020      	str	r0, [r4, #0]
701085b0:	6061      	str	r1, [r4, #4]
701085b2:	8123      	strh	r3, [r4, #8]
701085b4:	b004      	add	sp, #16
701085b6:	bd70      	pop	{r4, r5, r6, pc}
701085b8:	7010dfeb 	.word	0x7010dfeb

701085bc <encode_tensor_desc>:
701085bc:	e92d 47f0 	stmdb	sp!, {r4, r5, r6, r7, r8, r9, sl, lr}
701085c0:	4605      	mov	r5, r0
701085c2:	4688      	mov	r8, r1
701085c4:	2400      	movs	r4, #0
701085c6:	6816      	ldr	r6, [r2, #0]
701085c8:	f8df a050 	ldr.w	sl, [pc, #80]	@ 7010861c <encode_tensor_desc+0x60>
701085cc:	b09c      	sub	sp, #112	@ 0x70
701085ce:	6873      	ldr	r3, [r6, #4]
701085d0:	42a3      	cmp	r3, r4
701085d2:	d801      	bhi.n	701085d8 <encode_tensor_desc+0x1c>
701085d4:	2001      	movs	r0, #1
701085d6:	e01b      	b.n	70108610 <encode_tensor_desc+0x54>
701085d8:	46e9      	mov	r9, sp
701085da:	2264      	movs	r2, #100	@ 0x64
701085dc:	2100      	movs	r1, #0
701085de:	a803      	add	r0, sp, #12
701085e0:	f003 fa30 	bl	7010ba44 <memset>
701085e4:	4620      	mov	r0, r4
701085e6:	68b1      	ldr	r1, [r6, #8]
701085e8:	466b      	mov	r3, sp
701085ea:	6837      	ldr	r7, [r6, #0]
701085ec:	aa03      	add	r2, sp, #12
701085ee:	47b8      	blx	r7
701085f0:	4641      	mov	r1, r8
701085f2:	4628      	mov	r0, r5
701085f4:	e9cd a916 	strd	sl, r9, [sp, #88]	@ 0x58
701085f8:	f002 fcdd 	bl	7010afb6 <pb_encode_tag_for_field>
701085fc:	b138      	cbz	r0, 7010860e <encode_tensor_desc+0x52>
701085fe:	4628      	mov	r0, r5
70108600:	4905      	ldr	r1, [pc, #20]	@ (70108618 <encode_tensor_desc+0x5c>)
70108602:	aa03      	add	r2, sp, #12
70108604:	f002 fe47 	bl	7010b296 <pb_encode_submessage>
70108608:	b108      	cbz	r0, 7010860e <encode_tensor_desc+0x52>
7010860a:	3401      	adds	r4, #1
7010860c:	e7df      	b.n	701085ce <encode_tensor_desc+0x12>
7010860e:	2000      	movs	r0, #0
70108610:	b01c      	add	sp, #112	@ 0x70
70108612:	e8bd 87f0 	ldmia.w	sp!, {r4, r5, r6, r7, r8, r9, sl, pc}
70108616:	bf00      	nop
70108618:	7010ffe0 	.word	0x7010ffe0
7010861c:	701083eb 	.word	0x701083eb

70108620 <aiPbMgrSendResp>:
70108620:	b508      	push	{r3, lr}
70108622:	6803      	ldr	r3, [r0, #0]
70108624:	710a      	strb	r2, [r1, #4]
70108626:	600b      	str	r3, [r1, #0]
70108628:	460a      	mov	r2, r1
7010862a:	4804      	ldr	r0, [pc, #16]	@ (7010863c <aiPbMgrSendResp+0x1c>)
7010862c:	4904      	ldr	r1, [pc, #16]	@ (70108640 <aiPbMgrSendResp+0x20>)
7010862e:	f002 fdb9 	bl	7010b1a4 <pb_encode>
70108632:	e8bd 4008 	ldmia.w	sp!, {r3, lr}
70108636:	f7ff be9b 	b.w	70108370 <pb_io_flush_ostream>
7010863a:	bf00      	nop
7010863c:	34000e2c 	.word	0x34000e2c
70108640:	7010fbd0 	.word	0x7010fbd0

70108644 <aiPbMgrWaitAndProcess>:
70108644:	b570      	push	{r4, r5, r6, lr}
70108646:	4c1e      	ldr	r4, [pc, #120]	@ (701086c0 <aiPbMgrWaitAndProcess+0x7c>)
70108648:	f7ff fea8 	bl	7010839c <pb_io_flush_istream>
7010864c:	4620      	mov	r0, r4
7010864e:	491d      	ldr	r1, [pc, #116]	@ (701086c4 <aiPbMgrWaitAndProcess+0x80>)
70108650:	f104 0224 	add.w	r2, r4, #36	@ 0x24
70108654:	f002 fb1f 	bl	7010ac96 <pb_decode_delimited>
70108658:	b350      	cbz	r0, 701086b0 <aiPbMgrWaitAndProcess+0x6c>
7010865a:	f7ff fe9f 	bl	7010839c <pb_io_flush_istream>
7010865e:	2302      	movs	r3, #2
70108660:	2500      	movs	r5, #0
70108662:	f884 31d8 	strb.w	r3, [r4, #472]	@ 0x1d8
70108666:	6a23      	ldr	r3, [r4, #32]
70108668:	f894 0028 	ldrb.w	r0, [r4, #40]	@ 0x28
7010866c:	69e2      	ldr	r2, [r4, #28]
7010866e:	3301      	adds	r3, #1
70108670:	3b01      	subs	r3, #1
70108672:	d00d      	beq.n	70108690 <aiPbMgrWaitAndProcess+0x4c>
70108674:	4611      	mov	r1, r2
70108676:	f811 6b0c 	ldrb.w	r6, [r1], #12
7010867a:	4286      	cmp	r6, r0
7010867c:	d11c      	bne.n	701086b8 <aiPbMgrWaitAndProcess+0x74>
7010867e:	4912      	ldr	r1, [pc, #72]	@ (701086c8 <aiPbMgrWaitAndProcess+0x84>)
70108680:	e9d2 3201 	ldrd	r3, r2, [r2, #4]
70108684:	f1a1 0054 	sub.w	r0, r1, #84	@ 0x54
70108688:	4798      	blx	r3
7010868a:	6a23      	ldr	r3, [r4, #32]
7010868c:	42ab      	cmp	r3, r5
7010868e:	d10c      	bne.n	701086aa <aiPbMgrWaitAndProcess+0x66>
70108690:	2204      	movs	r2, #4
70108692:	230c      	movs	r3, #12
70108694:	490c      	ldr	r1, [pc, #48]	@ (701086c8 <aiPbMgrWaitAndProcess+0x84>)
70108696:	f8a4 307e 	strh.w	r3, [r4, #126]	@ 0x7e
7010869a:	f1a1 0054 	sub.w	r0, r1, #84	@ 0x54
7010869e:	f8c4 2080 	str.w	r2, [r4, #128]	@ 0x80
701086a2:	f884 2084 	strb.w	r2, [r4, #132]	@ 0x84
701086a6:	f7ff ffbb 	bl	70108620 <aiPbMgrSendResp>
701086aa:	2301      	movs	r3, #1
701086ac:	f884 31d8 	strb.w	r3, [r4, #472]	@ 0x1d8
701086b0:	f7ff fe74 	bl	7010839c <pb_io_flush_istream>
701086b4:	2000      	movs	r0, #0
701086b6:	bd70      	pop	{r4, r5, r6, pc}
701086b8:	460a      	mov	r2, r1
701086ba:	3501      	adds	r5, #1
701086bc:	e7d8      	b.n	70108670 <aiPbMgrWaitAndProcess+0x2c>
701086be:	bf00      	nop
701086c0:	34000e20 	.word	0x34000e20
701086c4:	70110080 	.word	0x70110080
701086c8:	34000e98 	.word	0x34000e98

701086cc <aiPbMgrSendAck>:
701086cc:	b470      	push	{r4, r5, r6}
701086ce:	260c      	movs	r6, #12
701086d0:	f89d 500c 	ldrb.w	r5, [sp, #12]
701086d4:	80ce      	strh	r6, [r1, #6]
701086d6:	730d      	strb	r5, [r1, #12]
701086d8:	608b      	str	r3, [r1, #8]
701086da:	bc70      	pop	{r4, r5, r6}
701086dc:	f7ff bfa0 	b.w	70108620 <aiPbMgrSendResp>

701086e0 <aiPbMgrWaitAck>:
701086e0:	2300      	movs	r3, #0
701086e2:	b513      	push	{r0, r1, r4, lr}
701086e4:	4906      	ldr	r1, [pc, #24]	@ (70108700 <aiPbMgrWaitAck+0x20>)
701086e6:	466a      	mov	r2, sp
701086e8:	4806      	ldr	r0, [pc, #24]	@ (70108704 <aiPbMgrWaitAck+0x24>)
701086ea:	9300      	str	r3, [sp, #0]
701086ec:	f88d 3004 	strb.w	r3, [sp, #4]
701086f0:	f002 fad1 	bl	7010ac96 <pb_decode_delimited>
701086f4:	4604      	mov	r4, r0
701086f6:	f7ff fe51 	bl	7010839c <pb_io_flush_istream>
701086fa:	4620      	mov	r0, r4
701086fc:	b002      	add	sp, #8
701086fe:	bd10      	pop	{r4, pc}
70108700:	7010fcb0 	.word	0x7010fcb0
70108704:	34000e20 	.word	0x34000e20

70108708 <aiPbMgrSendLogV2>:
70108708:	e92d 41f3 	stmdb	sp!, {r0, r1, r4, r5, r6, r7, r8, lr}
7010870c:	2400      	movs	r4, #0
7010870e:	4d17      	ldr	r5, [pc, #92]	@ (7010876c <aiPbMgrSendLogV2+0x64>)
70108710:	4607      	mov	r7, r0
70108712:	f895 31d8 	ldrb.w	r3, [r5, #472]	@ 0x1d8
70108716:	4688      	mov	r8, r1
70108718:	2b02      	cmp	r3, #2
7010871a:	4616      	mov	r6, r2
7010871c:	9400      	str	r4, [sp, #0]
7010871e:	f88d 4004 	strb.w	r4, [sp, #4]
70108722:	d11f      	bne.n	70108764 <aiPbMgrSendLogV2+0x5c>
70108724:	4610      	mov	r0, r2
70108726:	f7f8 f833 	bl	70100790 <strlen>
7010872a:	287f      	cmp	r0, #127	@ 0x7f
7010872c:	bf28      	it	cs
7010872e:	207f      	movcs	r0, #127	@ 0x7f
70108730:	230d      	movs	r3, #13
70108732:	1c42      	adds	r2, r0, #1
70108734:	4631      	mov	r1, r6
70108736:	f105 0084 	add.w	r0, r5, #132	@ 0x84
7010873a:	f8a5 307e 	strh.w	r3, [r5, #126]	@ 0x7e
7010873e:	f8c5 8080 	str.w	r8, [r5, #128]	@ 0x80
70108742:	f003 fc0e 	bl	7010bf62 <memcpy>
70108746:	463a      	mov	r2, r7
70108748:	f105 0178 	add.w	r1, r5, #120	@ 0x78
7010874c:	f105 0024 	add.w	r0, r5, #36	@ 0x24
70108750:	f7ff ff66 	bl	70108620 <aiPbMgrSendResp>
70108754:	466a      	mov	r2, sp
70108756:	4628      	mov	r0, r5
70108758:	4905      	ldr	r1, [pc, #20]	@ (70108770 <aiPbMgrSendLogV2+0x68>)
7010875a:	f002 fa9c 	bl	7010ac96 <pb_decode_delimited>
7010875e:	4604      	mov	r4, r0
70108760:	f7ff fe1c 	bl	7010839c <pb_io_flush_istream>
70108764:	4620      	mov	r0, r4
70108766:	b002      	add	sp, #8
70108768:	e8bd 81f0 	ldmia.w	sp!, {r4, r5, r6, r7, r8, pc}
7010876c:	34000e20 	.word	0x34000e20
70108770:	7010fcb0 	.word	0x7010fcb0

70108774 <aiPbMgrReceiveData>:
70108774:	b510      	push	{r4, lr}
70108776:	4b09      	ldr	r3, [pc, #36]	@ (7010879c <aiPbMgrReceiveData+0x28>)
70108778:	b086      	sub	sp, #24
7010877a:	4604      	mov	r4, r0
7010877c:	e9cd 3004 	strd	r3, r0, [sp, #16]
70108780:	4907      	ldr	r1, [pc, #28]	@ (701087a0 <aiPbMgrReceiveData+0x2c>)
70108782:	aa01      	add	r2, sp, #4
70108784:	4807      	ldr	r0, [pc, #28]	@ (701087a4 <aiPbMgrReceiveData+0x30>)
70108786:	f002 fa86 	bl	7010ac96 <pb_decode_delimited>
7010878a:	f7ff fe07 	bl	7010839c <pb_io_flush_istream>
7010878e:	2001      	movs	r0, #1
70108790:	9b01      	ldr	r3, [sp, #4]
70108792:	6023      	str	r3, [r4, #0]
70108794:	9b03      	ldr	r3, [sp, #12]
70108796:	60a3      	str	r3, [r4, #8]
70108798:	b006      	add	sp, #24
7010879a:	bd10      	pop	{r4, pc}
7010879c:	7010845f 	.word	0x7010845f
701087a0:	7010ff90 	.word	0x7010ff90
701087a4:	34000e20 	.word	0x34000e20

701087a8 <aiPbMgrSendOperator>:
701087a8:	b5f0      	push	{r4, r5, r6, r7, lr}
701087aa:	4617      	mov	r7, r2
701087ac:	2210      	movs	r2, #16
701087ae:	b085      	sub	sp, #20
701087b0:	4606      	mov	r6, r0
701087b2:	460c      	mov	r4, r1
701087b4:	4618      	mov	r0, r3
701087b6:	9d0c      	ldr	r5, [sp, #48]	@ 0x30
701087b8:	80ca      	strh	r2, [r1, #6]
701087ba:	b31b      	cbz	r3, 70108804 <aiPbMgrSendOperator+0x5c>
701087bc:	2240      	movs	r2, #64	@ 0x40
701087be:	3108      	adds	r1, #8
701087c0:	f7ff fed6 	bl	70108570 <aiPbStrCopy>
701087c4:	9b0a      	ldr	r3, [sp, #40]	@ 0x28
701087c6:	64a3      	str	r3, [r4, #72]	@ 0x48
701087c8:	9b0b      	ldr	r3, [sp, #44]	@ 0x2c
701087ca:	64e3      	str	r3, [r4, #76]	@ 0x4c
701087cc:	b1f5      	cbz	r5, 7010880c <aiPbMgrSendOperator+0x64>
701087ce:	692b      	ldr	r3, [r5, #16]
701087d0:	6623      	str	r3, [r4, #96]	@ 0x60
701087d2:	696b      	ldr	r3, [r5, #20]
701087d4:	6663      	str	r3, [r4, #100]	@ 0x64
701087d6:	682b      	ldr	r3, [r5, #0]
701087d8:	6523      	str	r3, [r4, #80]	@ 0x50
701087da:	686b      	ldr	r3, [r5, #4]
701087dc:	6563      	str	r3, [r4, #84]	@ 0x54
701087de:	68eb      	ldr	r3, [r5, #12]
701087e0:	b193      	cbz	r3, 70108808 <aiPbMgrSendOperator+0x60>
701087e2:	68aa      	ldr	r2, [r5, #8]
701087e4:	e9cd 2301 	strd	r2, r3, [sp, #4]
701087e8:	2304      	movs	r3, #4
701087ea:	9303      	str	r3, [sp, #12]
701087ec:	4b0a      	ldr	r3, [pc, #40]	@ (70108818 <aiPbMgrSendOperator+0x70>)
701087ee:	65a3      	str	r3, [r4, #88]	@ 0x58
701087f0:	ab01      	add	r3, sp, #4
701087f2:	65e3      	str	r3, [r4, #92]	@ 0x5c
701087f4:	4630      	mov	r0, r6
701087f6:	463a      	mov	r2, r7
701087f8:	4621      	mov	r1, r4
701087fa:	f7ff ff11 	bl	70108620 <aiPbMgrSendResp>
701087fe:	2001      	movs	r0, #1
70108800:	b005      	add	sp, #20
70108802:	bdf0      	pop	{r4, r5, r6, r7, pc}
70108804:	720b      	strb	r3, [r1, #8]
70108806:	e7dd      	b.n	701087c4 <aiPbMgrSendOperator+0x1c>
70108808:	65a3      	str	r3, [r4, #88]	@ 0x58
7010880a:	e7f3      	b.n	701087f4 <aiPbMgrSendOperator+0x4c>
7010880c:	2300      	movs	r3, #0
7010880e:	e9c4 5515 	strd	r5, r5, [r4, #84]	@ 0x54
70108812:	6523      	str	r3, [r4, #80]	@ 0x50
70108814:	e7ee      	b.n	701087f4 <aiPbMgrSendOperator+0x4c>
70108816:	bf00      	nop
70108818:	701083eb 	.word	0x701083eb

7010881c <aiPbCmdDisconnect>:
7010881c:	f7ff bda2 	b.w	70108364 <pb_io_reset_packet_size>

70108820 <aiPbCmdSync>:
70108820:	b410      	push	{r4}
70108822:	240a      	movs	r4, #10
70108824:	80cc      	strh	r4, [r1, #6]
70108826:	f240 3402 	movw	r4, #770	@ 0x302
7010882a:	608c      	str	r4, [r1, #8]
7010882c:	b294      	uxth	r4, r2
7010882e:	0c12      	lsrs	r2, r2, #16
70108830:	f442 3280 	orr.w	r2, r2, #65536	@ 0x10000
70108834:	60cc      	str	r4, [r1, #12]
70108836:	610a      	str	r2, [r1, #16]
70108838:	f85d 4b04 	ldr.w	r4, [sp], #4
7010883c:	2200      	movs	r2, #0
7010883e:	f7ff beef 	b.w	70108620 <aiPbMgrSendResp>
	...

70108844 <_get_node_type>:
70108844:	4603      	mov	r3, r0
70108846:	2900      	cmp	r1, #0
70108848:	8a19      	ldrh	r1, [r3, #16]
7010884a:	bf0c      	ite	eq
7010884c:	f04f 60a0 	moveq.w	r0, #83886080	@ 0x5000000
70108850:	f04f 7080 	movne.w	r0, #16777216	@ 0x1000000
70108854:	f011 0f04 	tst.w	r1, #4
70108858:	d004      	beq.n	70108864 <_get_node_type+0x20>
7010885a:	4b11      	ldr	r3, [pc, #68]	@ (701088a0 <_get_node_type+0x5c>)
7010885c:	f040 0004 	orr.w	r0, r0, #4
70108860:	6013      	str	r3, [r2, #0]
70108862:	4770      	bx	lr
70108864:	f011 0f20 	tst.w	r1, #32
70108868:	d003      	beq.n	70108872 <_get_node_type+0x2e>
7010886a:	4b0e      	ldr	r3, [pc, #56]	@ (701088a4 <_get_node_type+0x60>)
7010886c:	f040 0002 	orr.w	r0, r0, #2
70108870:	e7f6      	b.n	70108860 <_get_node_type+0x1c>
70108872:	f011 0f40 	tst.w	r1, #64	@ 0x40
70108876:	d003      	beq.n	70108880 <_get_node_type+0x3c>
70108878:	4b0b      	ldr	r3, [pc, #44]	@ (701088a8 <_get_node_type+0x64>)
7010887a:	f040 0003 	orr.w	r0, r0, #3
7010887e:	e7ef      	b.n	70108860 <_get_node_type+0x1c>
70108880:	0609      	lsls	r1, r1, #24
70108882:	bf49      	itett	mi
70108884:	f9b3 3012 	ldrshmi.w	r3, [r3, #18]
70108888:	4b08      	ldrpl	r3, [pc, #32]	@ (701088ac <_get_node_type+0x68>)
7010888a:	425b      	negmi	r3, r3
7010888c:	011b      	lslmi	r3, r3, #4
7010888e:	bf41      	itttt	mi
70108890:	f403 737c 	andmi.w	r3, r3, #1008	@ 0x3f0
70108894:	4318      	orrmi	r0, r3
70108896:	f040 0001 	orrmi.w	r0, r0, #1
7010889a:	4b05      	ldrmi	r3, [pc, #20]	@ (701088b0 <_get_node_type+0x6c>)
7010889c:	e7e0      	b.n	70108860 <_get_node_type+0x1c>
7010889e:	bf00      	nop
701088a0:	7010fb44 	.word	0x7010fb44
701088a4:	7010fb41 	.word	0x7010fb41
701088a8:	7010fb3a 	.word	0x7010fb3a
701088ac:	7010fb47 	.word	0x7010fb47
701088b0:	7010fb34 	.word	0x7010fb34

701088b4 <_is_ll_buffer_valid>:
701088b4:	b570      	push	{r4, r5, r6, lr}
701088b6:	4604      	mov	r4, r0
701088b8:	b1a8      	cbz	r0, 701088e6 <_is_ll_buffer_valid+0x32>
701088ba:	2601      	movs	r6, #1
701088bc:	f890 e027 	ldrb.w	lr, [r0, #39]	@ 0x27
701088c0:	2300      	movs	r3, #0
701088c2:	44b6      	add	lr, r6
701088c4:	f04e e001 	dls	lr, lr
701088c8:	f1be 0e01 	subs.w	lr, lr, #1
701088cc:	d10c      	bne.n	701088e8 <_is_ll_buffer_valid+0x34>
701088ce:	4620      	mov	r0, r4
701088d0:	f001 f8f0 	bl	70109ab4 <get_ll_buffer_size>
701088d4:	4605      	mov	r5, r0
701088d6:	4620      	mov	r0, r4
701088d8:	f001 f8f0 	bl	70109abc <get_ll_element_size>
701088dc:	fb06 f300 	mul.w	r3, r6, r0
701088e0:	1b5b      	subs	r3, r3, r5
701088e2:	4258      	negs	r0, r3
701088e4:	4158      	adcs	r0, r3
701088e6:	bd70      	pop	{r4, r5, r6, pc}
701088e8:	6ae2      	ldr	r2, [r4, #44]	@ 0x2c
701088ea:	f852 2023 	ldr.w	r2, [r2, r3, lsl #2]
701088ee:	3301      	adds	r3, #1
701088f0:	4356      	muls	r6, r2
701088f2:	e7e9      	b.n	701088c8 <_is_ll_buffer_valid+0x14>

701088f4 <encode_buffer_to_tensor_desc>:
701088f4:	b5f8      	push	{r3, r4, r5, r6, r7, lr}
701088f6:	461e      	mov	r6, r3
701088f8:	2301      	movs	r3, #1
701088fa:	6033      	str	r3, [r6, #0]
701088fc:	688b      	ldr	r3, [r1, #8]
701088fe:	2700      	movs	r7, #0
70108900:	6073      	str	r3, [r6, #4]
70108902:	2304      	movs	r3, #4
70108904:	4614      	mov	r4, r2
70108906:	460d      	mov	r5, r1
70108908:	60b3      	str	r3, [r6, #8]
7010890a:	4639      	mov	r1, r7
7010890c:	463b      	mov	r3, r7
7010890e:	7017      	strb	r7, [r2, #0]
70108910:	2002      	movs	r0, #2
70108912:	2208      	movs	r2, #8
70108914:	f7ff fdfa 	bl	7010850c <aiPbTensorFormat>
70108918:	68ab      	ldr	r3, [r5, #8]
7010891a:	6420      	str	r0, [r4, #64]	@ 0x40
7010891c:	681b      	ldr	r3, [r3, #0]
7010891e:	6463      	str	r3, [r4, #68]	@ 0x44
70108920:	6833      	ldr	r3, [r6, #0]
70108922:	65a7      	str	r7, [r4, #88]	@ 0x58
70108924:	64a3      	str	r3, [r4, #72]	@ 0x48
70108926:	2300      	movs	r3, #0
70108928:	6563      	str	r3, [r4, #84]	@ 0x54
7010892a:	68eb      	ldr	r3, [r5, #12]
7010892c:	65e3      	str	r3, [r4, #92]	@ 0x5c
7010892e:	692b      	ldr	r3, [r5, #16]
70108930:	6623      	str	r3, [r4, #96]	@ 0x60
70108932:	bdf8      	pop	{r3, r4, r5, r6, r7, pc}

70108934 <aiPbCmdSysInfo>:
70108934:	b530      	push	{r4, r5, lr}
70108936:	b08d      	sub	sp, #52	@ 0x34
70108938:	4605      	mov	r5, r0
7010893a:	a803      	add	r0, sp, #12
7010893c:	460c      	mov	r4, r1
7010893e:	f7fd fd81 	bl	70106444 <getSysConf>
70108942:	230b      	movs	r3, #11
70108944:	80e3      	strh	r3, [r4, #6]
70108946:	9b06      	ldr	r3, [sp, #24]
70108948:	2200      	movs	r2, #0
7010894a:	60a3      	str	r3, [r4, #8]
7010894c:	9b03      	ldr	r3, [sp, #12]
7010894e:	4621      	mov	r1, r4
70108950:	60e3      	str	r3, [r4, #12]
70108952:	9b04      	ldr	r3, [sp, #16]
70108954:	4628      	mov	r0, r5
70108956:	6123      	str	r3, [r4, #16]
70108958:	9b05      	ldr	r3, [sp, #20]
7010895a:	61a2      	str	r2, [r4, #24]
7010895c:	6163      	str	r3, [r4, #20]
7010895e:	2304      	movs	r3, #4
70108960:	9300      	str	r3, [sp, #0]
70108962:	9302      	str	r3, [sp, #8]
70108964:	ab08      	add	r3, sp, #32
70108966:	9301      	str	r3, [sp, #4]
70108968:	4b03      	ldr	r3, [pc, #12]	@ (70108978 <aiPbCmdSysInfo+0x44>)
7010896a:	f8c4 d020 	str.w	sp, [r4, #32]
7010896e:	61e3      	str	r3, [r4, #28]
70108970:	f7ff fe56 	bl	70108620 <aiPbMgrSendResp>
70108974:	b00d      	add	sp, #52	@ 0x34
70108976:	bd30      	pop	{r4, r5, pc}
70108978:	701083eb 	.word	0x701083eb

7010897c <aiExecCtx>:
7010897c:	e92d 43f8 	stmdb	sp!, {r3, r4, r5, r6, r7, r8, r9, lr}
70108980:	7804      	ldrb	r4, [r0, #0]
70108982:	4607      	mov	r7, r0
70108984:	460d      	mov	r5, r1
70108986:	b9e4      	cbnz	r4, 701089c2 <aiExecCtx+0x46>
70108988:	2903      	cmp	r1, #3
7010898a:	d837      	bhi.n	701089fc <aiExecCtx+0x80>
7010898c:	f44f 72cc 	mov.w	r2, #408	@ 0x198
70108990:	4b1e      	ldr	r3, [pc, #120]	@ (70108a0c <aiExecCtx+0x90>)
70108992:	fb02 3301 	mla	r3, r2, r1, r3
70108996:	f8d3 4170 	ldr.w	r4, [r3, #368]	@ 0x170
7010899a:	b37c      	cbz	r4, 701089fc <aiExecCtx+0x80>
7010899c:	461c      	mov	r4, r3
7010899e:	4e1c      	ldr	r6, [pc, #112]	@ (70108a10 <aiExecCtx+0x94>)
701089a0:	6833      	ldr	r3, [r6, #0]
701089a2:	42a3      	cmp	r3, r4
701089a4:	d00b      	beq.n	701089be <aiExecCtx+0x42>
701089a6:	f8d4 3164 	ldr.w	r3, [r4, #356]	@ 0x164
701089aa:	065b      	lsls	r3, r3, #25
701089ac:	d507      	bpl.n	701089be <aiExecCtx+0x42>
701089ae:	f44f 71cc 	mov.w	r1, #408	@ 0x198
701089b2:	4b16      	ldr	r3, [pc, #88]	@ (70108a0c <aiExecCtx+0x90>)
701089b4:	4628      	mov	r0, r5
701089b6:	fb01 3105 	mla	r1, r1, r5, r3
701089ba:	f001 fa51 	bl	70109e60 <npu_get_instance_by_index>
701089be:	6034      	str	r4, [r6, #0]
701089c0:	e01c      	b.n	701089fc <aiExecCtx+0x80>
701089c2:	4e12      	ldr	r6, [pc, #72]	@ (70108a0c <aiExecCtx+0x90>)
701089c4:	2500      	movs	r5, #0
701089c6:	4634      	mov	r4, r6
701089c8:	f8d6 3170 	ldr.w	r3, [r6, #368]	@ 0x170
701089cc:	b183      	cbz	r3, 701089f0 <aiExecCtx+0x74>
701089ce:	f106 0904 	add.w	r9, r6, #4
701089d2:	4648      	mov	r0, r9
701089d4:	f7f7 fedc 	bl	70100790 <strlen>
701089d8:	4680      	mov	r8, r0
701089da:	4638      	mov	r0, r7
701089dc:	f7f7 fed8 	bl	70100790 <strlen>
701089e0:	4580      	cmp	r8, r0
701089e2:	d105      	bne.n	701089f0 <aiExecCtx+0x74>
701089e4:	4642      	mov	r2, r8
701089e6:	4639      	mov	r1, r7
701089e8:	4648      	mov	r0, r9
701089ea:	f003 fa23 	bl	7010be34 <strncmp>
701089ee:	b140      	cbz	r0, 70108a02 <aiExecCtx+0x86>
701089f0:	3501      	adds	r5, #1
701089f2:	2d04      	cmp	r5, #4
701089f4:	f506 76cc 	add.w	r6, r6, #408	@ 0x198
701089f8:	d1e6      	bne.n	701089c8 <aiExecCtx+0x4c>
701089fa:	2400      	movs	r4, #0
701089fc:	4620      	mov	r0, r4
701089fe:	e8bd 83f8 	ldmia.w	sp!, {r3, r4, r5, r6, r7, r8, r9, pc}
70108a02:	f44f 73cc 	mov.w	r3, #408	@ 0x198
70108a06:	fb03 4405 	mla	r4, r3, r5, r4
70108a0a:	e7c8      	b.n	7010899e <aiExecCtx+0x22>
70108a0c:	34001044 	.word	0x34001044
70108a10:	34001040 	.word	0x34001040

70108a14 <LL_Buffer_addr_start>:
70108a14:	7d02      	ldrb	r2, [r0, #20]
70108a16:	6843      	ldr	r3, [r0, #4]
70108a18:	b102      	cbz	r2, 70108a1c <LL_Buffer_addr_start+0x8>
70108a1a:	681b      	ldr	r3, [r3, #0]
70108a1c:	6880      	ldr	r0, [r0, #8]
70108a1e:	4418      	add	r0, r3
70108a20:	4770      	bx	lr
	...

70108a24 <fill_tensor_desc_msg>:
70108a24:	b5f8      	push	{r3, r4, r5, r6, r7, lr}
70108a26:	461e      	mov	r6, r3
70108a28:	8c03      	ldrh	r3, [r0, #32]
70108a2a:	4604      	mov	r4, r0
70108a2c:	6033      	str	r3, [r6, #0]
70108a2e:	69c3      	ldr	r3, [r0, #28]
70108a30:	4617      	mov	r7, r2
70108a32:	6073      	str	r3, [r6, #4]
70108a34:	2304      	movs	r3, #4
70108a36:	2240      	movs	r2, #64	@ 0x40
70108a38:	6800      	ldr	r0, [r0, #0]
70108a3a:	60b3      	str	r3, [r6, #8]
70108a3c:	460d      	mov	r5, r1
70108a3e:	f7ff fd97 	bl	70108570 <aiPbStrCopy>
70108a42:	f894 1023 	ldrb.w	r1, [r4, #35]	@ 0x23
70108a46:	2964      	cmp	r1, #100	@ 0x64
70108a48:	d128      	bne.n	70108a9c <fill_tensor_desc_msg+0x78>
70108a4a:	f894 1026 	ldrb.w	r1, [r4, #38]	@ 0x26
70108a4e:	200f      	movs	r0, #15
70108a50:	fab1 f181 	clz	r1, r1
70108a54:	f994 3025 	ldrsb.w	r3, [r4, #37]	@ 0x25
70108a58:	f894 2028 	ldrb.w	r2, [r4, #40]	@ 0x28
70108a5c:	0949      	lsrs	r1, r1, #5
70108a5e:	f7ff fd55 	bl	7010850c <aiPbTensorFormat>
70108a62:	2301      	movs	r3, #1
70108a64:	f8b4 e020 	ldrh.w	lr, [r4, #32]
70108a68:	646b      	str	r3, [r5, #68]	@ 0x44
70108a6a:	f10e 0e01 	add.w	lr, lr, #1
70108a6e:	2300      	movs	r3, #0
70108a70:	f04e e001 	dls	lr, lr
70108a74:	6428      	str	r0, [r5, #64]	@ 0x40
70108a76:	662f      	str	r7, [r5, #96]	@ 0x60
70108a78:	f1be 0e01 	subs.w	lr, lr, #1
70108a7c:	d12c      	bne.n	70108ad8 <fill_tensor_desc_msg+0xb4>
70108a7e:	6833      	ldr	r3, [r6, #0]
70108a80:	64ab      	str	r3, [r5, #72]	@ 0x48
70108a82:	6b23      	ldr	r3, [r4, #48]	@ 0x30
70108a84:	b383      	cbz	r3, 70108ae8 <fill_tensor_desc_msg+0xc4>
70108a86:	681b      	ldr	r3, [r3, #0]
70108a88:	656b      	str	r3, [r5, #84]	@ 0x54
70108a8a:	6b63      	ldr	r3, [r4, #52]	@ 0x34
70108a8c:	f9b3 3000 	ldrsh.w	r3, [r3]
70108a90:	4620      	mov	r0, r4
70108a92:	65ab      	str	r3, [r5, #88]	@ 0x58
70108a94:	f7ff ffbe 	bl	70108a14 <LL_Buffer_addr_start>
70108a98:	65e8      	str	r0, [r5, #92]	@ 0x5c
70108a9a:	bdf8      	pop	{r3, r4, r5, r6, r7, pc}
70108a9c:	2901      	cmp	r1, #1
70108a9e:	d104      	bne.n	70108aaa <fill_tensor_desc_msg+0x86>
70108aa0:	2300      	movs	r3, #0
70108aa2:	4608      	mov	r0, r1
70108aa4:	f894 2028 	ldrb.w	r2, [r4, #40]	@ 0x28
70108aa8:	e7d9      	b.n	70108a5e <fill_tensor_desc_msg+0x3a>
70108aaa:	290d      	cmp	r1, #13
70108aac:	d104      	bne.n	70108ab8 <fill_tensor_desc_msg+0x94>
70108aae:	2300      	movs	r3, #0
70108ab0:	2208      	movs	r2, #8
70108ab2:	2101      	movs	r1, #1
70108ab4:	2003      	movs	r0, #3
70108ab6:	e7d2      	b.n	70108a5e <fill_tensor_desc_msg+0x3a>
70108ab8:	2911      	cmp	r1, #17
70108aba:	bf96      	itet	ls
70108abc:	4b0c      	ldrls	r3, [pc, #48]	@ (70108af0 <fill_tensor_desc_msg+0xcc>)
70108abe:	2101      	movhi	r1, #1
70108ac0:	fa43 f101 	asrls.w	r1, r3, r1
70108ac4:	f04f 0002 	mov.w	r0, #2
70108ac8:	f04f 0300 	mov.w	r3, #0
70108acc:	f894 2028 	ldrb.w	r2, [r4, #40]	@ 0x28
70108ad0:	bf98      	it	ls
70108ad2:	f001 0101 	andls.w	r1, r1, #1
70108ad6:	e7c2      	b.n	70108a5e <fill_tensor_desc_msg+0x3a>
70108ad8:	69e1      	ldr	r1, [r4, #28]
70108ada:	6c6a      	ldr	r2, [r5, #68]	@ 0x44
70108adc:	f851 1023 	ldr.w	r1, [r1, r3, lsl #2]
70108ae0:	3301      	adds	r3, #1
70108ae2:	434a      	muls	r2, r1
70108ae4:	646a      	str	r2, [r5, #68]	@ 0x44
70108ae6:	e7c7      	b.n	70108a78 <fill_tensor_desc_msg+0x54>
70108ae8:	2200      	movs	r2, #0
70108aea:	656a      	str	r2, [r5, #84]	@ 0x54
70108aec:	e7d0      	b.n	70108a90 <fill_tensor_desc_msg+0x6c>
70108aee:	bf00      	nop
70108af0:	fffcfebf 	.word	0xfffcfebf

70108af4 <encode_ll_buffer_to_tensor_desc>:
70108af4:	b430      	push	{r4, r5}
70108af6:	460d      	mov	r5, r1
70108af8:	4611      	mov	r1, r2
70108afa:	e9d5 4200 	ldrd	r4, r2, [r5]
70108afe:	eb04 0480 	add.w	r4, r4, r0, lsl #2
70108b02:	b922      	cbnz	r2, 70108b0e <encode_ll_buffer_to_tensor_desc+0x1a>
70108b04:	6d60      	ldr	r0, [r4, #84]	@ 0x54
70108b06:	692a      	ldr	r2, [r5, #16]
70108b08:	bc30      	pop	{r4, r5}
70108b0a:	f7ff bf8b 	b.w	70108a24 <fill_tensor_desc_msg>
70108b0e:	f8d4 00d4 	ldr.w	r0, [r4, #212]	@ 0xd4
70108b12:	e7f8      	b.n	70108b06 <encode_ll_buffer_to_tensor_desc+0x12>

70108b14 <print_ll_io_buffer>:
70108b14:	e92d 41f0 	stmdb	sp!, {r4, r5, r6, r7, r8, lr}
70108b18:	8c06      	ldrh	r6, [r0, #32]
70108b1a:	b08c      	sub	sp, #48	@ 0x30
70108b1c:	af03      	add	r7, sp, #12
70108b1e:	f106 0e01 	add.w	lr, r6, #1
70108b22:	4604      	mov	r4, r0
70108b24:	463a      	mov	r2, r7
70108b26:	2300      	movs	r3, #0
70108b28:	f04e e001 	dls	lr, lr
70108b2c:	f1be 0e01 	subs.w	lr, lr, #1
70108b30:	d131      	bne.n	70108b96 <print_ll_io_buffer+0x82>
70108b32:	6821      	ldr	r1, [r4, #0]
70108b34:	4820      	ldr	r0, [pc, #128]	@ (70108bb8 <print_ll_io_buffer+0xa4>)
70108b36:	f7fd fbf3 	bl	70106320 <lc_print>
70108b3a:	4620      	mov	r0, r4
70108b3c:	f7ff ff6a 	bl	70108a14 <LL_Buffer_addr_start>
70108b40:	4605      	mov	r5, r0
70108b42:	4620      	mov	r0, r4
70108b44:	f000 ffb6 	bl	70109ab4 <get_ll_buffer_size>
70108b48:	4629      	mov	r1, r5
70108b4a:	4602      	mov	r2, r0
70108b4c:	f894 3028 	ldrb.w	r3, [r4, #40]	@ 0x28
70108b50:	481a      	ldr	r0, [pc, #104]	@ (70108bbc <print_ll_io_buffer+0xa8>)
70108b52:	f7fd fbe5 	bl	70106320 <lc_print>
70108b56:	4632      	mov	r2, r6
70108b58:	f894 1023 	ldrb.w	r1, [r4, #35]	@ 0x23
70108b5c:	4818      	ldr	r0, [pc, #96]	@ (70108bc0 <print_ll_io_buffer+0xac>)
70108b5e:	f7fd fbdf 	bl	70106320 <lc_print>
70108b62:	2500      	movs	r5, #0
70108b64:	f106 38ff 	add.w	r8, r6, #4294967295
70108b68:	42ae      	cmp	r6, r5
70108b6a:	d81b      	bhi.n	70108ba4 <print_ll_io_buffer+0x90>
70108b6c:	4815      	ldr	r0, [pc, #84]	@ (70108bc4 <print_ll_io_buffer+0xb0>)
70108b6e:	f7fd fbd7 	bl	70106320 <lc_print>
70108b72:	6b23      	ldr	r3, [r4, #48]	@ 0x30
70108b74:	b163      	cbz	r3, 70108b90 <print_ll_io_buffer+0x7c>
70108b76:	edd3 7a00 	vldr	s15, [r3]
70108b7a:	eeb7 7ae7 	vcvt.f64.f32	d7, s15
70108b7e:	6b63      	ldr	r3, [r4, #52]	@ 0x34
70108b80:	4811      	ldr	r0, [pc, #68]	@ (70108bc8 <print_ll_io_buffer+0xb4>)
70108b82:	f9b3 3000 	ldrsh.w	r3, [r3]
70108b86:	9300      	str	r3, [sp, #0]
70108b88:	ec53 2b17 	vmov	r2, r3, d7
70108b8c:	f7fd fbc8 	bl	70106320 <lc_print>
70108b90:	b00c      	add	sp, #48	@ 0x30
70108b92:	e8bd 81f0 	ldmia.w	sp!, {r4, r5, r6, r7, r8, pc}
70108b96:	69e1      	ldr	r1, [r4, #28]
70108b98:	f851 1023 	ldr.w	r1, [r1, r3, lsl #2]
70108b9c:	3301      	adds	r3, #1
70108b9e:	f842 1f04 	str.w	r1, [r2, #4]!
70108ba2:	e7c3      	b.n	70108b2c <print_ll_io_buffer+0x18>
70108ba4:	45a8      	cmp	r8, r5
70108ba6:	f857 1f04 	ldr.w	r1, [r7, #4]!
70108baa:	bf0c      	ite	eq
70108bac:	4807      	ldreq	r0, [pc, #28]	@ (70108bcc <print_ll_io_buffer+0xb8>)
70108bae:	4808      	ldrne	r0, [pc, #32]	@ (70108bd0 <print_ll_io_buffer+0xbc>)
70108bb0:	f7fd fbb6 	bl	70106320 <lc_print>
70108bb4:	3501      	adds	r5, #1
70108bb6:	e7d7      	b.n	70108b68 <print_ll_io_buffer+0x54>
70108bb8:	7010c944 	.word	0x7010c944
70108bbc:	7010c954 	.word	0x7010c954
70108bc0:	7010c97c 	.word	0x7010c97c
70108bc4:	7010c99d 	.word	0x7010c99d
70108bc8:	7010c9a1 	.word	0x7010c9a1
70108bcc:	7010c996 	.word	0x7010c996
70108bd0:	7010c999 	.word	0x7010c999

70108bd4 <send_ai_io_tensor.constprop.0.isra.0>:
70108bd4:	e92d 43f0 	stmdb	sp!, {r4, r5, r6, r7, r8, r9, lr}
70108bd8:	461d      	mov	r5, r3
70108bda:	2311      	movs	r3, #17
70108bdc:	460c      	mov	r4, r1
70108bde:	b089      	sub	sp, #36	@ 0x24
70108be0:	f8dd 8040 	ldr.w	r8, [sp, #64]	@ 0x40
70108be4:	f10d 0904 	add.w	r9, sp, #4
70108be8:	80cb      	strh	r3, [r1, #6]
70108bea:	4606      	mov	r6, r0
70108bec:	464b      	mov	r3, r9
70108bee:	4628      	mov	r0, r5
70108bf0:	4617      	mov	r7, r2
70108bf2:	3108      	adds	r1, #8
70108bf4:	4642      	mov	r2, r8
70108bf6:	f7ff ff15 	bl	70108a24 <fill_tensor_desc_msg>
70108bfa:	4b11      	ldr	r3, [pc, #68]	@ (70108c40 <send_ai_io_tensor.constprop.0.isra.0+0x6c>)
70108bfc:	4628      	mov	r0, r5
70108bfe:	e9c4 3915 	strd	r3, r9, [r4, #84]	@ 0x54
70108c02:	f7ff ff07 	bl	70108a14 <LL_Buffer_addr_start>
70108c06:	f418 7f00 	tst.w	r8, #512	@ 0x200
70108c0a:	6760      	str	r0, [r4, #116]	@ 0x74
70108c0c:	d115      	bne.n	70108c3a <send_ai_io_tensor.constprop.0.isra.0+0x66>
70108c0e:	4628      	mov	r0, r5
70108c10:	f000 ff50 	bl	70109ab4 <get_ll_buffer_size>
70108c14:	2300      	movs	r3, #0
70108c16:	6f62      	ldr	r2, [r4, #116]	@ 0x74
70108c18:	e9cd 3004 	strd	r3, r0, [sp, #16]
70108c1c:	e9cd 2306 	strd	r2, r3, [sp, #24]
70108c20:	4b08      	ldr	r3, [pc, #32]	@ (70108c44 <send_ai_io_tensor.constprop.0.isra.0+0x70>)
70108c22:	6720      	str	r0, [r4, #112]	@ 0x70
70108c24:	67a3      	str	r3, [r4, #120]	@ 0x78
70108c26:	ab04      	add	r3, sp, #16
70108c28:	463a      	mov	r2, r7
70108c2a:	4621      	mov	r1, r4
70108c2c:	4630      	mov	r0, r6
70108c2e:	67e3      	str	r3, [r4, #124]	@ 0x7c
70108c30:	f7ff fcf6 	bl	70108620 <aiPbMgrSendResp>
70108c34:	b009      	add	sp, #36	@ 0x24
70108c36:	e8bd 83f0 	ldmia.w	sp!, {r4, r5, r6, r7, r8, r9, pc}
70108c3a:	2000      	movs	r0, #0
70108c3c:	e7ea      	b.n	70108c14 <send_ai_io_tensor.constprop.0.isra.0+0x40>
70108c3e:	bf00      	nop
70108c40:	701083eb 	.word	0x701083eb
70108c44:	70108441 	.word	0x70108441

70108c48 <_print_debug>:
70108c48:	b40e      	push	{r1, r2, r3}
70108c4a:	b517      	push	{r0, r1, r2, r4, lr}
70108c4c:	b188      	cbz	r0, 70108c72 <_print_debug+0x2a>
70108c4e:	4c0f      	ldr	r4, [pc, #60]	@ (70108c8c <_print_debug+0x44>)
70108c50:	ab06      	add	r3, sp, #24
70108c52:	21a0      	movs	r1, #160	@ 0xa0
70108c54:	4620      	mov	r0, r4
70108c56:	9a05      	ldr	r2, [sp, #20]
70108c58:	9301      	str	r3, [sp, #4]
70108c5a:	f7fd fb73 	bl	70106344 <lc_vsnprint>
70108c5e:	2100      	movs	r1, #0
70108c60:	1903      	adds	r3, r0, r4
70108c62:	3001      	adds	r0, #1
70108c64:	3801      	subs	r0, #1
70108c66:	d109      	bne.n	70108c7c <_print_debug+0x34>
70108c68:	2101      	movs	r1, #1
70108c6a:	4a08      	ldr	r2, [pc, #32]	@ (70108c8c <_print_debug+0x44>)
70108c6c:	4608      	mov	r0, r1
70108c6e:	f7ff fd4b 	bl	70108708 <aiPbMgrSendLogV2>
70108c72:	b003      	add	sp, #12
70108c74:	e8bd 4010 	ldmia.w	sp!, {r4, lr}
70108c78:	b003      	add	sp, #12
70108c7a:	4770      	bx	lr
70108c7c:	781a      	ldrb	r2, [r3, #0]
70108c7e:	2a0a      	cmp	r2, #10
70108c80:	d001      	beq.n	70108c86 <_print_debug+0x3e>
70108c82:	2a0d      	cmp	r2, #13
70108c84:	d100      	bne.n	70108c88 <_print_debug+0x40>
70108c86:	7019      	strb	r1, [r3, #0]
70108c88:	3b01      	subs	r3, #1
70108c8a:	e7eb      	b.n	70108c64 <_print_debug+0x1c>
70108c8c:	340016a4 	.word	0x340016a4

70108c90 <aiPbCmdNNInfo>:
70108c90:	b5f0      	push	{r4, r5, r6, r7, lr}
70108c92:	4606      	mov	r6, r0
70108c94:	460c      	mov	r4, r1
70108c96:	b0b3      	sub	sp, #204	@ 0xcc
70108c98:	6881      	ldr	r1, [r0, #8]
70108c9a:	300c      	adds	r0, #12
70108c9c:	f7ff fe6e 	bl	7010897c <aiExecCtx>
70108ca0:	4605      	mov	r5, r0
70108ca2:	2800      	cmp	r0, #0
70108ca4:	f000 810f 	beq.w	70108ec6 <aiPbCmdNNInfo+0x236>
70108ca8:	a829      	add	r0, sp, #164	@ 0xa4
70108caa:	f7fd fbcb 	bl	70106444 <getSysConf>
70108cae:	2001      	movs	r0, #1
70108cb0:	4989      	ldr	r1, [pc, #548]	@ (70108ed8 <aiPbCmdNNInfo+0x248>)
70108cb2:	f7ff ffc9 	bl	70108c48 <_print_debug>
70108cb6:	2001      	movs	r0, #1
70108cb8:	9a2c      	ldr	r2, [sp, #176]	@ 0xb0
70108cba:	4988      	ldr	r1, [pc, #544]	@ (70108edc <aiPbCmdNNInfo+0x24c>)
70108cbc:	f7ff ffc4 	bl	70108c48 <_print_debug>
70108cc0:	2001      	movs	r0, #1
70108cc2:	9a29      	ldr	r2, [sp, #164]	@ 0xa4
70108cc4:	4986      	ldr	r1, [pc, #536]	@ (70108ee0 <aiPbCmdNNInfo+0x250>)
70108cc6:	f7ff ffbf 	bl	70108c48 <_print_debug>
70108cca:	2001      	movs	r0, #1
70108ccc:	9a2a      	ldr	r2, [sp, #168]	@ 0xa8
70108cce:	4985      	ldr	r1, [pc, #532]	@ (70108ee4 <aiPbCmdNNInfo+0x254>)
70108cd0:	f7ff ffba 	bl	70108c48 <_print_debug>
70108cd4:	2001      	movs	r0, #1
70108cd6:	9a2f      	ldr	r2, [sp, #188]	@ 0xbc
70108cd8:	4983      	ldr	r1, [pc, #524]	@ (70108ee8 <aiPbCmdNNInfo+0x258>)
70108cda:	f7ff ffb5 	bl	70108c48 <_print_debug>
70108cde:	9a30      	ldr	r2, [sp, #192]	@ 0xc0
70108ce0:	2001      	movs	r0, #1
70108ce2:	4982      	ldr	r1, [pc, #520]	@ (70108eec <aiPbCmdNNInfo+0x25c>)
70108ce4:	f7ff ffb0 	bl	70108c48 <_print_debug>
70108ce8:	4981      	ldr	r1, [pc, #516]	@ (70108ef0 <aiPbCmdNNInfo+0x260>)
70108cea:	2001      	movs	r0, #1
70108cec:	f7ff ffac 	bl	70108c48 <_print_debug>
70108cf0:	2316      	movs	r3, #22
70108cf2:	a823      	add	r0, sp, #140	@ 0x8c
70108cf4:	80e3      	strh	r3, [r4, #6]
70108cf6:	f7ff f971 	bl	70107fdc <stai_runtime_get_info>
70108cfa:	f104 0308 	add.w	r3, r4, #8
70108cfe:	4618      	mov	r0, r3
70108d00:	f44f 72ac 	mov.w	r2, #344	@ 0x158
70108d04:	2100      	movs	r1, #0
70108d06:	f002 fe9d 	bl	7010ba44 <memset>
70108d0a:	1d2f      	adds	r7, r5, #4
70108d0c:	2240      	movs	r2, #64	@ 0x40
70108d0e:	4601      	mov	r1, r0
70108d10:	4638      	mov	r0, r7
70108d12:	f7ff fc2d 	bl	70108570 <aiPbStrCopy>
70108d16:	f89d 209c 	ldrb.w	r2, [sp, #156]	@ 0x9c
70108d1a:	2a01      	cmp	r2, #1
70108d1c:	4613      	mov	r3, r2
70108d1e:	d00f      	beq.n	70108d40 <aiPbCmdNNInfo+0xb0>
70108d20:	2a10      	cmp	r2, #16
70108d22:	f000 80c8 	beq.w	70108eb6 <aiPbCmdNNInfo+0x226>
70108d26:	2a20      	cmp	r2, #32
70108d28:	f000 80c7 	beq.w	70108eba <aiPbCmdNNInfo+0x22a>
70108d2c:	2a30      	cmp	r2, #48	@ 0x30
70108d2e:	f000 80c6 	beq.w	70108ebe <aiPbCmdNNInfo+0x22e>
70108d32:	2a50      	cmp	r2, #80	@ 0x50
70108d34:	f000 80c5 	beq.w	70108ec2 <aiPbCmdNNInfo+0x232>
70108d38:	2a40      	cmp	r2, #64	@ 0x40
70108d3a:	bf0c      	ite	eq
70108d3c:	2303      	moveq	r3, #3
70108d3e:	2300      	movne	r3, #0
70108d40:	041b      	lsls	r3, r3, #16
70108d42:	f043 0204 	orr.w	r2, r3, #4
70108d46:	64a2      	str	r2, [r4, #72]	@ 0x48
70108d48:	f8d5 2164 	ldr.w	r2, [r5, #356]	@ 0x164
70108d4c:	07d1      	lsls	r1, r2, #31
70108d4e:	bf46      	itte	mi
70108d50:	f443 6380 	orrmi.w	r3, r3, #1024	@ 0x400
70108d54:	f043 0304 	orrmi.w	r3, r3, #4
70108d58:	f443 7382 	orrpl.w	r3, r3, #260	@ 0x104
70108d5c:	64a3      	str	r3, [r4, #72]	@ 0x48
70108d5e:	f8d5 2164 	ldr.w	r2, [r5, #356]	@ 0x164
70108d62:	0712      	lsls	r2, r2, #28
70108d64:	bf44      	itt	mi
70108d66:	f043 6380 	orrmi.w	r3, r3, #67108864	@ 0x4000000
70108d6a:	64a3      	strmi	r3, [r4, #72]	@ 0x48
70108d6c:	f8d5 3164 	ldr.w	r3, [r5, #356]	@ 0x164
70108d70:	2240      	movs	r2, #64	@ 0x40
70108d72:	0798      	lsls	r0, r3, #30
70108d74:	bf42      	ittt	mi
70108d76:	6ca3      	ldrmi	r3, [r4, #72]	@ 0x48
70108d78:	f043 7300 	orrmi.w	r3, r3, #33554432	@ 0x2000000
70108d7c:	64a3      	strmi	r3, [r4, #72]	@ 0x48
70108d7e:	f8d5 3164 	ldr.w	r3, [r5, #356]	@ 0x164
70108d82:	0759      	lsls	r1, r3, #29
70108d84:	bf48      	it	mi
70108d86:	6ca3      	ldrmi	r3, [r4, #72]	@ 0x48
70108d88:	f104 018c 	add.w	r1, r4, #140	@ 0x8c
70108d8c:	bf44      	itt	mi
70108d8e:	f043 7380 	orrmi.w	r3, r3, #16777216	@ 0x1000000
70108d92:	64a3      	strmi	r3, [r4, #72]	@ 0x48
70108d94:	6c68      	ldr	r0, [r5, #68]	@ 0x44
70108d96:	f7ff fbeb 	bl	70108570 <aiPbStrCopy>
70108d9a:	9b24      	ldr	r3, [sp, #144]	@ 0x90
70108d9c:	2240      	movs	r2, #64	@ 0x40
70108d9e:	ba1b      	rev	r3, r3
70108da0:	f8c4 30cc 	str.w	r3, [r4, #204]	@ 0xcc
70108da4:	6ceb      	ldr	r3, [r5, #76]	@ 0x4c
70108da6:	f504 718a 	add.w	r1, r4, #276	@ 0x114
70108daa:	f8c4 30d0 	str.w	r3, [r4, #208]	@ 0xd0
70108dae:	6ca8      	ldr	r0, [r5, #72]	@ 0x48
70108db0:	f7ff fbde 	bl	70108570 <aiPbStrCopy>
70108db4:	6ca8      	ldr	r0, [r5, #72]	@ 0x48
70108db6:	f7f7 fceb 	bl	70100790 <strlen>
70108dba:	f500 718a 	add.w	r1, r0, #276	@ 0x114
70108dbe:	f1c0 023f 	rsb	r2, r0, #63	@ 0x3f
70108dc2:	4421      	add	r1, r4
70108dc4:	9826      	ldr	r0, [sp, #152]	@ 0x98
70108dc6:	f7fd fa87 	bl	701062d8 <uint32_to_str>
70108dca:	2200      	movs	r2, #0
70108dcc:	2300      	movs	r3, #0
70108dce:	e9c4 2336 	strd	r2, r3, [r4, #216]	@ 0xd8
70108dd2:	f8d5 3158 	ldr.w	r3, [r5, #344]	@ 0x158
70108dd6:	4947      	ldr	r1, [pc, #284]	@ (70108ef4 <aiPbCmdNNInfo+0x264>)
70108dd8:	f8c4 30e0 	str.w	r3, [r4, #224]	@ 0xe0
70108ddc:	f8d5 3168 	ldr.w	r3, [r5, #360]	@ 0x168
70108de0:	4845      	ldr	r0, [pc, #276]	@ (70108ef8 <aiPbCmdNNInfo+0x268>)
70108de2:	f8c4 3158 	str.w	r3, [r4, #344]	@ 0x158
70108de6:	f8d5 316c 	ldr.w	r3, [r5, #364]	@ 0x16c
70108dea:	9003      	str	r0, [sp, #12]
70108dec:	f8c4 3154 	str.w	r3, [r4, #340]	@ 0x154
70108df0:	f8d5 3164 	ldr.w	r3, [r5, #356]	@ 0x164
70108df4:	9006      	str	r0, [sp, #24]
70108df6:	06da      	lsls	r2, r3, #27
70108df8:	bf4c      	ite	mi
70108dfa:	2201      	movmi	r2, #1
70108dfc:	f240 4201 	movwpl	r2, #1025	@ 0x401
70108e00:	2300      	movs	r3, #0
70108e02:	e9cd 3212 	strd	r3, r2, [sp, #72]	@ 0x48
70108e06:	e9cd 3310 	strd	r3, r3, [sp, #64]	@ 0x40
70108e0a:	6d2b      	ldr	r3, [r5, #80]	@ 0x50
70108e0c:	f8c4 10e8 	str.w	r1, [r4, #232]	@ 0xe8
70108e10:	f8c4 30e4 	str.w	r3, [r4, #228]	@ 0xe4
70108e14:	9304      	str	r3, [sp, #16]
70108e16:	ab03      	add	r3, sp, #12
70108e18:	f8c4 30ec 	str.w	r3, [r4, #236]	@ 0xec
70108e1c:	f8d5 3164 	ldr.w	r3, [r5, #356]	@ 0x164
70108e20:	aa0f      	add	r2, sp, #60	@ 0x3c
70108e22:	069b      	lsls	r3, r3, #26
70108e24:	bf4c      	ite	mi
70108e26:	f04f 0c02 	movmi.w	ip, #2
70108e2a:	f240 4c02 	movwpl	ip, #1026	@ 0x402
70108e2e:	9205      	str	r2, [sp, #20]
70108e30:	2200      	movs	r2, #0
70108e32:	2301      	movs	r3, #1
70108e34:	6d68      	ldr	r0, [r5, #84]	@ 0x54
70108e36:	e9cd 2c17 	strd	r2, ip, [sp, #92]	@ 0x5c
70108e3a:	e9c4 013c 	strd	r0, r1, [r4, #240]	@ 0xf0
70108e3e:	9007      	str	r0, [sp, #28]
70108e40:	f10d 0c50 	add.w	ip, sp, #80	@ 0x50
70108e44:	a806      	add	r0, sp, #24
70108e46:	e9cd 3215 	strd	r3, r2, [sp, #84]	@ 0x54
70108e4a:	970f      	str	r7, [sp, #60]	@ 0x3c
70108e4c:	9714      	str	r7, [sp, #80]	@ 0x50
70108e4e:	f8cd c020 	str.w	ip, [sp, #32]
70108e52:	f8c4 00f8 	str.w	r0, [r4, #248]	@ 0xf8
70108e56:	2002      	movs	r0, #2
70108e58:	f04f 0c08 	mov.w	ip, #8
70108e5c:	9719      	str	r7, [sp, #100]	@ 0x64
70108e5e:	971e      	str	r7, [sp, #120]	@ 0x78
70108e60:	2703      	movs	r7, #3
70108e62:	901a      	str	r0, [sp, #104]	@ 0x68
70108e64:	f505 70ae 	add.w	r0, r5, #348	@ 0x15c
70108e68:	e9cd 021b 	strd	r0, r2, [sp, #108]	@ 0x6c
70108e6c:	4823      	ldr	r0, [pc, #140]	@ (70108efc <aiPbCmdNNInfo+0x26c>)
70108e6e:	f10d 0e64 	add.w	lr, sp, #100	@ 0x64
70108e72:	e9cd 0309 	strd	r0, r3, [sp, #36]	@ 0x24
70108e76:	e9c4 313f 	strd	r3, r1, [r4, #252]	@ 0xfc
70108e7a:	e9cd 030c 	strd	r0, r3, [sp, #48]	@ 0x30
70108e7e:	e9c4 3142 	strd	r3, r1, [r4, #264]	@ 0x108
70108e82:	a81e      	add	r0, sp, #120	@ 0x78
70108e84:	f8cd e02c 	str.w	lr, [sp, #44]	@ 0x2c
70108e88:	ab0c      	add	r3, sp, #48	@ 0x30
70108e8a:	f10d 0e24 	add.w	lr, sp, #36	@ 0x24
70108e8e:	f505 75b0 	add.w	r5, r5, #352	@ 0x160
70108e92:	900e      	str	r0, [sp, #56]	@ 0x38
70108e94:	4621      	mov	r1, r4
70108e96:	4630      	mov	r0, r6
70108e98:	f8c4 e104 	str.w	lr, [r4, #260]	@ 0x104
70108e9c:	f8c4 3110 	str.w	r3, [r4, #272]	@ 0x110
70108ea0:	e9cd 5220 	strd	r5, r2, [sp, #128]	@ 0x80
70108ea4:	f8cd c074 	str.w	ip, [sp, #116]	@ 0x74
70108ea8:	971f      	str	r7, [sp, #124]	@ 0x7c
70108eaa:	f8cd c088 	str.w	ip, [sp, #136]	@ 0x88
70108eae:	f7ff fbb7 	bl	70108620 <aiPbMgrSendResp>
70108eb2:	b033      	add	sp, #204	@ 0xcc
70108eb4:	bdf0      	pop	{r4, r5, r6, r7, pc}
70108eb6:	2306      	movs	r3, #6
70108eb8:	e742      	b.n	70108d40 <aiPbCmdNNInfo+0xb0>
70108eba:	2305      	movs	r3, #5
70108ebc:	e740      	b.n	70108d40 <aiPbCmdNNInfo+0xb0>
70108ebe:	2302      	movs	r3, #2
70108ec0:	e73e      	b.n	70108d40 <aiPbCmdNNInfo+0xb0>
70108ec2:	2304      	movs	r3, #4
70108ec4:	e73c      	b.n	70108d40 <aiPbCmdNNInfo+0xb0>
70108ec6:	2304      	movs	r3, #4
70108ec8:	4621      	mov	r1, r4
70108eca:	461a      	mov	r2, r3
70108ecc:	4630      	mov	r0, r6
70108ece:	9300      	str	r3, [sp, #0]
70108ed0:	f7ff fbfc 	bl	701086cc <aiPbMgrSendAck>
70108ed4:	e7ed      	b.n	70108eb2 <aiPbCmdNNInfo+0x222>
70108ed6:	bf00      	nop
70108ed8:	7010c9be 	.word	0x7010c9be
70108edc:	7010c9d5 	.word	0x7010c9d5
70108ee0:	7010c9ec 	.word	0x7010c9ec
70108ee4:	7010ca03 	.word	0x7010ca03
70108ee8:	7010ca1a 	.word	0x7010ca1a
70108eec:	7010ca31 	.word	0x7010ca31
70108ef0:	7010ca48 	.word	0x7010ca48
70108ef4:	701085bd 	.word	0x701085bd
70108ef8:	70108af5 	.word	0x70108af5
70108efc:	701088f5 	.word	0x701088f5

70108f00 <aiPbCmdNNRun>:
70108f00:	e92d 4ff0 	stmdb	sp!, {r4, r5, r6, r7, r8, r9, sl, fp, lr}
70108f04:	4605      	mov	r5, r0
70108f06:	460e      	mov	r6, r1
70108f08:	b099      	sub	sp, #100	@ 0x64
70108f0a:	f04f 31ff 	mov.w	r1, #4294967295
70108f0e:	300c      	adds	r0, #12
70108f10:	f7ff fd34 	bl	7010897c <aiExecCtx>
70108f14:	4604      	mov	r4, r0
70108f16:	b948      	cbnz	r0, 70108f2c <aiPbCmdNNRun+0x2c>
70108f18:	2304      	movs	r3, #4
70108f1a:	9300      	str	r3, [sp, #0]
70108f1c:	2204      	movs	r2, #4
70108f1e:	4631      	mov	r1, r6
70108f20:	4628      	mov	r0, r5
70108f22:	f7ff fbd3 	bl	701086cc <aiPbMgrSendAck>
70108f26:	b019      	add	sp, #100	@ 0x64
70108f28:	e8bd 8ff0 	ldmia.w	sp!, {r4, r5, r6, r7, r8, r9, sl, fp, pc}
70108f2c:	4b9e      	ldr	r3, [pc, #632]	@ (701091a8 <aiPbCmdNNRun+0x2a8>)
70108f2e:	499f      	ldr	r1, [pc, #636]	@ (701091ac <aiPbCmdNNRun+0x2ac>)
70108f30:	6018      	str	r0, [r3, #0]
70108f32:	f64f 73ff 	movw	r3, #65535	@ 0xffff
70108f36:	68a8      	ldr	r0, [r5, #8]
70108f38:	f8a4 3194 	strh.w	r3, [r4, #404]	@ 0x194
70108f3c:	2300      	movs	r3, #0
70108f3e:	0742      	lsls	r2, r0, #29
70108f40:	f884 3191 	strb.w	r3, [r4, #401]	@ 0x191
70108f44:	bf4d      	iteet	mi
70108f46:	f240 1301 	movwmi	r3, #257	@ 0x101
70108f4a:	f3c0 0340 	ubfxpl	r3, r0, #1, #1
70108f4e:	f884 3190 	strbpl.w	r3, [r4, #400]	@ 0x190
70108f52:	f8a4 3190 	strhmi.w	r3, [r4, #400]	@ 0x190
70108f56:	f3c0 2340 	ubfx	r3, r0, #9, #1
70108f5a:	f884 3192 	strb.w	r3, [r4, #402]	@ 0x192
70108f5e:	6ceb      	ldr	r3, [r5, #76]	@ 0x4c
70108f60:	f3c0 2000 	ubfx	r0, r0, #8, #1
70108f64:	0a1b      	lsrs	r3, r3, #8
70108f66:	2204      	movs	r2, #4
70108f68:	f884 0193 	strb.w	r0, [r4, #403]	@ 0x193
70108f6c:	f8c4 3178 	str.w	r3, [r4, #376]	@ 0x178
70108f70:	f7ff fe6a 	bl	70108c48 <_print_debug>
70108f74:	f894 1192 	ldrb.w	r1, [r4, #402]	@ 0x192
70108f78:	f894 3191 	ldrb.w	r3, [r4, #401]	@ 0x191
70108f7c:	f894 2190 	ldrb.w	r2, [r4, #400]	@ 0x190
70108f80:	f894 0193 	ldrb.w	r0, [r4, #403]	@ 0x193
70108f84:	9100      	str	r1, [sp, #0]
70108f86:	498a      	ldr	r1, [pc, #552]	@ (701091b0 <aiPbCmdNNRun+0x2b0>)
70108f88:	f7ff fe5e 	bl	70108c48 <_print_debug>
70108f8c:	6da0      	ldr	r0, [r4, #88]	@ 0x58
70108f8e:	f894 7193 	ldrb.w	r7, [r4, #403]	@ 0x193
70108f92:	f000 fd8f 	bl	70109ab4 <get_ll_buffer_size>
70108f96:	68ab      	ldr	r3, [r5, #8]
70108f98:	4602      	mov	r2, r0
70108f9a:	9300      	str	r3, [sp, #0]
70108f9c:	6ceb      	ldr	r3, [r5, #76]	@ 0x4c
70108f9e:	4638      	mov	r0, r7
70108fa0:	4984      	ldr	r1, [pc, #528]	@ (701091b4 <aiPbCmdNNRun+0x2b4>)
70108fa2:	f7ff fe51 	bl	70108c48 <_print_debug>
70108fa6:	f8d4 0170 	ldr.w	r0, [r4, #368]	@ 0x170
70108faa:	f000 fcc9 	bl	70109940 <connect_input_buffers>
70108fae:	f8d4 0170 	ldr.w	r0, [r4, #368]	@ 0x170
70108fb2:	f000 fcc6 	bl	70109942 <connect_output_buffers>
70108fb6:	f104 0354 	add.w	r3, r4, #84	@ 0x54
70108fba:	4698      	mov	r8, r3
70108fbc:	2700      	movs	r7, #0
70108fbe:	9306      	str	r3, [sp, #24]
70108fc0:	6d23      	ldr	r3, [r4, #80]	@ 0x50
70108fc2:	42bb      	cmp	r3, r7
70108fc4:	d879      	bhi.n	701090ba <aiPbCmdNNRun+0x1ba>
70108fc6:	f104 03d4 	add.w	r3, r4, #212	@ 0xd4
70108fca:	4698      	mov	r8, r3
70108fcc:	2700      	movs	r7, #0
70108fce:	9304      	str	r3, [sp, #16]
70108fd0:	6d63      	ldr	r3, [r4, #84]	@ 0x54
70108fd2:	42bb      	cmp	r3, r7
70108fd4:	f200 8084 	bhi.w	701090e0 <aiPbCmdNNRun+0x1e0>
70108fd8:	6da0      	ldr	r0, [r4, #88]	@ 0x58
70108fda:	f000 fd6b 	bl	70109ab4 <get_ll_buffer_size>
70108fde:	2700      	movs	r7, #0
70108fe0:	4603      	mov	r3, r0
70108fe2:	2201      	movs	r2, #1
70108fe4:	4631      	mov	r1, r6
70108fe6:	4628      	mov	r0, r5
70108fe8:	9700      	str	r7, [sp, #0]
70108fea:	f7ff fb6f 	bl	701086cc <aiPbMgrSendAck>
70108fee:	6d23      	ldr	r3, [r4, #80]	@ 0x50
70108ff0:	42bb      	cmp	r3, r7
70108ff2:	f200 8088 	bhi.w	70109106 <aiPbCmdNNRun+0x206>
70108ff6:	f894 7193 	ldrb.w	r7, [r4, #403]	@ 0x193
70108ffa:	f7f8 fe57 	bl	70101cac <HAL_GetTick>
70108ffe:	496e      	ldr	r1, [pc, #440]	@ (701091b8 <aiPbCmdNNRun+0x2b8>)
70109000:	4602      	mov	r2, r0
70109002:	4638      	mov	r0, r7
70109004:	f7ff fe20 	bl	70108c48 <_print_debug>
70109008:	f894 3190 	ldrb.w	r3, [r4, #400]	@ 0x190
7010900c:	e9c4 5661 	strd	r5, r6, [r4, #388]	@ 0x184
70109010:	b11b      	cbz	r3, 7010901a <aiPbCmdNNRun+0x11a>
70109012:	4620      	mov	r0, r4
70109014:	4969      	ldr	r1, [pc, #420]	@ (701091bc <aiPbCmdNNRun+0x2bc>)
70109016:	f001 f837 	bl	7010a088 <npu_set_callback>
7010901a:	f7f8 fe47 	bl	70101cac <HAL_GetTick>
7010901e:	a90e      	add	r1, sp, #56	@ 0x38
70109020:	4607      	mov	r7, r0
70109022:	4620      	mov	r0, r4
70109024:	f001 f884 	bl	7010a130 <npu_run>
70109028:	f7f8 fe40 	bl	70101cac <HAL_GetTick>
7010902c:	2100      	movs	r1, #0
7010902e:	1bc7      	subs	r7, r0, r7
70109030:	4620      	mov	r0, r4
70109032:	f001 f829 	bl	7010a088 <npu_set_callback>
70109036:	463a      	mov	r2, r7
70109038:	4961      	ldr	r1, [pc, #388]	@ (701091c0 <aiPbCmdNNRun+0x2c0>)
7010903a:	f894 0193 	ldrb.w	r0, [r4, #403]	@ 0x193
7010903e:	f7ff fe03 	bl	70108c48 <_print_debug>
70109042:	e9dd 0114 	ldrd	r0, r1, [sp, #80]	@ 0x50
70109046:	f7fd f9cb 	bl	701063e0 <dwtCyclesToFloatMs>
7010904a:	2700      	movs	r7, #0
7010904c:	230a      	movs	r3, #10
7010904e:	e9cd 7309 	strd	r7, r3, [sp, #36]	@ 0x24
70109052:	ab0e      	add	r3, sp, #56	@ 0x38
70109054:	930b      	str	r3, [sp, #44]	@ 0x2c
70109056:	f04f 33ff 	mov.w	r3, #4294967295
7010905a:	e9cd 330c 	strd	r3, r3, [sp, #48]	@ 0x30
7010905e:	ab08      	add	r3, sp, #32
70109060:	4631      	mov	r1, r6
70109062:	e9cd 7301 	strd	r7, r3, [sp, #4]
70109066:	2202      	movs	r2, #2
70109068:	4628      	mov	r0, r5
7010906a:	9700      	str	r7, [sp, #0]
7010906c:	1d23      	adds	r3, r4, #4
7010906e:	ed8d 0a08 	vstr	s0, [sp, #32]
70109072:	f7ff fb99 	bl	701087a8 <aiPbMgrSendOperator>
70109076:	4953      	ldr	r1, [pc, #332]	@ (701091c4 <aiPbCmdNNRun+0x2c4>)
70109078:	f894 0193 	ldrb.w	r0, [r4, #403]	@ 0x193
7010907c:	f7ff fde4 	bl	70108c48 <_print_debug>
70109080:	6d62      	ldr	r2, [r4, #84]	@ 0x54
70109082:	42ba      	cmp	r2, r7
70109084:	f67f af4f 	bls.w	70108f26 <aiPbCmdNNRun+0x26>
70109088:	68ab      	ldr	r3, [r5, #8]
7010908a:	3701      	adds	r7, #1
7010908c:	071b      	lsls	r3, r3, #28
7010908e:	bf54      	ite	pl
70109090:	2302      	movpl	r3, #2
70109092:	f240 2302 	movwmi	r3, #514	@ 0x202
70109096:	4297      	cmp	r7, r2
70109098:	9904      	ldr	r1, [sp, #16]
7010909a:	bf08      	it	eq
7010909c:	f443 7380 	orreq.w	r3, r3, #256	@ 0x100
701090a0:	9300      	str	r3, [sp, #0]
701090a2:	f851 3f04 	ldr.w	r3, [r1, #4]!
701090a6:	bf08      	it	eq
701090a8:	2203      	moveq	r2, #3
701090aa:	9104      	str	r1, [sp, #16]
701090ac:	bf18      	it	ne
701090ae:	2202      	movne	r2, #2
701090b0:	4631      	mov	r1, r6
701090b2:	4628      	mov	r0, r5
701090b4:	f7ff fd8e 	bl	70108bd4 <send_ai_io_tensor.constprop.0.isra.0>
701090b8:	e7e2      	b.n	70109080 <aiPbCmdNNRun+0x180>
701090ba:	f858 1f04 	ldr.w	r1, [r8, #4]!
701090be:	f894 a193 	ldrb.w	sl, [r4, #403]	@ 0x193
701090c2:	4608      	mov	r0, r1
701090c4:	f7ff fca6 	bl	70108a14 <LL_Buffer_addr_start>
701090c8:	e9d1 1202 	ldrd	r1, r2, [r1, #8]
701090cc:	1a52      	subs	r2, r2, r1
701090ce:	4603      	mov	r3, r0
701090d0:	9200      	str	r2, [sp, #0]
701090d2:	4650      	mov	r0, sl
701090d4:	463a      	mov	r2, r7
701090d6:	493c      	ldr	r1, [pc, #240]	@ (701091c8 <aiPbCmdNNRun+0x2c8>)
701090d8:	f7ff fdb6 	bl	70108c48 <_print_debug>
701090dc:	3701      	adds	r7, #1
701090de:	e76f      	b.n	70108fc0 <aiPbCmdNNRun+0xc0>
701090e0:	f858 1f04 	ldr.w	r1, [r8, #4]!
701090e4:	f894 a193 	ldrb.w	sl, [r4, #403]	@ 0x193
701090e8:	4608      	mov	r0, r1
701090ea:	f7ff fc93 	bl	70108a14 <LL_Buffer_addr_start>
701090ee:	e9d1 1202 	ldrd	r1, r2, [r1, #8]
701090f2:	1a52      	subs	r2, r2, r1
701090f4:	4603      	mov	r3, r0
701090f6:	9200      	str	r2, [sp, #0]
701090f8:	4650      	mov	r0, sl
701090fa:	463a      	mov	r2, r7
701090fc:	4933      	ldr	r1, [pc, #204]	@ (701091cc <aiPbCmdNNRun+0x2cc>)
701090fe:	f7ff fda3 	bl	70108c48 <_print_debug>
70109102:	3701      	adds	r7, #1
70109104:	e764      	b.n	70108fd0 <aiPbCmdNNRun+0xd0>
70109106:	3701      	adds	r7, #1
70109108:	429f      	cmp	r7, r3
7010910a:	bf0c      	ite	eq
7010910c:	2302      	moveq	r3, #2
7010910e:	2301      	movne	r3, #1
70109110:	9307      	str	r3, [sp, #28]
70109112:	9b06      	ldr	r3, [sp, #24]
70109114:	f894 b192 	ldrb.w	fp, [r4, #402]	@ 0x192
70109118:	f853 8f04 	ldr.w	r8, [r3, #4]!
7010911c:	9306      	str	r3, [sp, #24]
7010911e:	2300      	movs	r3, #0
70109120:	4640      	mov	r0, r8
70109122:	930e      	str	r3, [sp, #56]	@ 0x38
70109124:	f000 fcc6 	bl	70109ab4 <get_ll_buffer_size>
70109128:	900f      	str	r0, [sp, #60]	@ 0x3c
7010912a:	4640      	mov	r0, r8
7010912c:	f7ff fc72 	bl	70108a14 <LL_Buffer_addr_start>
70109130:	2300      	movs	r3, #0
70109132:	9010      	str	r0, [sp, #64]	@ 0x40
70109134:	9311      	str	r3, [sp, #68]	@ 0x44
70109136:	f1bb 0f00 	cmp.w	fp, #0
7010913a:	d003      	beq.n	70109144 <aiPbCmdNNRun+0x244>
7010913c:	4640      	mov	r0, r8
7010913e:	f000 fcbd 	bl	70109abc <get_ll_element_size>
70109142:	900f      	str	r0, [sp, #60]	@ 0x3c
70109144:	a80e      	add	r0, sp, #56	@ 0x38
70109146:	f7ff fb15 	bl	70108774 <aiPbMgrReceiveData>
7010914a:	9b11      	ldr	r3, [sp, #68]	@ 0x44
7010914c:	f8dd 903c 	ldr.w	r9, [sp, #60]	@ 0x3c
70109150:	454b      	cmp	r3, r9
70109152:	d002      	beq.n	7010915a <aiPbCmdNNRun+0x25a>
70109154:	2201      	movs	r2, #1
70109156:	9200      	str	r2, [sp, #0]
70109158:	e6e0      	b.n	70108f1c <aiPbCmdNNRun+0x1c>
7010915a:	f1bb 0f00 	cmp.w	fp, #0
7010915e:	d10a      	bne.n	70109176 <aiPbCmdNNRun+0x276>
70109160:	2300      	movs	r3, #0
70109162:	4631      	mov	r1, r6
70109164:	4628      	mov	r0, r5
70109166:	9a07      	ldr	r2, [sp, #28]
70109168:	9300      	str	r3, [sp, #0]
7010916a:	9b0f      	ldr	r3, [sp, #60]	@ 0x3c
7010916c:	f7ff faae 	bl	701086cc <aiPbMgrSendAck>
70109170:	f7ff fab6 	bl	701086e0 <aiPbMgrWaitAck>
70109174:	e73b      	b.n	70108fee <aiPbCmdNNRun+0xee>
70109176:	4640      	mov	r0, r8
70109178:	f7ff fc4c 	bl	70108a14 <LL_Buffer_addr_start>
7010917c:	f04f 0a01 	mov.w	sl, #1
70109180:	9005      	str	r0, [sp, #20]
70109182:	eb00 0b09 	add.w	fp, r0, r9
70109186:	4640      	mov	r0, r8
70109188:	f000 fc94 	bl	70109ab4 <get_ll_buffer_size>
7010918c:	fbb0 f0f9 	udiv	r0, r0, r9
70109190:	4582      	cmp	sl, r0
70109192:	d2e5      	bcs.n	70109160 <aiPbCmdNNRun+0x260>
70109194:	4658      	mov	r0, fp
70109196:	464a      	mov	r2, r9
70109198:	9905      	ldr	r1, [sp, #20]
7010919a:	f002 fee2 	bl	7010bf62 <memcpy>
7010919e:	44cb      	add	fp, r9
701091a0:	f10a 0a01 	add.w	sl, sl, #1
701091a4:	e7ef      	b.n	70109186 <aiPbCmdNNRun+0x286>
701091a6:	bf00      	nop
701091a8:	34001040 	.word	0x34001040
701091ac:	7010ca5f 	.word	0x7010ca5f
701091b0:	7010ca6e 	.word	0x7010ca6e
701091b4:	7010ca95 	.word	0x7010ca95
701091b8:	7010cb01 	.word	0x7010cb01
701091bc:	701094d9 	.word	0x701094d9
701091c0:	7010cb1d 	.word	0x7010cb1d
701091c4:	7010cb43 	.word	0x7010cb43
701091c8:	7010cacb 	.word	0x7010cacb
701091cc:	7010cae6 	.word	0x7010cae6

701091d0 <_find_cdt_ll_buffers>:
701091d0:	e92d 43f8 	stmdb	sp!, {r3, r4, r5, r6, r7, r8, r9, lr}
701091d4:	4606      	mov	r6, r0
701091d6:	4614      	mov	r4, r2
701091d8:	4688      	mov	r8, r1
701091da:	f000 fe39 	bl	70109e50 <npu_get_internal_buffers_info>
701091de:	f04f 31ff 	mov.w	r1, #4294967295
701091e2:	4605      	mov	r5, r0
701091e4:	4630      	mov	r0, r6
701091e6:	f000 fe1c 	bl	70109e22 <npu_get_output_buffers_info>
701091ea:	f9b4 2012 	ldrsh.w	r2, [r4, #18]
701091ee:	4606      	mov	r6, r0
701091f0:	2a00      	cmp	r2, #0
701091f2:	dd0d      	ble.n	70109210 <_find_cdt_ll_buffers+0x40>
701091f4:	f1b8 0f00 	cmp.w	r8, #0
701091f8:	f9b4 3042 	ldrsh.w	r3, [r4, #66]	@ 0x42
701091fc:	dd10      	ble.n	70109220 <_find_cdt_ll_buffers+0x50>
701091fe:	f108 0701 	add.w	r7, r8, #1
70109202:	42bb      	cmp	r3, r7
70109204:	d00c      	beq.n	70109220 <_find_cdt_ll_buffers+0x50>
70109206:	b23f      	sxth	r7, r7
70109208:	429a      	cmp	r2, r3
7010920a:	d102      	bne.n	70109212 <_find_cdt_ll_buffers+0x42>
7010920c:	2400      	movs	r4, #0
7010920e:	e004      	b.n	7010921a <_find_cdt_ll_buffers+0x4a>
70109210:	2700      	movs	r7, #0
70109212:	b9dd      	cbnz	r5, 7010924c <_find_cdt_ll_buffers+0x7c>
70109214:	462c      	mov	r4, r5
70109216:	6833      	ldr	r3, [r6, #0]
70109218:	b9e3      	cbnz	r3, 70109254 <_find_cdt_ll_buffers+0x84>
7010921a:	4620      	mov	r0, r4
7010921c:	e8bd 83f8 	ldmia.w	sp!, {r3, r4, r5, r6, r7, r8, r9, pc}
70109220:	2700      	movs	r7, #0
70109222:	e7f1      	b.n	70109208 <_find_cdt_ll_buffers+0x38>
70109224:	8aeb      	ldrh	r3, [r5, #22]
70109226:	4543      	cmp	r3, r8
70109228:	d001      	beq.n	7010922e <_find_cdt_ll_buffers+0x5e>
7010922a:	42bb      	cmp	r3, r7
7010922c:	d109      	bne.n	70109242 <_find_cdt_ll_buffers+0x72>
7010922e:	4628      	mov	r0, r5
70109230:	f7ff fb40 	bl	701088b4 <_is_ll_buffer_valid>
70109234:	b128      	cbz	r0, 70109242 <_find_cdt_ll_buffers+0x72>
70109236:	2c10      	cmp	r4, #16
70109238:	bf1e      	ittt	ne
7010923a:	1c63      	addne	r3, r4, #1
7010923c:	f849 5024 	strne.w	r5, [r9, r4, lsl #2]
70109240:	b21c      	sxthne	r4, r3
70109242:	3538      	adds	r5, #56	@ 0x38
70109244:	682b      	ldr	r3, [r5, #0]
70109246:	2b00      	cmp	r3, #0
70109248:	d1ec      	bne.n	70109224 <_find_cdt_ll_buffers+0x54>
7010924a:	e7e4      	b.n	70109216 <_find_cdt_ll_buffers+0x46>
7010924c:	2400      	movs	r4, #0
7010924e:	f8df 9024 	ldr.w	r9, [pc, #36]	@ 70109274 <_find_cdt_ll_buffers+0xa4>
70109252:	e7f7      	b.n	70109244 <_find_cdt_ll_buffers+0x74>
70109254:	8af3      	ldrh	r3, [r6, #22]
70109256:	4543      	cmp	r3, r8
70109258:	d10a      	bne.n	70109270 <_find_cdt_ll_buffers+0xa0>
7010925a:	4630      	mov	r0, r6
7010925c:	f7ff fb2a 	bl	701088b4 <_is_ll_buffer_valid>
70109260:	b130      	cbz	r0, 70109270 <_find_cdt_ll_buffers+0xa0>
70109262:	2c0f      	cmp	r4, #15
70109264:	bfdf      	itttt	le
70109266:	4a03      	ldrle	r2, [pc, #12]	@ (70109274 <_find_cdt_ll_buffers+0xa4>)
70109268:	1c63      	addle	r3, r4, #1
7010926a:	f842 6024 	strle.w	r6, [r2, r4, lsl #2]
7010926e:	b21c      	sxthle	r4, r3
70109270:	3638      	adds	r6, #56	@ 0x38
70109272:	e7d0      	b.n	70109216 <_find_cdt_ll_buffers+0x46>
70109274:	34001000 	.word	0x34001000

70109278 <_log_counters>:
70109278:	e92d 4ff0 	stmdb	sp!, {r4, r5, r6, r7, r8, r9, sl, fp, lr}
7010927c:	4614      	mov	r4, r2
7010927e:	6893      	ldr	r3, [r2, #8]
70109280:	b087      	sub	sp, #28
70109282:	9300      	str	r3, [sp, #0]
70109284:	e9d2 2300 	ldrd	r2, r3, [r2]
70109288:	460e      	mov	r6, r1
7010928a:	2001      	movs	r0, #1
7010928c:	4984      	ldr	r1, [pc, #528]	@ (701094a0 <_log_counters+0x228>)
7010928e:	f7ff fcdb 	bl	70108c48 <_print_debug>
70109292:	69a3      	ldr	r3, [r4, #24]
70109294:	05dd      	lsls	r5, r3, #23
70109296:	d507      	bpl.n	701092a8 <_log_counters+0x30>
70109298:	6963      	ldr	r3, [r4, #20]
7010929a:	2001      	movs	r0, #1
7010929c:	9300      	str	r3, [sp, #0]
7010929e:	4981      	ldr	r1, [pc, #516]	@ (701094a4 <_log_counters+0x22c>)
701092a0:	e9d4 2303 	ldrd	r2, r3, [r4, #12]
701092a4:	f7ff fcd0 	bl	70108c48 <_print_debug>
701092a8:	69a3      	ldr	r3, [r4, #24]
701092aa:	f413 4fc0 	tst.w	r3, #24576	@ 0x6000
701092ae:	d02f      	beq.n	70109310 <_log_counters+0x98>
701092b0:	2500      	movs	r5, #0
701092b2:	f413 5f00 	tst.w	r3, #8192	@ 0x2000
701092b6:	bf0c      	ite	eq
701092b8:	f04f 0b6f 	moveq.w	fp, #111	@ 0x6f
701092bc:	f04f 0b69 	movne.w	fp, #105	@ 0x69
701092c0:	462f      	mov	r7, r5
701092c2:	f04f 38ff 	mov.w	r8, #4294967295
701092c6:	fa5f fa83 	uxtb.w	sl, r3
701092ca:	f104 0918 	add.w	r9, r4, #24
701092ce:	45aa      	cmp	sl, r5
701092d0:	d017      	beq.n	70109302 <_log_counters+0x8a>
701092d2:	f859 3f04 	ldr.w	r3, [r9, #4]!
701092d6:	2b14      	cmp	r3, #20
701092d8:	d910      	bls.n	701092fc <_log_counters+0x84>
701092da:	6922      	ldr	r2, [r4, #16]
701092dc:	42bb      	cmp	r3, r7
701092de:	eba2 0203 	sub.w	r2, r2, r3
701092e2:	e9cd 3200 	strd	r3, r2, [sp]
701092e6:	bf88      	it	hi
701092e8:	461f      	movhi	r7, r3
701092ea:	465a      	mov	r2, fp
701092ec:	462b      	mov	r3, r5
701092ee:	f04f 0001 	mov.w	r0, #1
701092f2:	496d      	ldr	r1, [pc, #436]	@ (701094a8 <_log_counters+0x230>)
701092f4:	bf88      	it	hi
701092f6:	46a8      	movhi	r8, r5
701092f8:	f7ff fca6 	bl	70108c48 <_print_debug>
701092fc:	3501      	adds	r5, #1
701092fe:	2d0a      	cmp	r5, #10
70109300:	d1e5      	bne.n	701092ce <_log_counters+0x56>
70109302:	4643      	mov	r3, r8
70109304:	465a      	mov	r2, fp
70109306:	2001      	movs	r0, #1
70109308:	4968      	ldr	r1, [pc, #416]	@ (701094ac <_log_counters+0x234>)
7010930a:	9700      	str	r7, [sp, #0]
7010930c:	f7ff fc9c 	bl	70108c48 <_print_debug>
70109310:	69a3      	ldr	r3, [r4, #24]
70109312:	0598      	lsls	r0, r3, #22
70109314:	d54b      	bpl.n	701093ae <_log_counters+0x136>
70109316:	f04f 0b00 	mov.w	fp, #0
7010931a:	f04f 0869 	mov.w	r8, #105	@ 0x69
7010931e:	465d      	mov	r5, fp
70109320:	f04f 39ff 	mov.w	r9, #4294967295
70109324:	465f      	mov	r7, fp
70109326:	b2db      	uxtb	r3, r3
70109328:	9303      	str	r3, [sp, #12]
7010932a:	9b03      	ldr	r3, [sp, #12]
7010932c:	42ab      	cmp	r3, r5
7010932e:	d937      	bls.n	701093a0 <_log_counters+0x128>
70109330:	2301      	movs	r3, #1
70109332:	fa03 fa0b 	lsl.w	sl, r3, fp
70109336:	69b3      	ldr	r3, [r6, #24]
70109338:	ea1a 0f03 	tst.w	sl, r3
7010933c:	d013      	beq.n	70109366 <_log_counters+0xee>
7010933e:	eb04 0385 	add.w	r3, r4, r5, lsl #2
70109342:	69db      	ldr	r3, [r3, #28]
70109344:	6921      	ldr	r1, [r4, #16]
70109346:	42bb      	cmp	r3, r7
70109348:	eba1 0103 	sub.w	r1, r1, r3
7010934c:	9100      	str	r1, [sp, #0]
7010934e:	465a      	mov	r2, fp
70109350:	f04f 0001 	mov.w	r0, #1
70109354:	4956      	ldr	r1, [pc, #344]	@ (701094b0 <_log_counters+0x238>)
70109356:	bf82      	ittt	hi
70109358:	46d9      	movhi	r9, fp
7010935a:	461f      	movhi	r7, r3
7010935c:	f04f 0869 	movhi.w	r8, #105	@ 0x69
70109360:	f7ff fc72 	bl	70108c48 <_print_debug>
70109364:	3501      	adds	r5, #1
70109366:	69f3      	ldr	r3, [r6, #28]
70109368:	ea1a 0f03 	tst.w	sl, r3
7010936c:	d013      	beq.n	70109396 <_log_counters+0x11e>
7010936e:	eb04 0385 	add.w	r3, r4, r5, lsl #2
70109372:	69db      	ldr	r3, [r3, #28]
70109374:	6921      	ldr	r1, [r4, #16]
70109376:	42bb      	cmp	r3, r7
70109378:	eba1 0103 	sub.w	r1, r1, r3
7010937c:	9100      	str	r1, [sp, #0]
7010937e:	465a      	mov	r2, fp
70109380:	f04f 0001 	mov.w	r0, #1
70109384:	494b      	ldr	r1, [pc, #300]	@ (701094b4 <_log_counters+0x23c>)
70109386:	bf82      	ittt	hi
70109388:	46d9      	movhi	r9, fp
7010938a:	461f      	movhi	r7, r3
7010938c:	f04f 086f 	movhi.w	r8, #111	@ 0x6f
70109390:	f7ff fc5a 	bl	70108c48 <_print_debug>
70109394:	3501      	adds	r5, #1
70109396:	f10b 0b01 	add.w	fp, fp, #1
7010939a:	f1bb 0f0a 	cmp.w	fp, #10
7010939e:	d1c4      	bne.n	7010932a <_log_counters+0xb2>
701093a0:	464b      	mov	r3, r9
701093a2:	4642      	mov	r2, r8
701093a4:	2001      	movs	r0, #1
701093a6:	4941      	ldr	r1, [pc, #260]	@ (701094ac <_log_counters+0x234>)
701093a8:	9700      	str	r7, [sp, #0]
701093aa:	f7ff fc4d 	bl	70108c48 <_print_debug>
701093ae:	69a3      	ldr	r3, [r4, #24]
701093b0:	0559      	lsls	r1, r3, #21
701093b2:	d41c      	bmi.n	701093ee <_log_counters+0x176>
701093b4:	69a6      	ldr	r6, [r4, #24]
701093b6:	0532      	lsls	r2, r6, #20
701093b8:	d436      	bmi.n	70109428 <_log_counters+0x1b0>
701093ba:	69a3      	ldr	r3, [r4, #24]
701093bc:	04db      	lsls	r3, r3, #19
701093be:	d513      	bpl.n	701093e8 <_log_counters+0x170>
701093c0:	6ea3      	ldr	r3, [r4, #104]	@ 0x68
701093c2:	2001      	movs	r0, #1
701093c4:	9301      	str	r3, [sp, #4]
701093c6:	6e63      	ldr	r3, [r4, #100]	@ 0x64
701093c8:	493b      	ldr	r1, [pc, #236]	@ (701094b8 <_log_counters+0x240>)
701093ca:	9300      	str	r3, [sp, #0]
701093cc:	e9d4 2317 	ldrd	r2, r3, [r4, #92]	@ 0x5c
701093d0:	f7ff fc3a 	bl	70108c48 <_print_debug>
701093d4:	6fa3      	ldr	r3, [r4, #120]	@ 0x78
701093d6:	2001      	movs	r0, #1
701093d8:	9301      	str	r3, [sp, #4]
701093da:	6f63      	ldr	r3, [r4, #116]	@ 0x74
701093dc:	4937      	ldr	r1, [pc, #220]	@ (701094bc <_log_counters+0x244>)
701093de:	9300      	str	r3, [sp, #0]
701093e0:	e9d4 231b 	ldrd	r2, r3, [r4, #108]	@ 0x6c
701093e4:	f7ff fc30 	bl	70108c48 <_print_debug>
701093e8:	b007      	add	sp, #28
701093ea:	e8bd 8ff0 	ldmia.w	sp!, {r4, r5, r6, r7, r8, r9, sl, fp, pc}
701093ee:	2500      	movs	r5, #0
701093f0:	f04f 0901 	mov.w	r9, #1
701093f4:	462f      	mov	r7, r5
701093f6:	fa5f f883 	uxtb.w	r8, r3
701093fa:	45b8      	cmp	r8, r7
701093fc:	d9da      	bls.n	701093b4 <_log_counters+0x13c>
701093fe:	69b2      	ldr	r2, [r6, #24]
70109400:	fa09 f305 	lsl.w	r3, r9, r5
70109404:	4213      	tst	r3, r2
70109406:	d00b      	beq.n	70109420 <_log_counters+0x1a8>
70109408:	eb04 0387 	add.w	r3, r4, r7, lsl #2
7010940c:	69db      	ldr	r3, [r3, #28]
7010940e:	6922      	ldr	r2, [r4, #16]
70109410:	2001      	movs	r0, #1
70109412:	1ad2      	subs	r2, r2, r3
70109414:	9200      	str	r2, [sp, #0]
70109416:	492a      	ldr	r1, [pc, #168]	@ (701094c0 <_log_counters+0x248>)
70109418:	462a      	mov	r2, r5
7010941a:	f7ff fc15 	bl	70108c48 <_print_debug>
7010941e:	3701      	adds	r7, #1
70109420:	3501      	adds	r5, #1
70109422:	2d0a      	cmp	r5, #10
70109424:	d1e9      	bne.n	701093fa <_log_counters+0x182>
70109426:	e7c5      	b.n	701093b4 <_log_counters+0x13c>
70109428:	6aa3      	ldr	r3, [r4, #40]	@ 0x28
7010942a:	2001      	movs	r0, #1
7010942c:	9301      	str	r3, [sp, #4]
7010942e:	6a63      	ldr	r3, [r4, #36]	@ 0x24
70109430:	4924      	ldr	r1, [pc, #144]	@ (701094c4 <_log_counters+0x24c>)
70109432:	9300      	str	r3, [sp, #0]
70109434:	e9d4 2307 	ldrd	r2, r3, [r4, #28]
70109438:	f7ff fc06 	bl	70108c48 <_print_debug>
7010943c:	2500      	movs	r5, #0
7010943e:	b2f6      	uxtb	r6, r6
70109440:	3504      	adds	r5, #4
70109442:	42ae      	cmp	r6, r5
70109444:	dd1e      	ble.n	70109484 <_log_counters+0x20c>
70109446:	2d07      	cmp	r5, #7
70109448:	dc0a      	bgt.n	70109460 <_log_counters+0x1e8>
7010944a:	6ba3      	ldr	r3, [r4, #56]	@ 0x38
7010944c:	491e      	ldr	r1, [pc, #120]	@ (701094c8 <_log_counters+0x250>)
7010944e:	9301      	str	r3, [sp, #4]
70109450:	6b63      	ldr	r3, [r4, #52]	@ 0x34
70109452:	9300      	str	r3, [sp, #0]
70109454:	e9d4 230b 	ldrd	r2, r3, [r4, #44]	@ 0x2c
70109458:	2001      	movs	r0, #1
7010945a:	f7ff fbf5 	bl	70108c48 <_print_debug>
7010945e:	e7ef      	b.n	70109440 <_log_counters+0x1c8>
70109460:	2d0c      	cmp	r5, #12
70109462:	d007      	beq.n	70109474 <_log_counters+0x1fc>
70109464:	6ca3      	ldr	r3, [r4, #72]	@ 0x48
70109466:	4919      	ldr	r1, [pc, #100]	@ (701094cc <_log_counters+0x254>)
70109468:	9301      	str	r3, [sp, #4]
7010946a:	6c63      	ldr	r3, [r4, #68]	@ 0x44
7010946c:	9300      	str	r3, [sp, #0]
7010946e:	e9d4 230f 	ldrd	r2, r3, [r4, #60]	@ 0x3c
70109472:	e7f1      	b.n	70109458 <_log_counters+0x1e0>
70109474:	6da3      	ldr	r3, [r4, #88]	@ 0x58
70109476:	4916      	ldr	r1, [pc, #88]	@ (701094d0 <_log_counters+0x258>)
70109478:	9301      	str	r3, [sp, #4]
7010947a:	6d63      	ldr	r3, [r4, #84]	@ 0x54
7010947c:	9300      	str	r3, [sp, #0]
7010947e:	e9d4 2313 	ldrd	r2, r3, [r4, #76]	@ 0x4c
70109482:	e7e9      	b.n	70109458 <_log_counters+0x1e0>
70109484:	aa05      	add	r2, sp, #20
70109486:	a904      	add	r1, sp, #16
70109488:	2000      	movs	r0, #0
7010948a:	f7fe f89d 	bl	701075c8 <LL_Dbgtrc_GetTotalTranfers>
7010948e:	e9dd 3204 	ldrd	r3, r2, [sp, #16]
70109492:	18d1      	adds	r1, r2, r3
70109494:	9100      	str	r1, [sp, #0]
70109496:	2001      	movs	r0, #1
70109498:	490e      	ldr	r1, [pc, #56]	@ (701094d4 <_log_counters+0x25c>)
7010949a:	f7ff fbd5 	bl	70108c48 <_print_debug>
7010949e:	e78c      	b.n	701093ba <_log_counters+0x142>
701094a0:	7010cb5e 	.word	0x7010cb5e
701094a4:	7010cb7b 	.word	0x7010cb7b
701094a8:	7010cb98 	.word	0x7010cb98
701094ac:	7010cbbb 	.word	0x7010cbbb
701094b0:	7010cbdf 	.word	0x7010cbdf
701094b4:	7010cc01 	.word	0x7010cc01
701094b8:	7010ccf2 	.word	0x7010ccf2
701094bc:	7010cd13 	.word	0x7010cd13
701094c0:	7010cc23 	.word	0x7010cc23
701094c4:	7010cc43 	.word	0x7010cc43
701094c8:	7010cc66 	.word	0x7010cc66
701094cc:	7010cc89 	.word	0x7010cc89
701094d0:	7010ccac 	.word	0x7010ccac
701094d4:	7010cccf 	.word	0x7010cccf

701094d8 <npu_dump_tensors_cb>:
701094d8:	e92d 4ff0 	stmdb	sp!, {r4, r5, r6, r7, r8, r9, sl, fp, lr}
701094dc:	4614      	mov	r4, r2
701094de:	4684      	mov	ip, r0
701094e0:	b09b      	sub	sp, #108	@ 0x6c
701094e2:	4699      	mov	r9, r3
701094e4:	4f6e      	ldr	r7, [pc, #440]	@ (701096a0 <npu_dump_tensors_cb+0x1c8>)
701094e6:	4b6f      	ldr	r3, [pc, #444]	@ (701096a4 <npu_dump_tensors_cb+0x1cc>)
701094e8:	ae0e      	add	r6, sp, #56	@ 0x38
701094ea:	681d      	ldr	r5, [r3, #0]
701094ec:	468a      	mov	sl, r1
701094ee:	cf0f      	ldmia	r7!, {r0, r1, r2, r3}
701094f0:	c60f      	stmia	r6!, {r0, r1, r2, r3}
701094f2:	e897 0003 	ldmia.w	r7, {r0, r1}
701094f6:	f9b4 3012 	ldrsh.w	r3, [r4, #18]
701094fa:	e886 0003 	stmia.w	r6, {r0, r1}
701094fe:	2b00      	cmp	r3, #0
70109500:	bfa8      	it	ge
70109502:	f8a5 3194 	strhge.w	r3, [r5, #404]	@ 0x194
70109506:	ab1a      	add	r3, sp, #104	@ 0x68
70109508:	eb03 0c8c 	add.w	ip, r3, ip, lsl #2
7010950c:	f85c 7c30 	ldr.w	r7, [ip, #-48]
70109510:	f8df 8198 	ldr.w	r8, [pc, #408]	@ 701096ac <npu_dump_tensors_cb+0x1d4>
70109514:	4547      	cmp	r7, r8
70109516:	d12b      	bne.n	70109570 <npu_dump_tensors_cb+0x98>
70109518:	2100      	movs	r1, #0
7010951a:	4620      	mov	r0, r4
7010951c:	aa0d      	add	r2, sp, #52	@ 0x34
7010951e:	f7ff f991 	bl	70108844 <_get_node_type>
70109522:	f895 3193 	ldrb.w	r3, [r5, #403]	@ 0x193
70109526:	4606      	mov	r6, r0
70109528:	f8dd 8034 	ldr.w	r8, [sp, #52]	@ 0x34
7010952c:	b163      	cbz	r3, 70109548 <npu_dump_tensors_cb+0x70>
7010952e:	e9cd 0801 	strd	r0, r8, [sp, #4]
70109532:	f9b4 3014 	ldrsh.w	r3, [r4, #20]
70109536:	4652      	mov	r2, sl
70109538:	9300      	str	r3, [sp, #0]
7010953a:	2001      	movs	r0, #1
7010953c:	f9b4 3012 	ldrsh.w	r3, [r4, #18]
70109540:	f107 010e 	add.w	r1, r7, #14
70109544:	f7ff fb80 	bl	70108c48 <_print_debug>
70109548:	f9b5 3194 	ldrsh.w	r3, [r5, #404]	@ 0x194
7010954c:	e9cd 6803 	strd	r6, r8, [sp, #12]
70109550:	8a22      	ldrh	r2, [r4, #16]
70109552:	2001      	movs	r0, #1
70109554:	9202      	str	r2, [sp, #8]
70109556:	f9b4 2014 	ldrsh.w	r2, [r4, #20]
7010955a:	4953      	ldr	r1, [pc, #332]	@ (701096a8 <npu_dump_tensors_cb+0x1d0>)
7010955c:	9201      	str	r2, [sp, #4]
7010955e:	f9b4 2012 	ldrsh.w	r2, [r4, #18]
70109562:	9200      	str	r2, [sp, #0]
70109564:	4652      	mov	r2, sl
70109566:	f7ff fb6f 	bl	70108c48 <_print_debug>
7010956a:	b01b      	add	sp, #108	@ 0x6c
7010956c:	e8bd 8ff0 	ldmia.w	sp!, {r4, r5, r6, r7, r8, r9, sl, fp, pc}
70109570:	f108 036a 	add.w	r3, r8, #106	@ 0x6a
70109574:	429f      	cmp	r7, r3
70109576:	d1f8      	bne.n	7010956a <npu_dump_tensors_cb+0x92>
70109578:	e9d9 0300 	ldrd	r0, r3, [r9]
7010957c:	4418      	add	r0, r3
7010957e:	f8d9 3008 	ldr.w	r3, [r9, #8]
70109582:	2100      	movs	r1, #0
70109584:	4418      	add	r0, r3
70109586:	f9b5 6194 	ldrsh.w	r6, [r5, #404]	@ 0x194
7010958a:	f7fc ff29 	bl	701063e0 <dwtCyclesToFloatMs>
7010958e:	f44f 3280 	mov.w	r2, #65536	@ 0x10000
70109592:	2303      	movs	r3, #3
70109594:	e9cd 2315 	strd	r2, r3, [sp, #84]	@ 0x54
70109598:	f04f 33ff 	mov.w	r3, #4294967295
7010959c:	4631      	mov	r1, r6
7010959e:	4622      	mov	r2, r4
701095a0:	4628      	mov	r0, r5
701095a2:	ed8d 0a14 	vstr	s0, [sp, #80]	@ 0x50
701095a6:	e9cd 3318 	strd	r3, r3, [sp, #96]	@ 0x60
701095aa:	f8cd 905c 	str.w	r9, [sp, #92]	@ 0x5c
701095ae:	f7ff fe0f 	bl	701091d0 <_find_cdt_ll_buffers>
701095b2:	aa0d      	add	r2, sp, #52	@ 0x34
701095b4:	4606      	mov	r6, r0
701095b6:	4601      	mov	r1, r0
701095b8:	4620      	mov	r0, r4
701095ba:	f7ff f943 	bl	70108844 <_get_node_type>
701095be:	4607      	mov	r7, r0
701095c0:	9b0d      	ldr	r3, [sp, #52]	@ 0x34
701095c2:	f895 0193 	ldrb.w	r0, [r5, #403]	@ 0x193
701095c6:	e9cd 7303 	strd	r7, r3, [sp, #12]
701095ca:	9602      	str	r6, [sp, #8]
701095cc:	f9b5 3194 	ldrsh.w	r3, [r5, #404]	@ 0x194
701095d0:	4652      	mov	r2, sl
701095d2:	9301      	str	r3, [sp, #4]
701095d4:	f9b4 3014 	ldrsh.w	r3, [r4, #20]
701095d8:	f108 0178 	add.w	r1, r8, #120	@ 0x78
701095dc:	9300      	str	r3, [sp, #0]
701095de:	f9b4 3012 	ldrsh.w	r3, [r4, #18]
701095e2:	f7ff fb31 	bl	70108c48 <_print_debug>
701095e6:	f9b5 3194 	ldrsh.w	r3, [r5, #404]	@ 0x194
701095ea:	9602      	str	r6, [sp, #8]
701095ec:	f9b4 2014 	ldrsh.w	r2, [r4, #20]
701095f0:	2001      	movs	r0, #1
701095f2:	9201      	str	r2, [sp, #4]
701095f4:	f9b4 2012 	ldrsh.w	r2, [r4, #18]
701095f8:	f108 01ba 	add.w	r1, r8, #186	@ 0xba
701095fc:	9200      	str	r2, [sp, #0]
701095fe:	4652      	mov	r2, sl
70109600:	f7ff fb22 	bl	70108c48 <_print_debug>
70109604:	464a      	mov	r2, r9
70109606:	4621      	mov	r1, r4
70109608:	4628      	mov	r0, r5
7010960a:	f7ff fe35 	bl	70109278 <_log_counters>
7010960e:	ab14      	add	r3, sp, #80	@ 0x50
70109610:	9302      	str	r3, [sp, #8]
70109612:	f9b4 2014 	ldrsh.w	r2, [r4, #20]
70109616:	f9b5 3194 	ldrsh.w	r3, [r5, #404]	@ 0x194
7010961a:	ea43 4302 	orr.w	r3, r3, r2, lsl #16
7010961e:	e9cd 7300 	strd	r7, r3, [sp]
70109622:	2202      	movs	r2, #2
70109624:	e9d5 0161 	ldrd	r0, r1, [r5, #388]	@ 0x184
70109628:	2300      	movs	r3, #0
7010962a:	f7ff f8bd 	bl	701087a8 <aiPbMgrSendOperator>
7010962e:	2e00      	cmp	r6, #0
70109630:	d09b      	beq.n	7010956a <npu_dump_tensors_cb+0x92>
70109632:	2700      	movs	r7, #0
70109634:	f108 03df 	add.w	r3, r8, #223	@ 0xdf
70109638:	f8df 9074 	ldr.w	r9, [pc, #116]	@ 701096b0 <npu_dump_tensors_cb+0x1d8>
7010963c:	f106 3bff 	add.w	fp, r6, #4294967295
70109640:	9308      	str	r3, [sp, #32]
70109642:	42be      	cmp	r6, r7
70109644:	dd91      	ble.n	7010956a <npu_dump_tensors_cb+0x92>
70109646:	f859 8b04 	ldr.w	r8, [r9], #4
7010964a:	f895 3193 	ldrb.w	r3, [r5, #403]	@ 0x193
7010964e:	f9b4 2012 	ldrsh.w	r2, [r4, #18]
70109652:	f8b8 1016 	ldrh.w	r1, [r8, #22]
70109656:	9307      	str	r3, [sp, #28]
70109658:	f9b4 3014 	ldrsh.w	r3, [r4, #20]
7010965c:	45bb      	cmp	fp, r7
7010965e:	4640      	mov	r0, r8
70109660:	bf0c      	ite	eq
70109662:	f44f 7a41 	moveq.w	sl, #772	@ 0x304
70109666:	f44f 7a01 	movne.w	sl, #516	@ 0x204
7010966a:	920b      	str	r2, [sp, #44]	@ 0x2c
7010966c:	930a      	str	r3, [sp, #40]	@ 0x28
7010966e:	9109      	str	r1, [sp, #36]	@ 0x24
70109670:	f000 fa20 	bl	70109ab4 <get_ll_buffer_size>
70109674:	e9dd 320a 	ldrd	r3, r2, [sp, #40]	@ 0x28
70109678:	9909      	ldr	r1, [sp, #36]	@ 0x24
7010967a:	e9cd 0a02 	strd	r0, sl, [sp, #8]
7010967e:	9701      	str	r7, [sp, #4]
70109680:	9100      	str	r1, [sp, #0]
70109682:	e9dd 0107 	ldrd	r0, r1, [sp, #28]
70109686:	f7ff fadf 	bl	70108c48 <_print_debug>
7010968a:	f8cd a000 	str.w	sl, [sp]
7010968e:	4643      	mov	r3, r8
70109690:	e9d5 0161 	ldrd	r0, r1, [r5, #388]	@ 0x184
70109694:	2202      	movs	r2, #2
70109696:	f7ff fa9d 	bl	70108bd4 <send_ai_io_tensor.constprop.0.isra.0>
7010969a:	3701      	adds	r7, #1
7010969c:	e7d1      	b.n	70109642 <npu_dump_tensors_cb+0x16a>
7010969e:	bf00      	nop
701096a0:	7010cd34 	.word	0x7010cd34
701096a4:	34001040 	.word	0x34001040
701096a8:	7010cd86 	.word	0x7010cd86
701096ac:	7010cd4c 	.word	0x7010cd4c
701096b0:	34001000 	.word	0x34001000

701096b4 <aiValidationInit>:
701096b4:	b530      	push	{r4, r5, lr}
701096b6:	4c1d      	ldr	r4, [pc, #116]	@ (7010972c <aiValidationInit+0x78>)
701096b8:	b085      	sub	sp, #20
701096ba:	f204 5017 	addw	r0, r4, #1303	@ 0x517
701096be:	f7fc fe2f 	bl	70106320 <lc_print>
701096c2:	f204 511d 	addw	r1, r4, #1309	@ 0x51d
701096c6:	2200      	movs	r2, #0
701096c8:	2306      	movs	r3, #6
701096ca:	f204 5035 	addw	r0, r4, #1333	@ 0x535
701096ce:	f7fc fe27 	bl	70106320 <lc_print>
701096d2:	4d17      	ldr	r5, [pc, #92]	@ (70109730 <aiValidationInit+0x7c>)
701096d4:	f204 5042 	addw	r0, r4, #1346	@ 0x542
701096d8:	f7fc fe22 	bl	70106320 <lc_print>
701096dc:	f204 5046 	addw	r0, r4, #1350	@ 0x546
701096e0:	f7fc fe1e 	bl	70106320 <lc_print>
701096e4:	f7fc fec6 	bl	70106474 <systemSettingLog>
701096e8:	f7fc ff7e 	bl	701065e8 <port_dwt_init_imp>
701096ec:	f8d5 3e04 	ldr.w	r3, [r5, #3588]	@ 0xe04
701096f0:	2064      	movs	r0, #100	@ 0x64
701096f2:	f043 0304 	orr.w	r3, r3, #4
701096f6:	f8c5 3e04 	str.w	r3, [r5, #3588]	@ 0xe04
701096fa:	f7f8 fadd 	bl	70101cb8 <HAL_Delay>
701096fe:	6fe8      	ldr	r0, [r5, #124]	@ 0x7c
70109700:	2564      	movs	r5, #100	@ 0x64
70109702:	466a      	mov	r2, sp
70109704:	fbb0 f0f5 	udiv	r0, r0, r5
70109708:	2100      	movs	r1, #0
7010970a:	f7fc fe2b 	bl	70106364 <dwtCyclesToTime>
7010970e:	e9dd 1301 	ldrd	r1, r3, [sp, #4]
70109712:	f204 5049 	addw	r0, r4, #1353	@ 0x549
70109716:	fb05 3101 	mla	r1, r5, r1, r3
7010971a:	9a03      	ldr	r2, [sp, #12]
7010971c:	f7fc fe00 	bl	70106320 <lc_print>
70109720:	f7fc ff62 	bl	701065e8 <port_dwt_init_imp>
70109724:	2000      	movs	r0, #0
70109726:	b005      	add	sp, #20
70109728:	bd30      	pop	{r4, r5, pc}
7010972a:	bf00      	nop
7010972c:	7010c944 	.word	0x7010c944
70109730:	e0003000 	.word	0xe0003000

70109734 <aiValidationProcess>:
70109734:	e92d 41f0 	stmdb	sp!, {r4, r5, r6, r7, r8, lr}
70109738:	2600      	movs	r6, #0
7010973a:	4c66      	ldr	r4, [pc, #408]	@ (701098d4 <aiValidationProcess+0x1a0>)
7010973c:	b088      	sub	sp, #32
7010973e:	4621      	mov	r1, r4
70109740:	4630      	mov	r0, r6
70109742:	f000 fb8d 	bl	70109e60 <npu_get_instance_by_index>
70109746:	4605      	mov	r5, r0
70109748:	2800      	cmp	r0, #0
7010974a:	f040 80b7 	bne.w	701098bc <aiValidationProcess+0x188>
7010974e:	a802      	add	r0, sp, #8
70109750:	f7fe fc44 	bl	70107fdc <stai_runtime_get_info>
70109754:	4860      	ldr	r0, [pc, #384]	@ (701098d8 <aiValidationProcess+0x1a4>)
70109756:	f7fc fde3 	bl	70106320 <lc_print>
7010975a:	4860      	ldr	r0, [pc, #384]	@ (701098dc <aiValidationProcess+0x1a8>)
7010975c:	f7fc fde0 	bl	70106320 <lc_print>
70109760:	485f      	ldr	r0, [pc, #380]	@ (701098e0 <aiValidationProcess+0x1ac>)
70109762:	f7fc fddd 	bl	70106320 <lc_print>
70109766:	495f      	ldr	r1, [pc, #380]	@ (701098e4 <aiValidationProcess+0x1b0>)
70109768:	f101 001b 	add.w	r0, r1, #27
7010976c:	f7fc fdd8 	bl	70106320 <lc_print>
70109770:	9b05      	ldr	r3, [sp, #20]
70109772:	f89d 200d 	ldrb.w	r2, [sp, #13]
70109776:	f89d 100c 	ldrb.w	r1, [sp, #12]
7010977a:	485b      	ldr	r0, [pc, #364]	@ (701098e8 <aiValidationProcess+0x1b4>)
7010977c:	9300      	str	r3, [sp, #0]
7010977e:	f89d 300e 	ldrb.w	r3, [sp, #14]
70109782:	f7fc fdcd 	bl	70106320 <lc_print>
70109786:	9907      	ldr	r1, [sp, #28]
70109788:	4858      	ldr	r0, [pc, #352]	@ (701098ec <aiValidationProcess+0x1b8>)
7010978a:	f7fc fdc9 	bl	70106320 <lc_print>
7010978e:	4852      	ldr	r0, [pc, #328]	@ (701098d8 <aiValidationProcess+0x1a4>)
70109790:	f7fc fdc6 	bl	70106320 <lc_print>
70109794:	4856      	ldr	r0, [pc, #344]	@ (701098f0 <aiValidationProcess+0x1bc>)
70109796:	f7fc fdc3 	bl	70106320 <lc_print>
7010979a:	4851      	ldr	r0, [pc, #324]	@ (701098e0 <aiValidationProcess+0x1ac>)
7010979c:	f7fc fdc0 	bl	70106320 <lc_print>
701097a0:	4854      	ldr	r0, [pc, #336]	@ (701098f4 <aiValidationProcess+0x1c0>)
701097a2:	1d21      	adds	r1, r4, #4
701097a4:	f7fc fdbc 	bl	70106320 <lc_print>
701097a8:	f8d4 1158 	ldr.w	r1, [r4, #344]	@ 0x158
701097ac:	4852      	ldr	r0, [pc, #328]	@ (701098f8 <aiValidationProcess+0x1c4>)
701097ae:	f7fc fdb7 	bl	70106320 <lc_print>
701097b2:	f8d4 1160 	ldr.w	r1, [r4, #352]	@ 0x160
701097b6:	2900      	cmp	r1, #0
701097b8:	d070      	beq.n	7010989c <aiValidationProcess+0x168>
701097ba:	4850      	ldr	r0, [pc, #320]	@ (701098fc <aiValidationProcess+0x1c8>)
701097bc:	0a89      	lsrs	r1, r1, #10
701097be:	f7fc fdaf 	bl	70106320 <lc_print>
701097c2:	f8d4 115c 	ldr.w	r1, [r4, #348]	@ 0x15c
701097c6:	484e      	ldr	r0, [pc, #312]	@ (70109900 <aiValidationProcess+0x1cc>)
701097c8:	0a89      	lsrs	r1, r1, #10
701097ca:	f7fc fda9 	bl	70106320 <lc_print>
701097ce:	6d21      	ldr	r1, [r4, #80]	@ 0x50
701097d0:	484c      	ldr	r0, [pc, #304]	@ (70109904 <aiValidationProcess+0x1d0>)
701097d2:	f7fc fda5 	bl	70106320 <lc_print>
701097d6:	2700      	movs	r7, #0
701097d8:	f104 0854 	add.w	r8, r4, #84	@ 0x54
701097dc:	6d23      	ldr	r3, [r4, #80]	@ 0x50
701097de:	42bb      	cmp	r3, r7
701097e0:	d860      	bhi.n	701098a4 <aiValidationProcess+0x170>
701097e2:	6d61      	ldr	r1, [r4, #84]	@ 0x54
701097e4:	4848      	ldr	r0, [pc, #288]	@ (70109908 <aiValidationProcess+0x1d4>)
701097e6:	f7fc fd9b 	bl	70106320 <lc_print>
701097ea:	f104 07d4 	add.w	r7, r4, #212	@ 0xd4
701097ee:	6d63      	ldr	r3, [r4, #84]	@ 0x54
701097f0:	42ab      	cmp	r3, r5
701097f2:	d85d      	bhi.n	701098b0 <aiValidationProcess+0x17c>
701097f4:	4838      	ldr	r0, [pc, #224]	@ (701098d8 <aiValidationProcess+0x1a4>)
701097f6:	f7fc fd93 	bl	70106320 <lc_print>
701097fa:	2101      	movs	r1, #1
701097fc:	4620      	mov	r0, r4
701097fe:	f000 fc4b 	bl	7010a098 <npu_init>
70109802:	4601      	mov	r1, r0
70109804:	4841      	ldr	r0, [pc, #260]	@ (7010990c <aiValidationProcess+0x1d8>)
70109806:	f7fc fd8b 	bl	70106320 <lc_print>
7010980a:	4841      	ldr	r0, [pc, #260]	@ (70109910 <aiValidationProcess+0x1dc>)
7010980c:	f7fc fd88 	bl	70106320 <lc_print>
70109810:	f8d4 517c 	ldr.w	r5, [r4, #380]	@ 0x17c
70109814:	2100      	movs	r1, #0
70109816:	4628      	mov	r0, r5
70109818:	f7fc fde2 	bl	701063e0 <dwtCyclesToFloatMs>
7010981c:	eeb7 7ac0 	vcvt.f64.f32	d7, s0
70109820:	4629      	mov	r1, r5
70109822:	ec53 2b17 	vmov	r2, r3, d7
70109826:	483b      	ldr	r0, [pc, #236]	@ (70109914 <aiValidationProcess+0x1e0>)
70109828:	f7fc fd7a 	bl	70106320 <lc_print>
7010982c:	f8d4 5180 	ldr.w	r5, [r4, #384]	@ 0x180
70109830:	2100      	movs	r1, #0
70109832:	4628      	mov	r0, r5
70109834:	f7fc fdd4 	bl	701063e0 <dwtCyclesToFloatMs>
70109838:	eeb7 7ac0 	vcvt.f64.f32	d7, s0
7010983c:	4629      	mov	r1, r5
7010983e:	ec53 2b17 	vmov	r2, r3, d7
70109842:	4835      	ldr	r0, [pc, #212]	@ (70109918 <aiValidationProcess+0x1e4>)
70109844:	f7fc fd6c 	bl	70106320 <lc_print>
70109848:	3601      	adds	r6, #1
7010984a:	4b34      	ldr	r3, [pc, #208]	@ (7010991c <aiValidationProcess+0x1e8>)
7010984c:	2e04      	cmp	r6, #4
7010984e:	601c      	str	r4, [r3, #0]
70109850:	f504 74cc 	add.w	r4, r4, #408	@ 0x198
70109854:	f47f af73 	bne.w	7010973e <aiValidationProcess+0xa>
70109858:	481f      	ldr	r0, [pc, #124]	@ (701098d8 <aiValidationProcess+0x1a4>)
7010985a:	f7fc fd61 	bl	70106320 <lc_print>
7010985e:	4830      	ldr	r0, [pc, #192]	@ (70109920 <aiValidationProcess+0x1ec>)
70109860:	f7fc fd5e 	bl	70106320 <lc_print>
70109864:	482f      	ldr	r0, [pc, #188]	@ (70109924 <aiValidationProcess+0x1f0>)
70109866:	f7fc fd5b 	bl	70106320 <lc_print>
7010986a:	482d      	ldr	r0, [pc, #180]	@ (70109920 <aiValidationProcess+0x1ec>)
7010986c:	f7fc fd58 	bl	70106320 <lc_print>
70109870:	4819      	ldr	r0, [pc, #100]	@ (701098d8 <aiValidationProcess+0x1a4>)
70109872:	f7fc fd55 	bl	70106320 <lc_print>
70109876:	482c      	ldr	r0, [pc, #176]	@ (70109928 <aiValidationProcess+0x1f4>)
70109878:	f7fc fd52 	bl	70106320 <lc_print>
7010987c:	482b      	ldr	r0, [pc, #172]	@ (7010992c <aiValidationProcess+0x1f8>)
7010987e:	f7fc fd4f 	bl	70106320 <lc_print>
70109882:	482b      	ldr	r0, [pc, #172]	@ (70109930 <aiValidationProcess+0x1fc>)
70109884:	2202      	movs	r2, #2
70109886:	2103      	movs	r1, #3
70109888:	f7fc fd4a 	bl	70106320 <lc_print>
7010988c:	4829      	ldr	r0, [pc, #164]	@ (70109934 <aiValidationProcess+0x200>)
7010988e:	f7fe fe05 	bl	7010849c <aiPbMgrInit>
70109892:	f7fe fed7 	bl	70108644 <aiPbMgrWaitAndProcess>
70109896:	2800      	cmp	r0, #0
70109898:	d0fb      	beq.n	70109892 <aiValidationProcess+0x15e>
7010989a:	e018      	b.n	701098ce <aiValidationProcess+0x19a>
7010989c:	4826      	ldr	r0, [pc, #152]	@ (70109938 <aiValidationProcess+0x204>)
7010989e:	f7fc fd3f 	bl	70106320 <lc_print>
701098a2:	e78e      	b.n	701097c2 <aiValidationProcess+0x8e>
701098a4:	f858 0f04 	ldr.w	r0, [r8, #4]!
701098a8:	f7ff f934 	bl	70108b14 <print_ll_io_buffer>
701098ac:	3701      	adds	r7, #1
701098ae:	e795      	b.n	701097dc <aiValidationProcess+0xa8>
701098b0:	f857 0f04 	ldr.w	r0, [r7, #4]!
701098b4:	f7ff f92e 	bl	70108b14 <print_ll_io_buffer>
701098b8:	3501      	adds	r5, #1
701098ba:	e798      	b.n	701097ee <aiValidationProcess+0xba>
701098bc:	2e00      	cmp	r6, #0
701098be:	d1cb      	bne.n	70109858 <aiValidationProcess+0x124>
701098c0:	481e      	ldr	r0, [pc, #120]	@ (7010993c <aiValidationProcess+0x208>)
701098c2:	f04f 31ff 	mov.w	r1, #4294967295
701098c6:	f7fc fd2b 	bl	70106320 <lc_print>
701098ca:	f04f 30ff 	mov.w	r0, #4294967295
701098ce:	b008      	add	sp, #32
701098d0:	e8bd 81f0 	ldmia.w	sp!, {r4, r5, r6, r7, r8, pc}
701098d4:	34001044 	.word	0x34001044
701098d8:	7010ce8a 	.word	0x7010ce8a
701098dc:	7010cebe 	.word	0x7010cebe
701098e0:	7010cec9 	.word	0x7010cec9
701098e4:	7010cefe 	.word	0x7010cefe
701098e8:	7010cf31 	.word	0x7010cf31
701098ec:	7010cf53 	.word	0x7010cf53
701098f0:	7010cf6b 	.word	0x7010cf6b
701098f4:	7010cf75 	.word	0x7010cf75
701098f8:	7010cf8b 	.word	0x7010cf8b
701098fc:	7010cfa1 	.word	0x7010cfa1
70109900:	7010cfd3 	.word	0x7010cfd3
70109904:	7010cfed 	.word	0x7010cfed
70109908:	7010d003 	.word	0x7010d003
7010990c:	7010d019 	.word	0x7010d019
70109910:	7010d03e 	.word	0x7010d03e
70109914:	7010d042 	.word	0x7010d042
70109918:	7010d06e 	.word	0x7010d06e
7010991c:	34001040 	.word	0x34001040
70109920:	7010d09a 	.word	0x7010d09a
70109924:	7010d0c8 	.word	0x7010d0c8
70109928:	7010d0f6 	.word	0x7010d0f6
7010992c:	7010d13c 	.word	0x7010d13c
70109930:	7010d16a 	.word	0x7010d16a
70109934:	34000010 	.word	0x34000010
70109938:	7010cfbb 	.word	0x7010cfbb
7010993c:	7010d1a6 	.word	0x7010d1a6

70109940 <connect_input_buffers>:
70109940:	4770      	bx	lr

70109942 <connect_output_buffers>:
70109942:	4770      	bx	lr

70109944 <LL_Buffer_addr_start>:
70109944:	7d02      	ldrb	r2, [r0, #20]
70109946:	6843      	ldr	r3, [r0, #4]
70109948:	b102      	cbz	r2, 7010994c <LL_Buffer_addr_start+0x8>
7010994a:	681b      	ldr	r3, [r3, #0]
7010994c:	6880      	ldr	r0, [r0, #8]
7010994e:	4418      	add	r0, r3
70109950:	4770      	bx	lr
	...

70109954 <ARM_PMU_CYCCNT_Reset>:
70109954:	4a03      	ldr	r2, [pc, #12]	@ (70109964 <ARM_PMU_CYCCNT_Reset+0x10>)
70109956:	f8d2 3e04 	ldr.w	r3, [r2, #3588]	@ 0xe04
7010995a:	f043 0304 	orr.w	r3, r3, #4
7010995e:	f8c2 3e04 	str.w	r3, [r2, #3588]	@ 0xe04
70109962:	4770      	bx	lr
70109964:	e0003000 	.word	0xe0003000

70109968 <_rt_callback>:
70109968:	b570      	push	{r4, r5, r6, lr}
7010996a:	b086      	sub	sp, #24
7010996c:	466d      	mov	r5, sp
7010996e:	460e      	mov	r6, r1
70109970:	4c0f      	ldr	r4, [pc, #60]	@ (701099b0 <_rt_callback+0x48>)
70109972:	cc0f      	ldmia	r4!, {r0, r1, r2, r3}
70109974:	c50f      	stmia	r5!, {r0, r1, r2, r3}
70109976:	e894 0003 	ldmia.w	r4, {r0, r1}
7010997a:	e885 0003 	stmia.w	r5, {r0, r1}
7010997e:	ab06      	add	r3, sp, #24
70109980:	eb03 0686 	add.w	r6, r3, r6, lsl #2
70109984:	f856 3c18 	ldr.w	r3, [r6, #-24]
70109988:	3408      	adds	r4, #8
7010998a:	42a3      	cmp	r3, r4
7010998c:	d107      	bne.n	7010999e <_rt_callback+0x36>
7010998e:	f7fd fcbf 	bl	70107310 <LL_Dbgtrc_EnableClock>
70109992:	2000      	movs	r0, #0
70109994:	b006      	add	sp, #24
70109996:	e8bd 4070 	ldmia.w	sp!, {r4, r5, r6, lr}
7010999a:	f7fd bc95 	b.w	701072c8 <LL_Dbgtrc_Init>
7010999e:	2000      	movs	r0, #0
701099a0:	f7fd fca6 	bl	701072f0 <LL_Dbgtrc_Deinit>
701099a4:	b006      	add	sp, #24
701099a6:	e8bd 4070 	ldmia.w	sp!, {r4, r5, r6, lr}
701099aa:	f7fd bcc5 	b.w	70107338 <LL_Dbgtrc_DisableClock>
701099ae:	bf00      	nop
701099b0:	7010d224 	.word	0x7010d224

701099b4 <_get_used_size_from_region>:
701099b4:	e92d 47f0 	stmdb	sp!, {r4, r5, r6, r7, r8, r9, sl, lr}
701099b8:	4605      	mov	r5, r0
701099ba:	4616      	mov	r6, r2
701099bc:	4680      	mov	r8, r0
701099be:	460f      	mov	r7, r1
701099c0:	2400      	movs	r4, #0
701099c2:	f101 0901 	add.w	r9, r1, #1
701099c6:	f1c0 0a01 	rsb	sl, r0, #1
701099ca:	6833      	ldr	r3, [r6, #0]
701099cc:	b183      	cbz	r3, 701099f0 <_get_used_size_from_region+0x3c>
701099ce:	4630      	mov	r0, r6
701099d0:	f7ff ffb8 	bl	70109944 <LL_Buffer_addr_start>
701099d4:	7d32      	ldrb	r2, [r6, #20]
701099d6:	6873      	ldr	r3, [r6, #4]
701099d8:	b102      	cbz	r2, 701099dc <_get_used_size_from_region+0x28>
701099da:	681b      	ldr	r3, [r3, #0]
701099dc:	68f2      	ldr	r2, [r6, #12]
701099de:	4285      	cmp	r5, r0
701099e0:	4413      	add	r3, r2
701099e2:	f103 33ff 	add.w	r3, r3, #4294967295
701099e6:	d31c      	bcc.n	70109a22 <_get_used_size_from_region+0x6e>
701099e8:	4299      	cmp	r1, r3
701099ea:	d804      	bhi.n	701099f6 <_get_used_size_from_region+0x42>
701099ec:	1b4c      	subs	r4, r1, r5
701099ee:	3401      	adds	r4, #1
701099f0:	4620      	mov	r0, r4
701099f2:	e8bd 87f0 	ldmia.w	sp!, {r4, r5, r6, r7, r8, r9, sl, pc}
701099f6:	4285      	cmp	r5, r0
701099f8:	d10a      	bne.n	70109a10 <_get_used_size_from_region+0x5c>
701099fa:	4287      	cmp	r7, r0
701099fc:	bf28      	it	cs
701099fe:	4607      	movcs	r7, r0
70109a00:	4598      	cmp	r8, r3
70109a02:	bf38      	it	cc
70109a04:	4698      	movcc	r8, r3
70109a06:	f1c7 0401 	rsb	r4, r7, #1
70109a0a:	4444      	add	r4, r8
70109a0c:	3638      	adds	r6, #56	@ 0x38
70109a0e:	e7dc      	b.n	701099ca <_get_used_size_from_region+0x16>
70109a10:	429d      	cmp	r5, r3
70109a12:	d8fb      	bhi.n	70109a0c <_get_used_size_from_region+0x58>
70109a14:	4598      	cmp	r8, r3
70109a16:	bf38      	it	cc
70109a18:	4698      	movcc	r8, r3
70109a1a:	462f      	mov	r7, r5
70109a1c:	eb0a 0408 	add.w	r4, sl, r8
70109a20:	e7f4      	b.n	70109a0c <_get_used_size_from_region+0x58>
70109a22:	4299      	cmp	r1, r3
70109a24:	d2e9      	bcs.n	701099fa <_get_used_size_from_region+0x46>
70109a26:	4281      	cmp	r1, r0
70109a28:	d3f0      	bcc.n	70109a0c <_get_used_size_from_region+0x58>
70109a2a:	4287      	cmp	r7, r0
70109a2c:	bf28      	it	cs
70109a2e:	4607      	movcs	r7, r0
70109a30:	4688      	mov	r8, r1
70109a32:	eba9 0407 	sub.w	r4, r9, r7
70109a36:	e7e9      	b.n	70109a0c <_get_used_size_from_region+0x58>

70109a38 <npu_cache_counters_enable>:
70109a38:	4b09      	ldr	r3, [pc, #36]	@ (70109a60 <npu_cache_counters_enable+0x28>)
70109a3a:	681a      	ldr	r2, [r3, #0]
70109a3c:	07d2      	lsls	r2, r2, #31
70109a3e:	d50d      	bpl.n	70109a5c <npu_cache_counters_enable+0x24>
70109a40:	681a      	ldr	r2, [r3, #0]
70109a42:	2000      	movs	r0, #0
70109a44:	f042 524c 	orr.w	r2, r2, #855638016	@ 0x33000000
70109a48:	f442 124c 	orr.w	r2, r2, #3342336	@ 0x330000
70109a4c:	601a      	str	r2, [r3, #0]
70109a4e:	681a      	ldr	r2, [r3, #0]
70109a50:	f042 424c 	orr.w	r2, r2, #3422552064	@ 0xcc000000
70109a54:	f442 024c 	orr.w	r2, r2, #13369344	@ 0xcc0000
70109a58:	601a      	str	r2, [r3, #0]
70109a5a:	4770      	bx	lr
70109a5c:	2001      	movs	r0, #1
70109a5e:	4770      	bx	lr
70109a60:	580dfc00 	.word	0x580dfc00

70109a64 <npu_cache_counters_disable>:
70109a64:	4b05      	ldr	r3, [pc, #20]	@ (70109a7c <npu_cache_counters_disable+0x18>)
70109a66:	681a      	ldr	r2, [r3, #0]
70109a68:	07d2      	lsls	r2, r2, #31
70109a6a:	bf43      	ittte	mi
70109a6c:	681a      	ldrmi	r2, [r3, #0]
70109a6e:	2000      	movmi	r0, #0
70109a70:	b292      	uxthmi	r2, r2
70109a72:	2001      	movpl	r0, #1
70109a74:	bf48      	it	mi
70109a76:	601a      	strmi	r2, [r3, #0]
70109a78:	4770      	bx	lr
70109a7a:	bf00      	nop
70109a7c:	580dfc00 	.word	0x580dfc00

70109a80 <npu_cache_counters_get>:
70109a80:	4b0a      	ldr	r3, [pc, #40]	@ (70109aac <npu_cache_counters_get+0x2c>)
70109a82:	b500      	push	{lr}
70109a84:	681b      	ldr	r3, [r3, #0]
70109a86:	07db      	lsls	r3, r3, #31
70109a88:	d50e      	bpl.n	70109aa8 <npu_cache_counters_get+0x28>
70109a8a:	b168      	cbz	r0, 70109aa8 <npu_cache_counters_get+0x28>
70109a8c:	f04f 0e08 	mov.w	lr, #8
70109a90:	f04e e001 	dls	lr, lr
70109a94:	4b06      	ldr	r3, [pc, #24]	@ (70109ab0 <npu_cache_counters_get+0x30>)
70109a96:	3804      	subs	r0, #4
70109a98:	f853 2b04 	ldr.w	r2, [r3], #4
70109a9c:	f840 2f04 	str.w	r2, [r0, #4]!
70109aa0:	f00f c007 	le	lr, 70109a98 <npu_cache_counters_get+0x18>
70109aa4:	2000      	movs	r0, #0
70109aa6:	bd00      	pop	{pc}
70109aa8:	2001      	movs	r0, #1
70109aaa:	e7fc      	b.n	70109aa6 <npu_cache_counters_get+0x26>
70109aac:	580dfc00 	.word	0x580dfc00
70109ab0:	580dfc10 	.word	0x580dfc10

70109ab4 <get_ll_buffer_size>:
70109ab4:	e9d0 0202 	ldrd	r0, r2, [r0, #8]
70109ab8:	1a10      	subs	r0, r2, r0
70109aba:	4770      	bx	lr

70109abc <get_ll_element_size>:
70109abc:	f890 0028 	ldrb.w	r0, [r0, #40]	@ 0x28
70109ac0:	08c0      	lsrs	r0, r0, #3
70109ac2:	4770      	bx	lr

70109ac4 <_dump_streng_counters>:
70109ac4:	e92d 41f0 	stmdb	sp!, {r4, r5, r6, r7, r8, lr}
70109ac8:	460c      	mov	r4, r1
70109aca:	2101      	movs	r1, #1
70109acc:	4606      	mov	r6, r0
70109ace:	2500      	movs	r5, #0
70109ad0:	460f      	mov	r7, r1
70109ad2:	fa07 f305 	lsl.w	r3, r7, r5
70109ad6:	4233      	tst	r3, r6
70109ad8:	d007      	beq.n	70109aea <_dump_streng_counters+0x26>
70109ada:	2000      	movs	r0, #0
70109adc:	f101 0801 	add.w	r8, r1, #1
70109ae0:	f7fd fc88 	bl	701073f4 <LL_Dbgtrc_Counter_Read>
70109ae4:	4641      	mov	r1, r8
70109ae6:	f844 0b04 	str.w	r0, [r4], #4
70109aea:	3501      	adds	r5, #1
70109aec:	2d0a      	cmp	r5, #10
70109aee:	d1f0      	bne.n	70109ad2 <_dump_streng_counters+0xe>
70109af0:	e8bd 81f0 	ldmia.w	sp!, {r4, r5, r6, r7, r8, pc}

70109af4 <_epoch_callback>:
70109af4:	b5f0      	push	{r4, r5, r6, r7, lr}
70109af6:	4e7d      	ldr	r6, [pc, #500]	@ (70109cec <_epoch_callback+0x1f8>)
70109af8:	b08b      	sub	sp, #44	@ 0x2c
70109afa:	ac04      	add	r4, sp, #16
70109afc:	460f      	mov	r7, r1
70109afe:	4615      	mov	r5, r2
70109b00:	ce0f      	ldmia	r6!, {r0, r1, r2, r3}
70109b02:	c40f      	stmia	r4!, {r0, r1, r2, r3}
70109b04:	e896 0003 	ldmia.w	r6, {r0, r1}
70109b08:	e884 0003 	stmia.w	r4, {r0, r1}
70109b0c:	4c78      	ldr	r4, [pc, #480]	@ (70109cf0 <_epoch_callback+0x1fc>)
70109b0e:	4b79      	ldr	r3, [pc, #484]	@ (70109cf4 <_epoch_callback+0x200>)
70109b10:	6d20      	ldr	r0, [r4, #80]	@ 0x50
70109b12:	6fde      	ldr	r6, [r3, #124]	@ 0x7c
70109b14:	f410 7080 	ands.w	r0, r0, #256	@ 0x100
70109b18:	d003      	beq.n	70109b22 <_epoch_callback+0x2e>
70109b1a:	2100      	movs	r1, #0
70109b1c:	4608      	mov	r0, r1
70109b1e:	f7fd fc69 	bl	701073f4 <LL_Dbgtrc_Counter_Read>
70109b22:	ab0a      	add	r3, sp, #40	@ 0x28
70109b24:	eb03 0387 	add.w	r3, r3, r7, lsl #2
70109b28:	f853 2c18 	ldr.w	r2, [r3, #-24]
70109b2c:	4b72      	ldr	r3, [pc, #456]	@ (70109cf8 <_epoch_callback+0x204>)
70109b2e:	429a      	cmp	r2, r3
70109b30:	f040 80b5 	bne.w	70109c9e <_epoch_callback+0x1aa>
70109b34:	e9d4 2108 	ldrd	r2, r1, [r4, #32]
70109b38:	2300      	movs	r3, #0
70109b3a:	1992      	adds	r2, r2, r6
70109b3c:	6b66      	ldr	r6, [r4, #52]	@ 0x34
70109b3e:	f141 0100 	adc.w	r1, r1, #0
70109b42:	e9c4 2108 	strd	r2, r1, [r4, #32]
70109b46:	64a3      	str	r3, [r4, #72]	@ 0x48
70109b48:	b126      	cbz	r6, 70109b54 <_epoch_callback+0x60>
70109b4a:	462a      	mov	r2, r5
70109b4c:	4638      	mov	r0, r7
70109b4e:	f9b4 1030 	ldrsh.w	r1, [r4, #48]	@ 0x30
70109b52:	47b0      	blx	r6
70109b54:	6823      	ldr	r3, [r4, #0]
70109b56:	069f      	lsls	r7, r3, #26
70109b58:	f140 8083 	bpl.w	70109c62 <_epoch_callback+0x16e>
70109b5c:	f44f 5204 	mov.w	r2, #8448	@ 0x2100
70109b60:	06df      	lsls	r7, r3, #27
70109b62:	6522      	str	r2, [r4, #80]	@ 0x50
70109b64:	bf42      	ittt	mi
70109b66:	6d23      	ldrmi	r3, [r4, #80]	@ 0x50
70109b68:	f443 5380 	orrmi.w	r3, r3, #4096	@ 0x1000
70109b6c:	6523      	strmi	r3, [r4, #80]	@ 0x50
70109b6e:	6d23      	ldr	r3, [r4, #80]	@ 0x50
70109b70:	05de      	lsls	r6, r3, #23
70109b72:	d50f      	bpl.n	70109b94 <_epoch_callback+0xa0>
70109b74:	2600      	movs	r6, #0
70109b76:	2301      	movs	r3, #1
70109b78:	4631      	mov	r1, r6
70109b7a:	9301      	str	r3, [sp, #4]
70109b7c:	4630      	mov	r0, r6
70109b7e:	f103 7380 	add.w	r3, r3, #16777216	@ 0x1000000
70109b82:	aa01      	add	r2, sp, #4
70109b84:	9302      	str	r3, [sp, #8]
70109b86:	9603      	str	r6, [sp, #12]
70109b88:	f7fd fbde 	bl	70107348 <LL_Dbgtrc_Counter_Init>
70109b8c:	4631      	mov	r1, r6
70109b8e:	4630      	mov	r0, r6
70109b90:	f7fd fc0c 	bl	701073ac <LL_Dbgtrc_Counter_Start>
70109b94:	6d21      	ldr	r1, [r4, #80]	@ 0x50
70109b96:	0508      	lsls	r0, r1, #20
70109b98:	d507      	bpl.n	70109baa <_epoch_callback+0xb6>
70109b9a:	2100      	movs	r1, #0
70109b9c:	4608      	mov	r0, r1
70109b9e:	f7fd fceb 	bl	70107578 <LL_Dbgtrc_BurstLenBenchStart>
70109ba2:	6d21      	ldr	r1, [r4, #80]	@ 0x50
70109ba4:	f041 0110 	orr.w	r1, r1, #16
70109ba8:	6521      	str	r1, [r4, #80]	@ 0x50
70109baa:	04ca      	lsls	r2, r1, #19
70109bac:	d501      	bpl.n	70109bb2 <_epoch_callback+0xbe>
70109bae:	f7ff ff43 	bl	70109a38 <npu_cache_counters_enable>
70109bb2:	048b      	lsls	r3, r1, #18
70109bb4:	d510      	bpl.n	70109bd8 <_epoch_callback+0xe4>
70109bb6:	2201      	movs	r2, #1
70109bb8:	2100      	movs	r1, #0
70109bba:	f240 30ff 	movw	r0, #1023	@ 0x3ff
70109bbe:	f7fd fc27 	bl	70107410 <LL_Dbgtrc_Count_StrengActive_Config>
70109bc2:	6d23      	ldr	r3, [r4, #80]	@ 0x50
70109bc4:	4318      	orrs	r0, r3
70109bc6:	6520      	str	r0, [r4, #80]	@ 0x50
70109bc8:	b2c0      	uxtb	r0, r0
70109bca:	b128      	cbz	r0, 70109bd8 <_epoch_callback+0xe4>
70109bcc:	2201      	movs	r2, #1
70109bce:	2100      	movs	r1, #0
70109bd0:	f240 30ff 	movw	r0, #1023	@ 0x3ff
70109bd4:	f7fd fc4b 	bl	7010746e <LL_Dbgtrc_Count_StrengActive_Start>
70109bd8:	6d23      	ldr	r3, [r4, #80]	@ 0x50
70109bda:	045f      	lsls	r7, r3, #17
70109bdc:	d510      	bpl.n	70109c00 <_epoch_callback+0x10c>
70109bde:	2201      	movs	r2, #1
70109be0:	f240 31ff 	movw	r1, #1023	@ 0x3ff
70109be4:	2000      	movs	r0, #0
70109be6:	f7fd fc13 	bl	70107410 <LL_Dbgtrc_Count_StrengActive_Config>
70109bea:	6d23      	ldr	r3, [r4, #80]	@ 0x50
70109bec:	4318      	orrs	r0, r3
70109bee:	6520      	str	r0, [r4, #80]	@ 0x50
70109bf0:	b2c0      	uxtb	r0, r0
70109bf2:	b128      	cbz	r0, 70109c00 <_epoch_callback+0x10c>
70109bf4:	2201      	movs	r2, #1
70109bf6:	f240 31ff 	movw	r1, #1023	@ 0x3ff
70109bfa:	2000      	movs	r0, #0
70109bfc:	f7fd fc37 	bl	7010746e <LL_Dbgtrc_Count_StrengActive_Start>
70109c00:	6d23      	ldr	r3, [r4, #80]	@ 0x50
70109c02:	059e      	lsls	r6, r3, #22
70109c04:	d50e      	bpl.n	70109c24 <_epoch_callback+0x130>
70109c06:	e9d5 0106 	ldrd	r0, r1, [r5, #24]
70109c0a:	2201      	movs	r2, #1
70109c0c:	f7fd fc00 	bl	70107410 <LL_Dbgtrc_Count_StrengActive_Config>
70109c10:	6d23      	ldr	r3, [r4, #80]	@ 0x50
70109c12:	4318      	orrs	r0, r3
70109c14:	6520      	str	r0, [r4, #80]	@ 0x50
70109c16:	b2c0      	uxtb	r0, r0
70109c18:	b120      	cbz	r0, 70109c24 <_epoch_callback+0x130>
70109c1a:	e9d5 0106 	ldrd	r0, r1, [r5, #24]
70109c1e:	2201      	movs	r2, #1
70109c20:	f7fd fc25 	bl	7010746e <LL_Dbgtrc_Count_StrengActive_Start>
70109c24:	6d23      	ldr	r3, [r4, #80]	@ 0x50
70109c26:	0558      	lsls	r0, r3, #21
70109c28:	d50c      	bpl.n	70109c44 <_epoch_callback+0x150>
70109c2a:	2101      	movs	r1, #1
70109c2c:	69a8      	ldr	r0, [r5, #24]
70109c2e:	f7fd fc47 	bl	701074c0 <LL_Dbgtrc_Count_StrengHENV_Config>
70109c32:	6d23      	ldr	r3, [r4, #80]	@ 0x50
70109c34:	4318      	orrs	r0, r3
70109c36:	6520      	str	r0, [r4, #80]	@ 0x50
70109c38:	b2c0      	uxtb	r0, r0
70109c3a:	b118      	cbz	r0, 70109c44 <_epoch_callback+0x150>
70109c3c:	2101      	movs	r1, #1
70109c3e:	69a8      	ldr	r0, [r5, #24]
70109c40:	f7fd fc60 	bl	70107504 <LL_Dbgtrc_Count_StrengHENV_Start>
70109c44:	8e23      	ldrh	r3, [r4, #48]	@ 0x30
70109c46:	3301      	adds	r3, #1
70109c48:	8623      	strh	r3, [r4, #48]	@ 0x30
70109c4a:	6d23      	ldr	r3, [r4, #80]	@ 0x50
70109c4c:	05d9      	lsls	r1, r3, #23
70109c4e:	d503      	bpl.n	70109c58 <_epoch_callback+0x164>
70109c50:	2200      	movs	r2, #0
70109c52:	4b2a      	ldr	r3, [pc, #168]	@ (70109cfc <_epoch_callback+0x208>)
70109c54:	f8c3 2084 	str.w	r2, [r3, #132]	@ 0x84
70109c58:	b00b      	add	sp, #44	@ 0x2c
70109c5a:	e8bd 40f0 	ldmia.w	sp!, {r4, r5, r6, r7, lr}
70109c5e:	f7ff be79 	b.w	70109954 <ARM_PMU_CYCCNT_Reset>
70109c62:	065e      	lsls	r6, r3, #25
70109c64:	d502      	bpl.n	70109c6c <_epoch_callback+0x178>
70109c66:	f44f 4282 	mov.w	r2, #16640	@ 0x4100
70109c6a:	e779      	b.n	70109b60 <_epoch_callback+0x6c>
70109c6c:	0798      	lsls	r0, r3, #30
70109c6e:	d502      	bpl.n	70109c76 <_epoch_callback+0x182>
70109c70:	f44f 7240 	mov.w	r2, #768	@ 0x300
70109c74:	e774      	b.n	70109b60 <_epoch_callback+0x6c>
70109c76:	0759      	lsls	r1, r3, #29
70109c78:	d502      	bpl.n	70109c80 <_epoch_callback+0x18c>
70109c7a:	f44f 62a0 	mov.w	r2, #1280	@ 0x500
70109c7e:	e76f      	b.n	70109b60 <_epoch_callback+0x6c>
70109c80:	071a      	lsls	r2, r3, #28
70109c82:	d409      	bmi.n	70109c98 <_epoch_callback+0x1a4>
70109c84:	f003 0209 	and.w	r2, r3, #9
70109c88:	f102 3cff 	add.w	ip, r2, #4294967295
70109c8c:	f1dc 0200 	rsbs	r2, ip, #0
70109c90:	eb42 020c 	adc.w	r2, r2, ip
70109c94:	0212      	lsls	r2, r2, #8
70109c96:	e763      	b.n	70109b60 <_epoch_callback+0x6c>
70109c98:	f44f 6200 	mov.w	r2, #2048	@ 0x800
70109c9c:	e760      	b.n	70109b60 <_epoch_callback+0x6c>
70109c9e:	f103 010e 	add.w	r1, r3, #14
70109ca2:	428a      	cmp	r2, r1
70109ca4:	d109      	bne.n	70109cba <_epoch_callback+0x1c6>
70109ca6:	e9d4 3202 	ldrd	r3, r2, [r4, #8]
70109caa:	199b      	adds	r3, r3, r6
70109cac:	f142 0200 	adc.w	r2, r2, #0
70109cb0:	e9c4 3202 	strd	r3, r2, [r4, #8]
70109cb4:	6460      	str	r0, [r4, #68]	@ 0x44
70109cb6:	63a6      	str	r6, [r4, #56]	@ 0x38
70109cb8:	e7ce      	b.n	70109c58 <_epoch_callback+0x164>
70109cba:	f103 011c 	add.w	r1, r3, #28
70109cbe:	428a      	cmp	r2, r1
70109cc0:	d11e      	bne.n	70109d00 <_epoch_callback+0x20c>
70109cc2:	e9d4 310a 	ldrd	r3, r1, [r4, #40]	@ 0x28
70109cc6:	6c62      	ldr	r2, [r4, #68]	@ 0x44
70109cc8:	63e6      	str	r6, [r4, #60]	@ 0x3c
70109cca:	1a82      	subs	r2, r0, r2
70109ccc:	189b      	adds	r3, r3, r2
70109cce:	f141 0100 	adc.w	r1, r1, #0
70109cd2:	e9c4 2012 	strd	r2, r0, [r4, #72]	@ 0x48
70109cd6:	e9c4 310a 	strd	r3, r1, [r4, #40]	@ 0x28
70109cda:	e9d4 3204 	ldrd	r3, r2, [r4, #16]
70109cde:	199b      	adds	r3, r3, r6
70109ce0:	f142 0200 	adc.w	r2, r2, #0
70109ce4:	e9c4 3204 	strd	r3, r2, [r4, #16]
70109ce8:	e7b6      	b.n	70109c58 <_epoch_callback+0x164>
70109cea:	bf00      	nop
70109cec:	7010d224 	.word	0x7010d224
70109cf0:	34001748 	.word	0x34001748
70109cf4:	e0003000 	.word	0xe0003000
70109cf8:	7010d24a 	.word	0x7010d24a
70109cfc:	580ff000 	.word	0x580ff000
70109d00:	f103 012a 	add.w	r1, r3, #42	@ 0x2a
70109d04:	428a      	cmp	r2, r1
70109d06:	d164      	bne.n	70109dd2 <_epoch_callback+0x2de>
70109d08:	6ce3      	ldr	r3, [r4, #76]	@ 0x4c
70109d0a:	6426      	str	r6, [r4, #64]	@ 0x40
70109d0c:	1ac0      	subs	r0, r0, r3
70109d0e:	e9d4 3206 	ldrd	r3, r2, [r4, #24]
70109d12:	199b      	adds	r3, r3, r6
70109d14:	f142 0200 	adc.w	r2, r2, #0
70109d18:	e9c4 3206 	strd	r3, r2, [r4, #24]
70109d1c:	6823      	ldr	r3, [r4, #0]
70109d1e:	64e0      	str	r0, [r4, #76]	@ 0x4c
70109d20:	2b00      	cmp	r3, #0
70109d22:	d04a      	beq.n	70109dba <_epoch_callback+0x2c6>
70109d24:	6d23      	ldr	r3, [r4, #80]	@ 0x50
70109d26:	04da      	lsls	r2, r3, #19
70109d28:	d504      	bpl.n	70109d34 <_epoch_callback+0x240>
70109d2a:	482f      	ldr	r0, [pc, #188]	@ (70109de8 <_epoch_callback+0x2f4>)
70109d2c:	f7ff fea8 	bl	70109a80 <npu_cache_counters_get>
70109d30:	f7ff fe98 	bl	70109a64 <npu_cache_counters_disable>
70109d34:	6d23      	ldr	r3, [r4, #80]	@ 0x50
70109d36:	049b      	lsls	r3, r3, #18
70109d38:	d50a      	bpl.n	70109d50 <_epoch_callback+0x25c>
70109d3a:	2100      	movs	r1, #0
70109d3c:	2201      	movs	r2, #1
70109d3e:	f240 30ff 	movw	r0, #1023	@ 0x3ff
70109d42:	f7fd fba8 	bl	70107496 <LL_Dbgtrc_Count_StrengActive_Stop>
70109d46:	f240 30ff 	movw	r0, #1023	@ 0x3ff
70109d4a:	4928      	ldr	r1, [pc, #160]	@ (70109dec <_epoch_callback+0x2f8>)
70109d4c:	f7ff feba 	bl	70109ac4 <_dump_streng_counters>
70109d50:	6d23      	ldr	r3, [r4, #80]	@ 0x50
70109d52:	045e      	lsls	r6, r3, #17
70109d54:	d50a      	bpl.n	70109d6c <_epoch_callback+0x278>
70109d56:	f240 31ff 	movw	r1, #1023	@ 0x3ff
70109d5a:	2201      	movs	r2, #1
70109d5c:	2000      	movs	r0, #0
70109d5e:	f7fd fb9a 	bl	70107496 <LL_Dbgtrc_Count_StrengActive_Stop>
70109d62:	f240 30ff 	movw	r0, #1023	@ 0x3ff
70109d66:	4921      	ldr	r1, [pc, #132]	@ (70109dec <_epoch_callback+0x2f8>)
70109d68:	f7ff feac 	bl	70109ac4 <_dump_streng_counters>
70109d6c:	6d23      	ldr	r3, [r4, #80]	@ 0x50
70109d6e:	0598      	lsls	r0, r3, #22
70109d70:	d50a      	bpl.n	70109d88 <_epoch_callback+0x294>
70109d72:	e9d5 0106 	ldrd	r0, r1, [r5, #24]
70109d76:	2201      	movs	r2, #1
70109d78:	f7fd fb8d 	bl	70107496 <LL_Dbgtrc_Count_StrengActive_Stop>
70109d7c:	e9d5 0306 	ldrd	r0, r3, [r5, #24]
70109d80:	491a      	ldr	r1, [pc, #104]	@ (70109dec <_epoch_callback+0x2f8>)
70109d82:	4318      	orrs	r0, r3
70109d84:	f7ff fe9e 	bl	70109ac4 <_dump_streng_counters>
70109d88:	6d23      	ldr	r3, [r4, #80]	@ 0x50
70109d8a:	0559      	lsls	r1, r3, #21
70109d8c:	d507      	bpl.n	70109d9e <_epoch_callback+0x2aa>
70109d8e:	2101      	movs	r1, #1
70109d90:	69a8      	ldr	r0, [r5, #24]
70109d92:	f7fd fbc9 	bl	70107528 <LL_Dbgtrc_Count_StrengHENV_Stop>
70109d96:	4915      	ldr	r1, [pc, #84]	@ (70109dec <_epoch_callback+0x2f8>)
70109d98:	69a8      	ldr	r0, [r5, #24]
70109d9a:	f7ff fe93 	bl	70109ac4 <_dump_streng_counters>
70109d9e:	6d23      	ldr	r3, [r4, #80]	@ 0x50
70109da0:	051a      	lsls	r2, r3, #20
70109da2:	d503      	bpl.n	70109dac <_epoch_callback+0x2b8>
70109da4:	2000      	movs	r0, #0
70109da6:	4911      	ldr	r1, [pc, #68]	@ (70109dec <_epoch_callback+0x2f8>)
70109da8:	f7fd fbff 	bl	701075aa <LL_Dbgtrc_BurstLenGet>
70109dac:	6d23      	ldr	r3, [r4, #80]	@ 0x50
70109dae:	05db      	lsls	r3, r3, #23
70109db0:	d503      	bpl.n	70109dba <_epoch_callback+0x2c6>
70109db2:	2100      	movs	r1, #0
70109db4:	4608      	mov	r0, r1
70109db6:	f7fd fb0b 	bl	701073d0 <LL_Dbgtrc_Counter_Stop>
70109dba:	6b66      	ldr	r6, [r4, #52]	@ 0x34
70109dbc:	2e00      	cmp	r6, #0
70109dbe:	f43f af4b 	beq.w	70109c58 <_epoch_callback+0x164>
70109dc2:	8e21      	ldrh	r1, [r4, #48]	@ 0x30
70109dc4:	462a      	mov	r2, r5
70109dc6:	3901      	subs	r1, #1
70109dc8:	4638      	mov	r0, r7
70109dca:	4b09      	ldr	r3, [pc, #36]	@ (70109df0 <_epoch_callback+0x2fc>)
70109dcc:	b209      	sxth	r1, r1
70109dce:	47b0      	blx	r6
70109dd0:	e742      	b.n	70109c58 <_epoch_callback+0x164>
70109dd2:	f1a3 010e 	sub.w	r1, r3, #14
70109dd6:	428a      	cmp	r2, r1
70109dd8:	d003      	beq.n	70109de2 <_epoch_callback+0x2ee>
70109dda:	3338      	adds	r3, #56	@ 0x38
70109ddc:	429a      	cmp	r2, r3
70109dde:	f47f af3b 	bne.w	70109c58 <_epoch_callback+0x164>
70109de2:	b00b      	add	sp, #44	@ 0x2c
70109de4:	bdf0      	pop	{r4, r5, r6, r7, pc}
70109de6:	bf00      	nop
70109de8:	340017dc 	.word	0x340017dc
70109dec:	3400179c 	.word	0x3400179c
70109df0:	34001780 	.word	0x34001780

70109df4 <npu_get_input_buffers_info>:
70109df4:	b510      	push	{r4, lr}
70109df6:	460c      	mov	r4, r1
70109df8:	b908      	cbnz	r0, 70109dfe <npu_get_input_buffers_info+0xa>
70109dfa:	2000      	movs	r0, #0
70109dfc:	bd10      	pop	{r4, pc}
70109dfe:	f8d0 3170 	ldr.w	r3, [r0, #368]	@ 0x170
70109e02:	681b      	ldr	r3, [r3, #0]
70109e04:	6a5b      	ldr	r3, [r3, #36]	@ 0x24
70109e06:	4798      	blx	r3
70109e08:	2c00      	cmp	r4, #0
70109e0a:	dbf7      	blt.n	70109dfc <npu_get_input_buffers_info+0x8>
70109e0c:	1c61      	adds	r1, r4, #1
70109e0e:	6803      	ldr	r3, [r0, #0]
70109e10:	2b00      	cmp	r3, #0
70109e12:	d0f2      	beq.n	70109dfa <npu_get_input_buffers_info+0x6>
70109e14:	7d43      	ldrb	r3, [r0, #21]
70109e16:	2b00      	cmp	r3, #0
70109e18:	d1ef      	bne.n	70109dfa <npu_get_input_buffers_info+0x6>
70109e1a:	3901      	subs	r1, #1
70109e1c:	d0ee      	beq.n	70109dfc <npu_get_input_buffers_info+0x8>
70109e1e:	3038      	adds	r0, #56	@ 0x38
70109e20:	e7f5      	b.n	70109e0e <npu_get_input_buffers_info+0x1a>

70109e22 <npu_get_output_buffers_info>:
70109e22:	b510      	push	{r4, lr}
70109e24:	460c      	mov	r4, r1
70109e26:	b908      	cbnz	r0, 70109e2c <npu_get_output_buffers_info+0xa>
70109e28:	2000      	movs	r0, #0
70109e2a:	bd10      	pop	{r4, pc}
70109e2c:	f8d0 3170 	ldr.w	r3, [r0, #368]	@ 0x170
70109e30:	681b      	ldr	r3, [r3, #0]
70109e32:	6a1b      	ldr	r3, [r3, #32]
70109e34:	4798      	blx	r3
70109e36:	2c00      	cmp	r4, #0
70109e38:	dbf7      	blt.n	70109e2a <npu_get_output_buffers_info+0x8>
70109e3a:	1c61      	adds	r1, r4, #1
70109e3c:	6803      	ldr	r3, [r0, #0]
70109e3e:	2b00      	cmp	r3, #0
70109e40:	d0f2      	beq.n	70109e28 <npu_get_output_buffers_info+0x6>
70109e42:	7d43      	ldrb	r3, [r0, #21]
70109e44:	2b00      	cmp	r3, #0
70109e46:	d1ef      	bne.n	70109e28 <npu_get_output_buffers_info+0x6>
70109e48:	3901      	subs	r1, #1
70109e4a:	d0ee      	beq.n	70109e2a <npu_get_output_buffers_info+0x8>
70109e4c:	3038      	adds	r0, #56	@ 0x38
70109e4e:	e7f5      	b.n	70109e3c <npu_get_output_buffers_info+0x1a>

70109e50 <npu_get_internal_buffers_info>:
70109e50:	b120      	cbz	r0, 70109e5c <npu_get_internal_buffers_info+0xc>
70109e52:	f8d0 3170 	ldr.w	r3, [r0, #368]	@ 0x170
70109e56:	681b      	ldr	r3, [r3, #0]
70109e58:	6b1b      	ldr	r3, [r3, #48]	@ 0x30
70109e5a:	4718      	bx	r3
70109e5c:	4770      	bx	lr
	...

70109e60 <npu_get_instance_by_index>:
70109e60:	e92d 4ff7 	stmdb	sp!, {r0, r1, r2, r4, r5, r6, r7, r8, r9, sl, fp, lr}
70109e64:	460c      	mov	r4, r1
70109e66:	2900      	cmp	r1, #0
70109e68:	f000 80f1 	beq.w	7010a04e <npu_get_instance_by_index+0x1ee>
70109e6c:	f7ff fd72 	bl	70109954 <ARM_PMU_CYCCNT_Reset>
70109e70:	4b78      	ldr	r3, [pc, #480]	@ (7010a054 <npu_get_instance_by_index+0x1f4>)
70109e72:	4e79      	ldr	r6, [pc, #484]	@ (7010a058 <npu_get_instance_by_index+0x1f8>)
70109e74:	6fdb      	ldr	r3, [r3, #124]	@ 0x7c
70109e76:	f8c1 6170 	str.w	r6, [r1, #368]	@ 0x170
70109e7a:	f8c1 317c 	str.w	r3, [r1, #380]	@ 0x17c
70109e7e:	f8d1 3164 	ldr.w	r3, [r1, #356]	@ 0x164
70109e82:	f043 0308 	orr.w	r3, r3, #8
70109e86:	f8c1 3164 	str.w	r3, [r1, #356]	@ 0x164
70109e8a:	4b74      	ldr	r3, [pc, #464]	@ (7010a05c <npu_get_instance_by_index+0x1fc>)
70109e8c:	f103 026c 	add.w	r2, r3, #108	@ 0x6c
70109e90:	644a      	str	r2, [r1, #68]	@ 0x44
70109e92:	466a      	mov	r2, sp
70109e94:	f8d3 0081 	ldr.w	r0, [r3, #129]	@ 0x81
70109e98:	f8d3 1085 	ldr.w	r1, [r3, #133]	@ 0x85
70109e9c:	3389      	adds	r3, #137	@ 0x89
70109e9e:	64a3      	str	r3, [r4, #72]	@ 0x48
70109ea0:	466b      	mov	r3, sp
70109ea2:	c203      	stmia	r2!, {r0, r1}
70109ea4:	4a6e      	ldr	r2, [pc, #440]	@ (7010a060 <npu_get_instance_by_index+0x200>)
70109ea6:	cb03      	ldmia	r3!, {r0, r1}
70109ea8:	64e2      	str	r2, [r4, #76]	@ 0x4c
70109eaa:	6060      	str	r0, [r4, #4]
70109eac:	60a1      	str	r1, [r4, #8]
70109eae:	4620      	mov	r0, r4
70109eb0:	f04f 31ff 	mov.w	r1, #4294967295
70109eb4:	f7ff ff9e 	bl	70109df4 <npu_get_input_buffers_info>
70109eb8:	2800      	cmp	r0, #0
70109eba:	f000 8099 	beq.w	70109ff0 <npu_get_instance_by_index+0x190>
70109ebe:	2201      	movs	r2, #1
70109ec0:	2300      	movs	r3, #0
70109ec2:	3038      	adds	r0, #56	@ 0x38
70109ec4:	f850 1c38 	ldr.w	r1, [r0, #-56]
70109ec8:	2900      	cmp	r1, #0
70109eca:	f040 809a 	bne.w	7010a002 <npu_get_instance_by_index+0x1a2>
70109ece:	f8c4 3160 	str.w	r3, [r4, #352]	@ 0x160
70109ed2:	2a00      	cmp	r2, #0
70109ed4:	f040 808e 	bne.w	70109ff4 <npu_get_instance_by_index+0x194>
70109ed8:	4620      	mov	r0, r4
70109eda:	f7ff ffb9 	bl	70109e50 <npu_get_internal_buffers_info>
70109ede:	4605      	mov	r5, r0
70109ee0:	2800      	cmp	r0, #0
70109ee2:	f000 809b 	beq.w	7010a01c <npu_get_instance_by_index+0x1bc>
70109ee6:	4602      	mov	r2, r0
70109ee8:	495e      	ldr	r1, [pc, #376]	@ (7010a064 <npu_get_instance_by_index+0x204>)
70109eea:	f04f 5050 	mov.w	r0, #872415232	@ 0x34000000
70109eee:	f7ff fd61 	bl	701099b4 <_get_used_size_from_region>
70109ef2:	462a      	mov	r2, r5
70109ef4:	4607      	mov	r7, r0
70109ef6:	f101 4170 	add.w	r1, r1, #4026531840	@ 0xf0000000
70109efa:	f04f 5010 	mov.w	r0, #603979776	@ 0x24000000
70109efe:	f7ff fd59 	bl	701099b4 <_get_used_size_from_region>
70109f02:	462a      	mov	r2, r5
70109f04:	4958      	ldr	r1, [pc, #352]	@ (7010a068 <npu_get_instance_by_index+0x208>)
70109f06:	4407      	add	r7, r0
70109f08:	4858      	ldr	r0, [pc, #352]	@ (7010a06c <npu_get_instance_by_index+0x20c>)
70109f0a:	f7ff fd53 	bl	701099b4 <_get_used_size_from_region>
70109f0e:	462a      	mov	r2, r5
70109f10:	4407      	add	r7, r0
70109f12:	f101 4170 	add.w	r1, r1, #4026531840	@ 0xf0000000
70109f16:	4856      	ldr	r0, [pc, #344]	@ (7010a070 <npu_get_instance_by_index+0x210>)
70109f18:	f7ff fd4c 	bl	701099b4 <_get_used_size_from_region>
70109f1c:	f8df 8160 	ldr.w	r8, [pc, #352]	@ 7010a080 <npu_get_instance_by_index+0x220>
70109f20:	eb00 0907 	add.w	r9, r0, r7
70109f24:	f8df b15c 	ldr.w	fp, [pc, #348]	@ 7010a084 <npu_get_instance_by_index+0x224>
70109f28:	4f52      	ldr	r7, [pc, #328]	@ (7010a074 <npu_get_instance_by_index+0x214>)
70109f2a:	f508 21df 	add.w	r1, r8, #456704	@ 0x6f800
70109f2e:	462a      	mov	r2, r5
70109f30:	4640      	mov	r0, r8
70109f32:	f201 71ff 	addw	r1, r1, #2047	@ 0x7ff
70109f36:	f7ff fd3d 	bl	701099b4 <_get_used_size_from_region>
70109f3a:	eb08 0107 	add.w	r1, r8, r7
70109f3e:	4682      	mov	sl, r0
70109f40:	462a      	mov	r2, r5
70109f42:	f108 4070 	add.w	r0, r8, #4026531840	@ 0xf0000000
70109f46:	f7ff fd35 	bl	701099b4 <_get_used_size_from_region>
70109f4a:	f508 28e0 	add.w	r8, r8, #458752	@ 0x70000
70109f4e:	4482      	add	sl, r0
70109f50:	45d8      	cmp	r8, fp
70109f52:	44d1      	add	r9, sl
70109f54:	d1e9      	bne.n	70109f2a <npu_get_instance_by_index+0xca>
70109f56:	462a      	mov	r2, r5
70109f58:	4947      	ldr	r1, [pc, #284]	@ (7010a078 <npu_get_instance_by_index+0x218>)
70109f5a:	4640      	mov	r0, r8
70109f5c:	f7ff fd2a 	bl	701099b4 <_get_used_size_from_region>
70109f60:	462a      	mov	r2, r5
70109f62:	4607      	mov	r7, r0
70109f64:	f101 4170 	add.w	r1, r1, #4026531840	@ 0xf0000000
70109f68:	4844      	ldr	r0, [pc, #272]	@ (7010a07c <npu_get_instance_by_index+0x21c>)
70109f6a:	f7ff fd23 	bl	701099b4 <_get_used_size_from_region>
70109f6e:	462a      	mov	r2, r5
70109f70:	4407      	add	r7, r0
70109f72:	f04f 4120 	mov.w	r1, #2684354560	@ 0xa0000000
70109f76:	f04f 40c0 	mov.w	r0, #1610612736	@ 0x60000000
70109f7a:	f7ff fd1b 	bl	701099b4 <_get_used_size_from_region>
70109f7e:	444f      	add	r7, r9
70109f80:	4407      	add	r7, r0
70109f82:	f8c4 715c 	str.w	r7, [r4, #348]	@ 0x15c
70109f86:	2100      	movs	r1, #0
70109f88:	6521      	str	r1, [r4, #80]	@ 0x50
70109f8a:	4620      	mov	r0, r4
70109f8c:	f7ff ff32 	bl	70109df4 <npu_get_input_buffers_info>
70109f90:	4601      	mov	r1, r0
70109f92:	2800      	cmp	r0, #0
70109f94:	d14b      	bne.n	7010a02e <npu_get_instance_by_index+0x1ce>
70109f96:	4620      	mov	r0, r4
70109f98:	6561      	str	r1, [r4, #84]	@ 0x54
70109f9a:	f7ff ff42 	bl	70109e22 <npu_get_output_buffers_info>
70109f9e:	4605      	mov	r5, r0
70109fa0:	2800      	cmp	r0, #0
70109fa2:	d14a      	bne.n	7010a03a <npu_get_instance_by_index+0x1da>
70109fa4:	6833      	ldr	r3, [r6, #0]
70109fa6:	69db      	ldr	r3, [r3, #28]
70109fa8:	4798      	blx	r3
70109faa:	8a03      	ldrh	r3, [r0, #16]
70109fac:	1c6a      	adds	r2, r5, #1
70109fae:	2b08      	cmp	r3, #8
70109fb0:	d14a      	bne.n	7010a048 <npu_get_instance_by_index+0x1e8>
70109fb2:	6d23      	ldr	r3, [r4, #80]	@ 0x50
70109fb4:	b22d      	sxth	r5, r5
70109fb6:	f8c4 5158 	str.w	r5, [r4, #344]	@ 0x158
70109fba:	b193      	cbz	r3, 70109fe2 <npu_get_instance_by_index+0x182>
70109fbc:	6da5      	ldr	r5, [r4, #88]	@ 0x58
70109fbe:	4628      	mov	r0, r5
70109fc0:	f7ff fcc0 	bl	70109944 <LL_Buffer_addr_start>
70109fc4:	b968      	cbnz	r0, 70109fe2 <npu_get_instance_by_index+0x182>
70109fc6:	f8d4 1164 	ldr.w	r1, [r4, #356]	@ 0x164
70109fca:	4628      	mov	r0, r5
70109fcc:	f041 0310 	orr.w	r3, r1, #16
70109fd0:	f8c4 3164 	str.w	r3, [r4, #356]	@ 0x164
70109fd4:	f7ff fcb6 	bl	70109944 <LL_Buffer_addr_start>
70109fd8:	b918      	cbnz	r0, 70109fe2 <npu_get_instance_by_index+0x182>
70109fda:	f041 0130 	orr.w	r1, r1, #48	@ 0x30
70109fde:	f8c4 1164 	str.w	r1, [r4, #356]	@ 0x164
70109fe2:	2000      	movs	r0, #0
70109fe4:	6020      	str	r0, [r4, #0]
70109fe6:	f8c4 0174 	str.w	r0, [r4, #372]	@ 0x174
70109fea:	b003      	add	sp, #12
70109fec:	e8bd 8ff0 	ldmia.w	sp!, {r4, r5, r6, r7, r8, r9, sl, fp, pc}
70109ff0:	f8c4 0160 	str.w	r0, [r4, #352]	@ 0x160
70109ff4:	f8d4 3164 	ldr.w	r3, [r4, #356]	@ 0x164
70109ff8:	f043 0302 	orr.w	r3, r3, #2
70109ffc:	f8c4 3164 	str.w	r3, [r4, #356]	@ 0x164
7010a000:	e76a      	b.n	70109ed8 <npu_get_instance_by_index+0x78>
7010a002:	f810 1c23 	ldrb.w	r1, [r0, #-35]
7010a006:	2901      	cmp	r1, #1
7010a008:	d106      	bne.n	7010a018 <npu_get_instance_by_index+0x1b8>
7010a00a:	f850 2c2c 	ldr.w	r2, [r0, #-44]
7010a00e:	4413      	add	r3, r2
7010a010:	f850 2c30 	ldr.w	r2, [r0, #-48]
7010a014:	1a9b      	subs	r3, r3, r2
7010a016:	2200      	movs	r2, #0
7010a018:	3038      	adds	r0, #56	@ 0x38
7010a01a:	e753      	b.n	70109ec4 <npu_get_instance_by_index+0x64>
7010a01c:	f8d4 3164 	ldr.w	r3, [r4, #356]	@ 0x164
7010a020:	f8c4 015c 	str.w	r0, [r4, #348]	@ 0x15c
7010a024:	f043 0304 	orr.w	r3, r3, #4
7010a028:	f8c4 3164 	str.w	r3, [r4, #356]	@ 0x164
7010a02c:	e7ab      	b.n	70109f86 <npu_get_instance_by_index+0x126>
7010a02e:	6d23      	ldr	r3, [r4, #80]	@ 0x50
7010a030:	eb04 0283 	add.w	r2, r4, r3, lsl #2
7010a034:	6591      	str	r1, [r2, #88]	@ 0x58
7010a036:	1c59      	adds	r1, r3, #1
7010a038:	e7a6      	b.n	70109f88 <npu_get_instance_by_index+0x128>
7010a03a:	6d61      	ldr	r1, [r4, #84]	@ 0x54
7010a03c:	eb04 0381 	add.w	r3, r4, r1, lsl #2
7010a040:	f8c3 50d8 	str.w	r5, [r3, #216]	@ 0xd8
7010a044:	3101      	adds	r1, #1
7010a046:	e7a6      	b.n	70109f96 <npu_get_instance_by_index+0x136>
7010a048:	4615      	mov	r5, r2
7010a04a:	3030      	adds	r0, #48	@ 0x30
7010a04c:	e7ad      	b.n	70109faa <npu_get_instance_by_index+0x14a>
7010a04e:	f04f 30ff 	mov.w	r0, #4294967295
7010a052:	e7ca      	b.n	70109fea <npu_get_instance_by_index+0x18a>
7010a054:	e0003000 	.word	0xe0003000
7010a058:	34000058 	.word	0x34000058
7010a05c:	7010d224 	.word	0x7010d224
7010a060:	01010300 	.word	0x01010300
7010a064:	340fffff 	.word	0x340fffff
7010a068:	341fffff 	.word	0x341fffff
7010a06c:	34100000 	.word	0x34100000
7010a070:	24100000 	.word	0x24100000
7010a074:	f006ffff 	.word	0xf006ffff
7010a078:	343fffff 	.word	0x343fffff
7010a07c:	243c0000 	.word	0x243c0000
7010a080:	34200000 	.word	0x34200000
7010a084:	343c0000 	.word	0x343c0000

7010a088 <npu_set_callback>:
7010a088:	b118      	cbz	r0, 7010a092 <npu_set_callback+0xa>
7010a08a:	f8c0 1174 	str.w	r1, [r0, #372]	@ 0x174
7010a08e:	2000      	movs	r0, #0
7010a090:	4770      	bx	lr
7010a092:	f04f 30ff 	mov.w	r0, #4294967295
7010a096:	4770      	bx	lr

7010a098 <npu_init>:
7010a098:	b538      	push	{r3, r4, r5, lr}
7010a09a:	460d      	mov	r5, r1
7010a09c:	4604      	mov	r4, r0
7010a09e:	2800      	cmp	r0, #0
7010a0a0:	d039      	beq.n	7010a116 <npu_init+0x7e>
7010a0a2:	f7ff fc57 	bl	70109954 <ARM_PMU_CYCCNT_Reset>
7010a0a6:	b979      	cbnz	r1, 7010a0c8 <npu_init+0x30>
7010a0a8:	6001      	str	r1, [r0, #0]
7010a0aa:	481c      	ldr	r0, [pc, #112]	@ (7010a11c <npu_init+0x84>)
7010a0ac:	f7f7 f920 	bl	701012f0 <stai_network_deinit>
7010a0b0:	f7fd ff82 	bl	70107fb8 <stai_runtime_deinit>
7010a0b4:	4629      	mov	r1, r5
7010a0b6:	4628      	mov	r0, r5
7010a0b8:	f7fd ff66 	bl	70107f88 <stai_runtime_set_callback>
7010a0bc:	2000      	movs	r0, #0
7010a0be:	4b18      	ldr	r3, [pc, #96]	@ (7010a120 <npu_init+0x88>)
7010a0c0:	6fdb      	ldr	r3, [r3, #124]	@ 0x7c
7010a0c2:	f8c4 3180 	str.w	r3, [r4, #384]	@ 0x180
7010a0c6:	bd38      	pop	{r3, r4, r5, pc}
7010a0c8:	2901      	cmp	r1, #1
7010a0ca:	d11c      	bne.n	7010a106 <npu_init+0x6e>
7010a0cc:	f7fe f81a 	bl	70108104 <mcu_cache_clean_invalidate>
7010a0d0:	f7fc fa8a 	bl	701065e8 <port_dwt_init_imp>
7010a0d4:	4a13      	ldr	r2, [pc, #76]	@ (7010a124 <npu_init+0x8c>)
7010a0d6:	2100      	movs	r1, #0
7010a0d8:	6813      	ldr	r3, [r2, #0]
7010a0da:	4813      	ldr	r0, [pc, #76]	@ (7010a128 <npu_init+0x90>)
7010a0dc:	f043 0302 	orr.w	r3, r3, #2
7010a0e0:	6013      	str	r3, [r2, #0]
7010a0e2:	f7fd ff51 	bl	70107f88 <stai_runtime_set_callback>
7010a0e6:	f7fd ff61 	bl	70107fac <stai_runtime_init>
7010a0ea:	480c      	ldr	r0, [pc, #48]	@ (7010a11c <npu_init+0x84>)
7010a0ec:	f7ff fc32 	bl	70109954 <ARM_PMU_CYCCNT_Reset>
7010a0f0:	f7f7 f8e6 	bl	701012c0 <stai_network_init>
7010a0f4:	4b0a      	ldr	r3, [pc, #40]	@ (7010a120 <npu_init+0x88>)
7010a0f6:	2100      	movs	r1, #0
7010a0f8:	6fd8      	ldr	r0, [r3, #124]	@ 0x7c
7010a0fa:	f7fc f971 	bl	701063e0 <dwtCyclesToFloatMs>
7010a0fe:	6025      	str	r5, [r4, #0]
7010a100:	ed84 0a5a 	vstr	s0, [r4, #360]	@ 0x168
7010a104:	e7da      	b.n	7010a0bc <npu_init+0x24>
7010a106:	2902      	cmp	r1, #2
7010a108:	d1d8      	bne.n	7010a0bc <npu_init+0x24>
7010a10a:	6803      	ldr	r3, [r0, #0]
7010a10c:	2b01      	cmp	r3, #1
7010a10e:	d1d5      	bne.n	7010a0bc <npu_init+0x24>
7010a110:	f7fd fff8 	bl	70108104 <mcu_cache_clean_invalidate>
7010a114:	e7d2      	b.n	7010a0bc <npu_init+0x24>
7010a116:	f04f 30ff 	mov.w	r0, #4294967295
7010a11a:	e7d4      	b.n	7010a0c6 <npu_init+0x2e>
7010a11c:	34001800 	.word	0x34001800
7010a120:	e0003000 	.word	0xe0003000
7010a124:	580e0000 	.word	0x580e0000
7010a128:	70109969 	.word	0x70109969
7010a12c:	00000000 	.word	0x00000000

7010a130 <npu_run>:
7010a130:	e92d 4ff0 	stmdb	sp!, {r4, r5, r6, r7, r8, r9, sl, fp, lr}
7010a134:	4607      	mov	r7, r0
7010a136:	460d      	mov	r5, r1
7010a138:	b085      	sub	sp, #20
7010a13a:	b121      	cbz	r1, 7010a146 <npu_run+0x16>
7010a13c:	2228      	movs	r2, #40	@ 0x28
7010a13e:	2100      	movs	r1, #0
7010a140:	4628      	mov	r0, r5
7010a142:	f001 fc7f 	bl	7010ba44 <memset>
7010a146:	b927      	cbnz	r7, 7010a152 <npu_run+0x22>
7010a148:	f04f 30ff 	mov.w	r0, #4294967295
7010a14c:	b005      	add	sp, #20
7010a14e:	e8bd 8ff0 	ldmia.w	sp!, {r4, r5, r6, r7, r8, r9, sl, fp, pc}
7010a152:	22b8      	movs	r2, #184	@ 0xb8
7010a154:	2100      	movs	r1, #0
7010a156:	4872      	ldr	r0, [pc, #456]	@ (7010a320 <npu_run+0x1f0>)
7010a158:	f001 fc74 	bl	7010ba44 <memset>
7010a15c:	683b      	ldr	r3, [r7, #0]
7010a15e:	2b00      	cmp	r3, #0
7010a160:	f040 80ba 	bne.w	7010a2d8 <npu_run+0x1a8>
7010a164:	2101      	movs	r1, #1
7010a166:	4638      	mov	r0, r7
7010a168:	f7ff ff96 	bl	7010a098 <npu_init>
7010a16c:	f04f 0a01 	mov.w	sl, #1
7010a170:	f8d7 3174 	ldr.w	r3, [r7, #372]	@ 0x174
7010a174:	4c6a      	ldr	r4, [pc, #424]	@ (7010a320 <npu_run+0x1f0>)
7010a176:	2b00      	cmp	r3, #0
7010a178:	f000 80b1 	beq.w	7010a2de <npu_run+0x1ae>
7010a17c:	6363      	str	r3, [r4, #52]	@ 0x34
7010a17e:	f8d7 3178 	ldr.w	r3, [r7, #376]	@ 0x178
7010a182:	4968      	ldr	r1, [pc, #416]	@ (7010a324 <npu_run+0x1f4>)
7010a184:	4868      	ldr	r0, [pc, #416]	@ (7010a328 <npu_run+0x1f8>)
7010a186:	aa03      	add	r2, sp, #12
7010a188:	6023      	str	r3, [r4, #0]
7010a18a:	f7f7 f90f 	bl	701013ac <stai_network_set_callback>
7010a18e:	2600      	movs	r6, #0
7010a190:	f107 0854 	add.w	r8, r7, #84	@ 0x54
7010a194:	6d3b      	ldr	r3, [r7, #80]	@ 0x50
7010a196:	42b3      	cmp	r3, r6
7010a198:	f200 80a3 	bhi.w	7010a2e2 <npu_run+0x1b2>
7010a19c:	2600      	movs	r6, #0
7010a19e:	f107 08d4 	add.w	r8, r7, #212	@ 0xd4
7010a1a2:	6d7b      	ldr	r3, [r7, #84]	@ 0x54
7010a1a4:	42b3      	cmp	r3, r6
7010a1a6:	f200 80a9 	bhi.w	7010a2fc <npu_run+0x1cc>
7010a1aa:	f20f 196c 	addw	r9, pc, #364	@ 0x16c
7010a1ae:	e9d9 8900 	ldrd	r8, r9, [r9]
7010a1b2:	f7f7 fd7b 	bl	70101cac <HAL_GetTick>
7010a1b6:	2200      	movs	r2, #0
7010a1b8:	2300      	movs	r3, #0
7010a1ba:	4683      	mov	fp, r0
7010a1bc:	485a      	ldr	r0, [pc, #360]	@ (7010a328 <npu_run+0x1f8>)
7010a1be:	e9c4 2308 	strd	r2, r3, [r4, #32]
7010a1c2:	f7ff fbc7 	bl	70109954 <ARM_PMU_CYCCNT_Reset>
7010a1c6:	f7f7 f943 	bl	70101450 <stai_ext_network_new_inference>
7010a1ca:	2100      	movs	r1, #0
7010a1cc:	4642      	mov	r2, r8
7010a1ce:	464b      	mov	r3, r9
7010a1d0:	4608      	mov	r0, r1
7010a1d2:	e9cd 8900 	strd	r8, r9, [sp]
7010a1d6:	f7fd f82b 	bl	70107230 <LL_Busif_SetKeys>
7010a1da:	4642      	mov	r2, r8
7010a1dc:	464b      	mov	r3, r9
7010a1de:	2101      	movs	r1, #1
7010a1e0:	2000      	movs	r0, #0
7010a1e2:	e9cd 8900 	strd	r8, r9, [sp]
7010a1e6:	f7fd f823 	bl	70107230 <LL_Busif_SetKeys>
7010a1ea:	4642      	mov	r2, r8
7010a1ec:	464b      	mov	r3, r9
7010a1ee:	2100      	movs	r1, #0
7010a1f0:	2001      	movs	r0, #1
7010a1f2:	e9cd 8900 	strd	r8, r9, [sp]
7010a1f6:	f7fd f81b 	bl	70107230 <LL_Busif_SetKeys>
7010a1fa:	2101      	movs	r1, #1
7010a1fc:	4642      	mov	r2, r8
7010a1fe:	464b      	mov	r3, r9
7010a200:	4608      	mov	r0, r1
7010a202:	e9cd 8900 	strd	r8, r9, [sp]
7010a206:	f7fd f813 	bl	70107230 <LL_Busif_SetKeys>
7010a20a:	2102      	movs	r1, #2
7010a20c:	4846      	ldr	r0, [pc, #280]	@ (7010a328 <npu_run+0x1f8>)
7010a20e:	f7f7 f8a9 	bl	70101364 <stai_network_run>
7010a212:	4606      	mov	r6, r0
7010a214:	2e11      	cmp	r6, #17
7010a216:	d100      	bne.n	7010a21a <npu_run+0xea>
7010a218:	bf20      	wfe
7010a21a:	4843      	ldr	r0, [pc, #268]	@ (7010a328 <npu_run+0x1f8>)
7010a21c:	f7f7 f8e4 	bl	701013e8 <stai_ext_network_run_continue>
7010a220:	2812      	cmp	r0, #18
7010a222:	4606      	mov	r6, r0
7010a224:	d001      	beq.n	7010a22a <npu_run+0xfa>
7010a226:	2800      	cmp	r0, #0
7010a228:	d1f4      	bne.n	7010a214 <npu_run+0xe4>
7010a22a:	4b40      	ldr	r3, [pc, #256]	@ (7010a32c <npu_run+0x1fc>)
7010a22c:	f04f 0900 	mov.w	r9, #0
7010a230:	6fd9      	ldr	r1, [r3, #124]	@ 0x7c
7010a232:	e9d4 3208 	ldrd	r3, r2, [r4, #32]
7010a236:	185b      	adds	r3, r3, r1
7010a238:	f142 0200 	adc.w	r2, r2, #0
7010a23c:	e9c4 3208 	strd	r3, r2, [r4, #32]
7010a240:	f7f7 fd34 	bl	70101cac <HAL_GetTick>
7010a244:	4649      	mov	r1, r9
7010a246:	eba0 0b0b 	sub.w	fp, r0, fp
7010a24a:	aa03      	add	r2, sp, #12
7010a24c:	4836      	ldr	r0, [pc, #216]	@ (7010a328 <npu_run+0x1f8>)
7010a24e:	f7f7 f8ad 	bl	701013ac <stai_network_set_callback>
7010a252:	f8c4 9034 	str.w	r9, [r4, #52]	@ 0x34
7010a256:	f1ba 0f00 	cmp.w	sl, #0
7010a25a:	d003      	beq.n	7010a264 <npu_run+0x134>
7010a25c:	4649      	mov	r1, r9
7010a25e:	4638      	mov	r0, r7
7010a260:	f7ff ff1a 	bl	7010a098 <npu_init>
7010a264:	2e12      	cmp	r6, #18
7010a266:	f47f af6f 	bne.w	7010a148 <npu_run+0x18>
7010a26a:	b39d      	cbz	r5, 7010a2d4 <npu_run+0x1a4>
7010a26c:	e9d4 3208 	ldrd	r3, r2, [r4, #32]
7010a270:	e9d4 0102 	ldrd	r0, r1, [r4, #8]
7010a274:	181b      	adds	r3, r3, r0
7010a276:	eb42 0201 	adc.w	r2, r2, r1
7010a27a:	e9d4 0104 	ldrd	r0, r1, [r4, #16]
7010a27e:	181b      	adds	r3, r3, r0
7010a280:	eb42 0201 	adc.w	r2, r2, r1
7010a284:	e9d4 0106 	ldrd	r0, r1, [r4, #24]
7010a288:	181b      	adds	r3, r3, r0
7010a28a:	eb42 0201 	adc.w	r2, r2, r1
7010a28e:	f8d7 1174 	ldr.w	r1, [r7, #372]	@ 0x174
7010a292:	e9c4 3208 	strd	r3, r2, [r4, #32]
7010a296:	b959      	cbnz	r1, 7010a2b0 <npu_run+0x180>
7010a298:	f640 31b7 	movw	r1, #2999	@ 0xbb7
7010a29c:	458b      	cmp	fp, r1
7010a29e:	d907      	bls.n	7010a2b0 <npu_run+0x180>
7010a2a0:	f7f7 ff5a 	bl	70102158 <HAL_RCC_GetCpuClockFreq>
7010a2a4:	f44f 737a 	mov.w	r3, #1000	@ 0x3e8
7010a2a8:	fbb0 f3f3 	udiv	r3, r0, r3
7010a2ac:	fba3 320b 	umull	r3, r2, r3, fp
7010a2b0:	e9c5 3206 	strd	r3, r2, [r5, #24]
7010a2b4:	e9d4 2302 	ldrd	r2, r3, [r4, #8]
7010a2b8:	e9c5 2300 	strd	r2, r3, [r5]
7010a2bc:	e9d4 2304 	ldrd	r2, r3, [r4, #16]
7010a2c0:	e9c5 2302 	strd	r2, r3, [r5, #8]
7010a2c4:	e9d4 2306 	ldrd	r2, r3, [r4, #24]
7010a2c8:	e9c5 2304 	strd	r2, r3, [r5, #16]
7010a2cc:	e9d4 230a 	ldrd	r2, r3, [r4, #40]	@ 0x28
7010a2d0:	e9c5 2308 	strd	r2, r3, [r5, #32]
7010a2d4:	4658      	mov	r0, fp
7010a2d6:	e739      	b.n	7010a14c <npu_run+0x1c>
7010a2d8:	f04f 0a00 	mov.w	sl, #0
7010a2dc:	e748      	b.n	7010a170 <npu_run+0x40>
7010a2de:	6023      	str	r3, [r4, #0]
7010a2e0:	e755      	b.n	7010a18e <npu_run+0x5e>
7010a2e2:	f858 1f04 	ldr.w	r1, [r8, #4]!
7010a2e6:	3601      	adds	r6, #1
7010a2e8:	4608      	mov	r0, r1
7010a2ea:	f7ff fb2b 	bl	70109944 <LL_Buffer_addr_start>
7010a2ee:	e9d1 2302 	ldrd	r2, r3, [r1, #8]
7010a2f2:	1a9b      	subs	r3, r3, r2
7010a2f4:	1819      	adds	r1, r3, r0
7010a2f6:	f7fd ff85 	bl	70108204 <mcu_cache_clean_invalidate_range>
7010a2fa:	e74b      	b.n	7010a194 <npu_run+0x64>
7010a2fc:	f858 1f04 	ldr.w	r1, [r8, #4]!
7010a300:	3601      	adds	r6, #1
7010a302:	4608      	mov	r0, r1
7010a304:	f7ff fb1e 	bl	70109944 <LL_Buffer_addr_start>
7010a308:	e9d1 2302 	ldrd	r2, r3, [r1, #8]
7010a30c:	1a9b      	subs	r3, r3, r2
7010a30e:	1819      	adds	r1, r3, r0
7010a310:	f7fd ff24 	bl	7010815c <mcu_cache_invalidate_range>
7010a314:	e745      	b.n	7010a1a2 <npu_run+0x72>
7010a316:	bf00      	nop
7010a318:	aabbccdd 	.word	0xaabbccdd
7010a31c:	aabbccdd 	.word	0xaabbccdd
7010a320:	34001748 	.word	0x34001748
7010a324:	70109af5 	.word	0x70109af5
7010a328:	34001800 	.word	0x34001800
7010a32c:	e0003000 	.word	0xe0003000

7010a330 <pb_field_iter_begin>:
7010a330:	2300      	movs	r3, #0
7010a332:	e9c0 3202 	strd	r3, r2, [r0, #8]
7010a336:	888b      	ldrh	r3, [r1, #4]
7010a338:	e9c0 1100 	strd	r1, r1, [r0]
7010a33c:	441a      	add	r2, r3
7010a33e:	f9b1 3006 	ldrsh.w	r3, [r1, #6]
7010a342:	6102      	str	r2, [r0, #16]
7010a344:	441a      	add	r2, r3
7010a346:	6142      	str	r2, [r0, #20]
7010a348:	8808      	ldrh	r0, [r1, #0]
7010a34a:	3800      	subs	r0, #0
7010a34c:	bf18      	it	ne
7010a34e:	2001      	movne	r0, #1
7010a350:	4770      	bx	lr

7010a352 <pb_field_iter_next>:
7010a352:	6842      	ldr	r2, [r0, #4]
7010a354:	4603      	mov	r3, r0
7010a356:	8811      	ldrh	r1, [r2, #0]
7010a358:	b570      	push	{r4, r5, r6, lr}
7010a35a:	b141      	cbz	r1, 7010a36e <pb_field_iter_next+0x1c>
7010a35c:	f102 0110 	add.w	r1, r2, #16
7010a360:	6041      	str	r1, [r0, #4]
7010a362:	8a11      	ldrh	r1, [r2, #16]
7010a364:	b929      	cbnz	r1, 7010a372 <pb_field_iter_next+0x20>
7010a366:	68c2      	ldr	r2, [r0, #12]
7010a368:	6801      	ldr	r1, [r0, #0]
7010a36a:	f7ff ffe1 	bl	7010a330 <pb_field_iter_begin>
7010a36e:	2000      	movs	r0, #0
7010a370:	bd70      	pop	{r4, r5, r6, pc}
7010a372:	7891      	ldrb	r1, [r2, #2]
7010a374:	8910      	ldrh	r0, [r2, #8]
7010a376:	f001 0530 	and.w	r5, r1, #48	@ 0x30
7010a37a:	2d30      	cmp	r5, #48	@ 0x30
7010a37c:	8a94      	ldrh	r4, [r2, #20]
7010a37e:	d10a      	bne.n	7010a396 <pb_field_iter_next+0x44>
7010a380:	7c96      	ldrb	r6, [r2, #18]
7010a382:	f006 0630 	and.w	r6, r6, #48	@ 0x30
7010a386:	2e30      	cmp	r6, #48	@ 0x30
7010a388:	d114      	bne.n	7010a3b4 <pb_field_iter_next+0x62>
7010a38a:	f64f 76ff 	movw	r6, #65535	@ 0xffff
7010a38e:	42b4      	cmp	r4, r6
7010a390:	d110      	bne.n	7010a3b4 <pb_field_iter_next+0x62>
7010a392:	2001      	movs	r0, #1
7010a394:	e7ec      	b.n	7010a370 <pb_field_iter_next+0x1e>
7010a396:	293f      	cmp	r1, #63	@ 0x3f
7010a398:	d80e      	bhi.n	7010a3b8 <pb_field_iter_next+0x66>
7010a39a:	2d20      	cmp	r5, #32
7010a39c:	d111      	bne.n	7010a3c2 <pb_field_iter_next+0x70>
7010a39e:	8951      	ldrh	r1, [r2, #10]
7010a3a0:	4348      	muls	r0, r1
7010a3a2:	6919      	ldr	r1, [r3, #16]
7010a3a4:	f9b2 2016 	ldrsh.w	r2, [r2, #22]
7010a3a8:	4404      	add	r4, r0
7010a3aa:	4421      	add	r1, r4
7010a3ac:	6119      	str	r1, [r3, #16]
7010a3ae:	4411      	add	r1, r2
7010a3b0:	6159      	str	r1, [r3, #20]
7010a3b2:	e7ee      	b.n	7010a392 <pb_field_iter_next+0x40>
7010a3b4:	293f      	cmp	r1, #63	@ 0x3f
7010a3b6:	d9f4      	bls.n	7010a3a2 <pb_field_iter_next+0x50>
7010a3b8:	f001 01c0 	and.w	r1, r1, #192	@ 0xc0
7010a3bc:	2980      	cmp	r1, #128	@ 0x80
7010a3be:	bf08      	it	eq
7010a3c0:	2004      	moveq	r0, #4
7010a3c2:	2d00      	cmp	r5, #0
7010a3c4:	d1ed      	bne.n	7010a3a2 <pb_field_iter_next+0x50>
7010a3c6:	6899      	ldr	r1, [r3, #8]
7010a3c8:	3101      	adds	r1, #1
7010a3ca:	6099      	str	r1, [r3, #8]
7010a3cc:	e7e9      	b.n	7010a3a2 <pb_field_iter_next+0x50>

7010a3ce <pb_field_iter_find>:
7010a3ce:	b570      	push	{r4, r5, r6, lr}
7010a3d0:	6846      	ldr	r6, [r0, #4]
7010a3d2:	4604      	mov	r4, r0
7010a3d4:	460d      	mov	r5, r1
7010a3d6:	4633      	mov	r3, r6
7010a3d8:	881a      	ldrh	r2, [r3, #0]
7010a3da:	42aa      	cmp	r2, r5
7010a3dc:	d104      	bne.n	7010a3e8 <pb_field_iter_find+0x1a>
7010a3de:	789b      	ldrb	r3, [r3, #2]
7010a3e0:	f003 030f 	and.w	r3, r3, #15
7010a3e4:	2b08      	cmp	r3, #8
7010a3e6:	d107      	bne.n	7010a3f8 <pb_field_iter_find+0x2a>
7010a3e8:	4620      	mov	r0, r4
7010a3ea:	f7ff ffb2 	bl	7010a352 <pb_field_iter_next>
7010a3ee:	6863      	ldr	r3, [r4, #4]
7010a3f0:	42b3      	cmp	r3, r6
7010a3f2:	d1f1      	bne.n	7010a3d8 <pb_field_iter_find+0xa>
7010a3f4:	2000      	movs	r0, #0
7010a3f6:	bd70      	pop	{r4, r5, r6, pc}
7010a3f8:	2001      	movs	r0, #1
7010a3fa:	e7fc      	b.n	7010a3f6 <pb_field_iter_find+0x28>

7010a3fc <buf_read>:
7010a3fc:	b510      	push	{r4, lr}
7010a3fe:	6844      	ldr	r4, [r0, #4]
7010a400:	18a3      	adds	r3, r4, r2
7010a402:	6043      	str	r3, [r0, #4]
7010a404:	b939      	cbnz	r1, 7010a416 <buf_read+0x1a>
7010a406:	2001      	movs	r0, #1
7010a408:	bd10      	pop	{r4, pc}
7010a40a:	5ce2      	ldrb	r2, [r4, r3]
7010a40c:	54ca      	strb	r2, [r1, r3]
7010a40e:	3301      	adds	r3, #1
7010a410:	f00f c805 	le	lr, 7010a40a <buf_read+0xe>
7010a414:	e7f7      	b.n	7010a406 <buf_read+0xa>
7010a416:	f102 0e01 	add.w	lr, r2, #1
7010a41a:	2300      	movs	r3, #0
7010a41c:	f04e e001 	dls	lr, lr
7010a420:	e7f6      	b.n	7010a410 <buf_read+0x14>

7010a422 <pb_readbyte>:
7010a422:	6883      	ldr	r3, [r0, #8]
7010a424:	b510      	push	{r4, lr}
7010a426:	4604      	mov	r4, r0
7010a428:	b90b      	cbnz	r3, 7010a42e <pb_readbyte+0xc>
7010a42a:	2000      	movs	r0, #0
7010a42c:	bd10      	pop	{r4, pc}
7010a42e:	2201      	movs	r2, #1
7010a430:	6803      	ldr	r3, [r0, #0]
7010a432:	4798      	blx	r3
7010a434:	2800      	cmp	r0, #0
7010a436:	d0f8      	beq.n	7010a42a <pb_readbyte+0x8>
7010a438:	68a3      	ldr	r3, [r4, #8]
7010a43a:	3b01      	subs	r3, #1
7010a43c:	60a3      	str	r3, [r4, #8]
7010a43e:	e7f5      	b.n	7010a42c <pb_readbyte+0xa>

7010a440 <pb_decode_varint32_eof>:
7010a440:	e92d 41f3 	stmdb	sp!, {r0, r1, r4, r5, r6, r7, r8, lr}
7010a444:	4688      	mov	r8, r1
7010a446:	f10d 0107 	add.w	r1, sp, #7
7010a44a:	4607      	mov	r7, r0
7010a44c:	4614      	mov	r4, r2
7010a44e:	f7ff ffe8 	bl	7010a422 <pb_readbyte>
7010a452:	4606      	mov	r6, r0
7010a454:	b958      	cbnz	r0, 7010a46e <pb_decode_varint32_eof+0x2e>
7010a456:	68bb      	ldr	r3, [r7, #8]
7010a458:	b123      	cbz	r3, 7010a464 <pb_decode_varint32_eof+0x24>
7010a45a:	2600      	movs	r6, #0
7010a45c:	4630      	mov	r0, r6
7010a45e:	b002      	add	sp, #8
7010a460:	e8bd 81f0 	ldmia.w	sp!, {r4, r5, r6, r7, r8, pc}
7010a464:	2c00      	cmp	r4, #0
7010a466:	d0f8      	beq.n	7010a45a <pb_decode_varint32_eof+0x1a>
7010a468:	2301      	movs	r3, #1
7010a46a:	7023      	strb	r3, [r4, #0]
7010a46c:	e7f5      	b.n	7010a45a <pb_decode_varint32_eof+0x1a>
7010a46e:	f99d 3007 	ldrsb.w	r3, [sp, #7]
7010a472:	f89d 4007 	ldrb.w	r4, [sp, #7]
7010a476:	2b00      	cmp	r3, #0
7010a478:	da21      	bge.n	7010a4be <pb_decode_varint32_eof+0x7e>
7010a47a:	2507      	movs	r5, #7
7010a47c:	f004 047f 	and.w	r4, r4, #127	@ 0x7f
7010a480:	4638      	mov	r0, r7
7010a482:	f10d 0107 	add.w	r1, sp, #7
7010a486:	f7ff ffcc 	bl	7010a422 <pb_readbyte>
7010a48a:	2800      	cmp	r0, #0
7010a48c:	d0e5      	beq.n	7010a45a <pb_decode_varint32_eof+0x1a>
7010a48e:	f89d 3007 	ldrb.w	r3, [sp, #7]
7010a492:	2d1f      	cmp	r5, #31
7010a494:	f003 027f 	and.w	r2, r3, #127	@ 0x7f
7010a498:	d914      	bls.n	7010a4c4 <pb_decode_varint32_eof+0x84>
7010a49a:	2d3e      	cmp	r5, #62	@ 0x3e
7010a49c:	bf8c      	ite	hi
7010a49e:	2101      	movhi	r1, #1
7010a4a0:	21ff      	movls	r1, #255	@ 0xff
7010a4a2:	b11a      	cbz	r2, 7010a4ac <pb_decode_varint32_eof+0x6c>
7010a4a4:	2c00      	cmp	r4, #0
7010a4a6:	dad8      	bge.n	7010a45a <pb_decode_varint32_eof+0x1a>
7010a4a8:	428b      	cmp	r3, r1
7010a4aa:	d1d6      	bne.n	7010a45a <pb_decode_varint32_eof+0x1a>
7010a4ac:	061a      	lsls	r2, r3, #24
7010a4ae:	f105 0507 	add.w	r5, r5, #7
7010a4b2:	d4e5      	bmi.n	7010a480 <pb_decode_varint32_eof+0x40>
7010a4b4:	2d23      	cmp	r5, #35	@ 0x23
7010a4b6:	d102      	bne.n	7010a4be <pb_decode_varint32_eof+0x7e>
7010a4b8:	f013 0f70 	tst.w	r3, #112	@ 0x70
7010a4bc:	d1cd      	bne.n	7010a45a <pb_decode_varint32_eof+0x1a>
7010a4be:	f8c8 4000 	str.w	r4, [r8]
7010a4c2:	e7cb      	b.n	7010a45c <pb_decode_varint32_eof+0x1c>
7010a4c4:	40aa      	lsls	r2, r5
7010a4c6:	4314      	orrs	r4, r2
7010a4c8:	e7f0      	b.n	7010a4ac <pb_decode_varint32_eof+0x6c>

7010a4ca <pb_field_set_to_default>:
7010a4ca:	b570      	push	{r4, r5, r6, lr}
7010a4cc:	6841      	ldr	r1, [r0, #4]
7010a4ce:	4603      	mov	r3, r0
7010a4d0:	788a      	ldrb	r2, [r1, #2]
7010a4d2:	b086      	sub	sp, #24
7010a4d4:	f002 050f 	and.w	r5, r2, #15
7010a4d8:	2d08      	cmp	r5, #8
7010a4da:	d11f      	bne.n	7010a51c <pb_field_set_to_default+0x52>
7010a4dc:	2600      	movs	r6, #0
7010a4de:	6903      	ldr	r3, [r0, #16]
7010a4e0:	681c      	ldr	r4, [r3, #0]
7010a4e2:	b90c      	cbnz	r4, 7010a4e8 <pb_field_set_to_default+0x1e>
7010a4e4:	b006      	add	sp, #24
7010a4e6:	bd70      	pop	{r4, r5, r6, pc}
7010a4e8:	6823      	ldr	r3, [r4, #0]
7010a4ea:	6862      	ldr	r2, [r4, #4]
7010a4ec:	689d      	ldr	r5, [r3, #8]
7010a4ee:	7326      	strb	r6, [r4, #12]
7010a4f0:	4629      	mov	r1, r5
7010a4f2:	4668      	mov	r0, sp
7010a4f4:	f7ff ff1c 	bl	7010a330 <pb_field_iter_begin>
7010a4f8:	6860      	ldr	r0, [r4, #4]
7010a4fa:	f104 030c 	add.w	r3, r4, #12
7010a4fe:	9004      	str	r0, [sp, #16]
7010a500:	9305      	str	r3, [sp, #20]
7010a502:	78aa      	ldrb	r2, [r5, #2]
7010a504:	1d23      	adds	r3, r4, #4
7010a506:	f002 02c0 	and.w	r2, r2, #192	@ 0xc0
7010a50a:	2a80      	cmp	r2, #128	@ 0x80
7010a50c:	bf18      	it	ne
7010a50e:	4603      	movne	r3, r0
7010a510:	4668      	mov	r0, sp
7010a512:	9304      	str	r3, [sp, #16]
7010a514:	f7ff ffd9 	bl	7010a4ca <pb_field_set_to_default>
7010a518:	68a4      	ldr	r4, [r4, #8]
7010a51a:	e7e2      	b.n	7010a4e2 <pb_field_set_to_default+0x18>
7010a51c:	2a3f      	cmp	r2, #63	@ 0x3f
7010a51e:	d827      	bhi.n	7010a570 <pb_field_set_to_default+0xa6>
7010a520:	f002 0030 	and.w	r0, r2, #48	@ 0x30
7010a524:	2810      	cmp	r0, #16
7010a526:	d110      	bne.n	7010a54a <pb_field_set_to_default+0x80>
7010a528:	e9d3 0204 	ldrd	r0, r2, [r3, #16]
7010a52c:	4282      	cmp	r2, r0
7010a52e:	d001      	beq.n	7010a534 <pb_field_set_to_default+0x6a>
7010a530:	2000      	movs	r0, #0
7010a532:	7010      	strb	r0, [r2, #0]
7010a534:	2d07      	cmp	r5, #7
7010a536:	68cc      	ldr	r4, [r1, #12]
7010a538:	6918      	ldr	r0, [r3, #16]
7010a53a:	d10c      	bne.n	7010a556 <pb_field_set_to_default+0x8c>
7010a53c:	4601      	mov	r1, r0
7010a53e:	4620      	mov	r0, r4
7010a540:	b006      	add	sp, #24
7010a542:	e8bd 4070 	ldmia.w	sp!, {r4, r5, r6, lr}
7010a546:	f000 b81f 	b.w	7010a588 <pb_message_set_to_defaults>
7010a54a:	0690      	lsls	r0, r2, #26
7010a54c:	d5f2      	bpl.n	7010a534 <pb_field_set_to_default+0x6a>
7010a54e:	2200      	movs	r2, #0
7010a550:	695b      	ldr	r3, [r3, #20]
7010a552:	801a      	strh	r2, [r3, #0]
7010a554:	e7c6      	b.n	7010a4e4 <pb_field_set_to_default+0x1a>
7010a556:	890a      	ldrh	r2, [r1, #8]
7010a558:	4621      	mov	r1, r4
7010a55a:	b124      	cbz	r4, 7010a566 <pb_field_set_to_default+0x9c>
7010a55c:	b006      	add	sp, #24
7010a55e:	e8bd 4070 	ldmia.w	sp!, {r4, r5, r6, lr}
7010a562:	f001 bcfe 	b.w	7010bf62 <memcpy>
7010a566:	b006      	add	sp, #24
7010a568:	e8bd 4070 	ldmia.w	sp!, {r4, r5, r6, lr}
7010a56c:	f001 ba6a 	b.w	7010ba44 <memset>
7010a570:	f002 01c0 	and.w	r1, r2, #192	@ 0xc0
7010a574:	2980      	cmp	r1, #128	@ 0x80
7010a576:	d1b5      	bne.n	7010a4e4 <pb_field_set_to_default+0x1a>
7010a578:	2100      	movs	r1, #0
7010a57a:	6900      	ldr	r0, [r0, #16]
7010a57c:	0692      	lsls	r2, r2, #26
7010a57e:	6001      	str	r1, [r0, #0]
7010a580:	bf44      	itt	mi
7010a582:	695b      	ldrmi	r3, [r3, #20]
7010a584:	8019      	strhmi	r1, [r3, #0]
7010a586:	e7ad      	b.n	7010a4e4 <pb_field_set_to_default+0x1a>

7010a588 <pb_message_set_to_defaults>:
7010a588:	b57f      	push	{r0, r1, r2, r3, r4, r5, r6, lr}
7010a58a:	460a      	mov	r2, r1
7010a58c:	4601      	mov	r1, r0
7010a58e:	4668      	mov	r0, sp
7010a590:	f7ff fece 	bl	7010a330 <pb_field_iter_begin>
7010a594:	b130      	cbz	r0, 7010a5a4 <pb_message_set_to_defaults+0x1c>
7010a596:	4668      	mov	r0, sp
7010a598:	f7ff ff97 	bl	7010a4ca <pb_field_set_to_default>
7010a59c:	4668      	mov	r0, sp
7010a59e:	f7ff fed8 	bl	7010a352 <pb_field_iter_next>
7010a5a2:	e7f7      	b.n	7010a594 <pb_message_set_to_defaults+0xc>
7010a5a4:	b007      	add	sp, #28
7010a5a6:	bd00      	pop	{pc}

7010a5a8 <pb_read>:
7010a5a8:	b530      	push	{r4, r5, lr}
7010a5aa:	4604      	mov	r4, r0
7010a5ac:	4615      	mov	r5, r2
7010a5ae:	b085      	sub	sp, #20
7010a5b0:	b9a9      	cbnz	r1, 7010a5de <pb_read+0x36>
7010a5b2:	6802      	ldr	r2, [r0, #0]
7010a5b4:	4b11      	ldr	r3, [pc, #68]	@ (7010a5fc <pb_read+0x54>)
7010a5b6:	429a      	cmp	r2, r3
7010a5b8:	d011      	beq.n	7010a5de <pb_read+0x36>
7010a5ba:	2d10      	cmp	r5, #16
7010a5bc:	d806      	bhi.n	7010a5cc <pb_read+0x24>
7010a5be:	462a      	mov	r2, r5
7010a5c0:	4669      	mov	r1, sp
7010a5c2:	4620      	mov	r0, r4
7010a5c4:	f7ff fff0 	bl	7010a5a8 <pb_read>
7010a5c8:	b005      	add	sp, #20
7010a5ca:	bd30      	pop	{r4, r5, pc}
7010a5cc:	2210      	movs	r2, #16
7010a5ce:	4669      	mov	r1, sp
7010a5d0:	4620      	mov	r0, r4
7010a5d2:	f7ff ffe9 	bl	7010a5a8 <pb_read>
7010a5d6:	2800      	cmp	r0, #0
7010a5d8:	d0f6      	beq.n	7010a5c8 <pb_read+0x20>
7010a5da:	3d10      	subs	r5, #16
7010a5dc:	e7ed      	b.n	7010a5ba <pb_read+0x12>
7010a5de:	68a3      	ldr	r3, [r4, #8]
7010a5e0:	42ab      	cmp	r3, r5
7010a5e2:	d201      	bcs.n	7010a5e8 <pb_read+0x40>
7010a5e4:	2000      	movs	r0, #0
7010a5e6:	e7ef      	b.n	7010a5c8 <pb_read+0x20>
7010a5e8:	462a      	mov	r2, r5
7010a5ea:	4620      	mov	r0, r4
7010a5ec:	6823      	ldr	r3, [r4, #0]
7010a5ee:	4798      	blx	r3
7010a5f0:	2800      	cmp	r0, #0
7010a5f2:	d0f7      	beq.n	7010a5e4 <pb_read+0x3c>
7010a5f4:	68a3      	ldr	r3, [r4, #8]
7010a5f6:	1b5b      	subs	r3, r3, r5
7010a5f8:	60a3      	str	r3, [r4, #8]
7010a5fa:	e7e5      	b.n	7010a5c8 <pb_read+0x20>
7010a5fc:	7010a3fd 	.word	0x7010a3fd

7010a600 <pb_decode_varint32>:
7010a600:	2200      	movs	r2, #0
7010a602:	f7ff bf1d 	b.w	7010a440 <pb_decode_varint32_eof>

7010a606 <pb_dec_fixed_length_bytes>:
7010a606:	b5f7      	push	{r0, r1, r2, r4, r5, r6, r7, lr}
7010a608:	460e      	mov	r6, r1
7010a60a:	a901      	add	r1, sp, #4
7010a60c:	4607      	mov	r7, r0
7010a60e:	4615      	mov	r5, r2
7010a610:	f7ff fff6 	bl	7010a600 <pb_decode_varint32>
7010a614:	4604      	mov	r4, r0
7010a616:	b140      	cbz	r0, 7010a62a <pb_dec_fixed_length_bytes+0x24>
7010a618:	9901      	ldr	r1, [sp, #4]
7010a61a:	f5b1 3f80 	cmp.w	r1, #65536	@ 0x10000
7010a61e:	d212      	bcs.n	7010a646 <pb_dec_fixed_length_bytes+0x40>
7010a620:	b931      	cbnz	r1, 7010a630 <pb_dec_fixed_length_bytes+0x2a>
7010a622:	4628      	mov	r0, r5
7010a624:	8932      	ldrh	r2, [r6, #8]
7010a626:	f001 fa0d 	bl	7010ba44 <memset>
7010a62a:	4620      	mov	r0, r4
7010a62c:	b003      	add	sp, #12
7010a62e:	bdf0      	pop	{r4, r5, r6, r7, pc}
7010a630:	8933      	ldrh	r3, [r6, #8]
7010a632:	4299      	cmp	r1, r3
7010a634:	d107      	bne.n	7010a646 <pb_dec_fixed_length_bytes+0x40>
7010a636:	460a      	mov	r2, r1
7010a638:	4638      	mov	r0, r7
7010a63a:	4629      	mov	r1, r5
7010a63c:	b003      	add	sp, #12
7010a63e:	e8bd 40f0 	ldmia.w	sp!, {r4, r5, r6, r7, lr}
7010a642:	f7ff bfb1 	b.w	7010a5a8 <pb_read>
7010a646:	2400      	movs	r4, #0
7010a648:	e7ef      	b.n	7010a62a <pb_dec_fixed_length_bytes+0x24>

7010a64a <pb_dec_string>:
7010a64a:	e92d 41f3 	stmdb	sp!, {r0, r1, r4, r5, r6, r7, r8, lr}
7010a64e:	460f      	mov	r7, r1
7010a650:	a901      	add	r1, sp, #4
7010a652:	4680      	mov	r8, r0
7010a654:	4615      	mov	r5, r2
7010a656:	f7ff ffd3 	bl	7010a600 <pb_decode_varint32>
7010a65a:	b190      	cbz	r0, 7010a682 <pb_dec_string+0x38>
7010a65c:	2600      	movs	r6, #0
7010a65e:	9c01      	ldr	r4, [sp, #4]
7010a660:	4630      	mov	r0, r6
7010a662:	1c62      	adds	r2, r4, #1
7010a664:	d20d      	bcs.n	7010a682 <pb_dec_string+0x38>
7010a666:	78bb      	ldrb	r3, [r7, #2]
7010a668:	f003 03c0 	and.w	r3, r3, #192	@ 0xc0
7010a66c:	2b80      	cmp	r3, #128	@ 0x80
7010a66e:	d008      	beq.n	7010a682 <pb_dec_string+0x38>
7010a670:	893b      	ldrh	r3, [r7, #8]
7010a672:	4293      	cmp	r3, r2
7010a674:	d305      	bcc.n	7010a682 <pb_dec_string+0x38>
7010a676:	4622      	mov	r2, r4
7010a678:	4629      	mov	r1, r5
7010a67a:	4640      	mov	r0, r8
7010a67c:	f7ff ff94 	bl	7010a5a8 <pb_read>
7010a680:	552e      	strb	r6, [r5, r4]
7010a682:	b002      	add	sp, #8
7010a684:	e8bd 81f0 	ldmia.w	sp!, {r4, r5, r6, r7, r8, pc}

7010a688 <pb_dec_bytes>:
7010a688:	b573      	push	{r0, r1, r4, r5, r6, lr}
7010a68a:	460d      	mov	r5, r1
7010a68c:	a901      	add	r1, sp, #4
7010a68e:	4606      	mov	r6, r0
7010a690:	4614      	mov	r4, r2
7010a692:	f7ff ffb5 	bl	7010a600 <pb_decode_varint32>
7010a696:	b1a8      	cbz	r0, 7010a6c4 <pb_dec_bytes+0x3c>
7010a698:	9a01      	ldr	r2, [sp, #4]
7010a69a:	f5b2 3f80 	cmp.w	r2, #65536	@ 0x10000
7010a69e:	d211      	bcs.n	7010a6c4 <pb_dec_bytes+0x3c>
7010a6a0:	78ab      	ldrb	r3, [r5, #2]
7010a6a2:	1c91      	adds	r1, r2, #2
7010a6a4:	f003 03c0 	and.w	r3, r3, #192	@ 0xc0
7010a6a8:	2b80      	cmp	r3, #128	@ 0x80
7010a6aa:	d00b      	beq.n	7010a6c4 <pb_dec_bytes+0x3c>
7010a6ac:	892b      	ldrh	r3, [r5, #8]
7010a6ae:	428b      	cmp	r3, r1
7010a6b0:	d308      	bcc.n	7010a6c4 <pb_dec_bytes+0x3c>
7010a6b2:	4621      	mov	r1, r4
7010a6b4:	4630      	mov	r0, r6
7010a6b6:	f821 2b02 	strh.w	r2, [r1], #2
7010a6ba:	b002      	add	sp, #8
7010a6bc:	e8bd 4070 	ldmia.w	sp!, {r4, r5, r6, lr}
7010a6c0:	f7ff bf72 	b.w	7010a5a8 <pb_read>
7010a6c4:	2000      	movs	r0, #0
7010a6c6:	b002      	add	sp, #8
7010a6c8:	bd70      	pop	{r4, r5, r6, pc}

7010a6ca <pb_decode_varint>:
7010a6ca:	e92d 4ff7 	stmdb	sp!, {r0, r1, r2, r4, r5, r6, r7, r8, r9, sl, fp, lr}
7010a6ce:	2400      	movs	r4, #0
7010a6d0:	4681      	mov	r9, r0
7010a6d2:	460d      	mov	r5, r1
7010a6d4:	46a2      	mov	sl, r4
7010a6d6:	46a0      	mov	r8, r4
7010a6d8:	46a3      	mov	fp, r4
7010a6da:	4648      	mov	r0, r9
7010a6dc:	f10d 0107 	add.w	r1, sp, #7
7010a6e0:	f7ff fe9f 	bl	7010a422 <pb_readbyte>
7010a6e4:	b180      	cbz	r0, 7010a708 <pb_decode_varint+0x3e>
7010a6e6:	465f      	mov	r7, fp
7010a6e8:	f89d 3007 	ldrb.w	r3, [sp, #7]
7010a6ec:	f003 067f 	and.w	r6, r3, #127	@ 0x7f
7010a6f0:	ea56 870d 	lsll	r6, r7, r8
7010a6f4:	061b      	lsls	r3, r3, #24
7010a6f6:	ea44 0406 	orr.w	r4, r4, r6
7010a6fa:	ea4a 0a07 	orr.w	sl, sl, r7
7010a6fe:	f108 0807 	add.w	r8, r8, #7
7010a702:	d404      	bmi.n	7010a70e <pb_decode_varint+0x44>
7010a704:	e9c5 4a00 	strd	r4, sl, [r5]
7010a708:	b003      	add	sp, #12
7010a70a:	e8bd 8ff0 	ldmia.w	sp!, {r4, r5, r6, r7, r8, r9, sl, fp, pc}
7010a70e:	f1b8 0f46 	cmp.w	r8, #70	@ 0x46
7010a712:	d1e2      	bne.n	7010a6da <pb_decode_varint+0x10>
7010a714:	2000      	movs	r0, #0
7010a716:	e7f7      	b.n	7010a708 <pb_decode_varint+0x3e>

7010a718 <pb_dec_uvarint>:
7010a718:	b537      	push	{r0, r1, r2, r4, r5, lr}
7010a71a:	460d      	mov	r5, r1
7010a71c:	4669      	mov	r1, sp
7010a71e:	4614      	mov	r4, r2
7010a720:	f7ff ffd3 	bl	7010a6ca <pb_decode_varint>
7010a724:	b1a8      	cbz	r0, 7010a752 <pb_dec_uvarint+0x3a>
7010a726:	892b      	ldrh	r3, [r5, #8]
7010a728:	3b01      	subs	r3, #1
7010a72a:	2b07      	cmp	r3, #7
7010a72c:	d824      	bhi.n	7010a778 <pb_dec_uvarint+0x60>
7010a72e:	e8df f003 	tbb	[pc, r3]
7010a732:	181d      	.short	0x181d
7010a734:	23231223 	.word	0x23231223
7010a738:	0423      	.short	0x0423
7010a73a:	e9dd 1200 	ldrd	r1, r2, [sp]
7010a73e:	460b      	mov	r3, r1
7010a740:	4610      	mov	r0, r2
7010a742:	e9c4 1200 	strd	r1, r2, [r4]
7010a746:	4282      	cmp	r2, r0
7010a748:	bf08      	it	eq
7010a74a:	4299      	cmpeq	r1, r3
7010a74c:	bf0c      	ite	eq
7010a74e:	2001      	moveq	r0, #1
7010a750:	2000      	movne	r0, #0
7010a752:	b003      	add	sp, #12
7010a754:	bd30      	pop	{r4, r5, pc}
7010a756:	e9dd 3000 	ldrd	r3, r0, [sp]
7010a75a:	4619      	mov	r1, r3
7010a75c:	6023      	str	r3, [r4, #0]
7010a75e:	2200      	movs	r2, #0
7010a760:	e7f1      	b.n	7010a746 <pb_dec_uvarint+0x2e>
7010a762:	e9dd 3000 	ldrd	r3, r0, [sp]
7010a766:	8023      	strh	r3, [r4, #0]
7010a768:	b299      	uxth	r1, r3
7010a76a:	e7f8      	b.n	7010a75e <pb_dec_uvarint+0x46>
7010a76c:	e9dd 3000 	ldrd	r3, r0, [sp]
7010a770:	7023      	strb	r3, [r4, #0]
7010a772:	f003 01ff 	and.w	r1, r3, #255	@ 0xff
7010a776:	e7f2      	b.n	7010a75e <pb_dec_uvarint+0x46>
7010a778:	2000      	movs	r0, #0
7010a77a:	e7ea      	b.n	7010a752 <pb_dec_uvarint+0x3a>

7010a77c <pb_dec_varint>:
7010a77c:	b537      	push	{r0, r1, r2, r4, r5, lr}
7010a77e:	460d      	mov	r5, r1
7010a780:	4669      	mov	r1, sp
7010a782:	4614      	mov	r4, r2
7010a784:	f7ff ffa1 	bl	7010a6ca <pb_decode_varint>
7010a788:	b130      	cbz	r0, 7010a798 <pb_dec_varint+0x1c>
7010a78a:	e9dd 1200 	ldrd	r1, r2, [sp]
7010a78e:	892b      	ldrh	r3, [r5, #8]
7010a790:	2b08      	cmp	r3, #8
7010a792:	d103      	bne.n	7010a79c <pb_dec_varint+0x20>
7010a794:	e9c4 1200 	strd	r1, r2, [r4]
7010a798:	b003      	add	sp, #12
7010a79a:	bd30      	pop	{r4, r5, pc}
7010a79c:	2b02      	cmp	r3, #2
7010a79e:	ea4f 70e1 	mov.w	r0, r1, asr #31
7010a7a2:	d00f      	beq.n	7010a7c4 <pb_dec_varint+0x48>
7010a7a4:	2b04      	cmp	r3, #4
7010a7a6:	d003      	beq.n	7010a7b0 <pb_dec_varint+0x34>
7010a7a8:	2b01      	cmp	r3, #1
7010a7aa:	d00f      	beq.n	7010a7cc <pb_dec_varint+0x50>
7010a7ac:	2000      	movs	r0, #0
7010a7ae:	e7f3      	b.n	7010a798 <pb_dec_varint+0x1c>
7010a7b0:	460b      	mov	r3, r1
7010a7b2:	4602      	mov	r2, r0
7010a7b4:	6021      	str	r1, [r4, #0]
7010a7b6:	4282      	cmp	r2, r0
7010a7b8:	bf08      	it	eq
7010a7ba:	428b      	cmpeq	r3, r1
7010a7bc:	bf0c      	ite	eq
7010a7be:	2001      	moveq	r0, #1
7010a7c0:	2000      	movne	r0, #0
7010a7c2:	e7e9      	b.n	7010a798 <pb_dec_varint+0x1c>
7010a7c4:	b20b      	sxth	r3, r1
7010a7c6:	8023      	strh	r3, [r4, #0]
7010a7c8:	17da      	asrs	r2, r3, #31
7010a7ca:	e7f4      	b.n	7010a7b6 <pb_dec_varint+0x3a>
7010a7cc:	b24b      	sxtb	r3, r1
7010a7ce:	7023      	strb	r3, [r4, #0]
7010a7d0:	e7fa      	b.n	7010a7c8 <pb_dec_varint+0x4c>

7010a7d2 <pb_decode_tag>:
7010a7d2:	b5f7      	push	{r0, r1, r2, r4, r5, r6, r7, lr}
7010a7d4:	461d      	mov	r5, r3
7010a7d6:	2300      	movs	r3, #0
7010a7d8:	460e      	mov	r6, r1
7010a7da:	702b      	strb	r3, [r5, #0]
7010a7dc:	4617      	mov	r7, r2
7010a7de:	700b      	strb	r3, [r1, #0]
7010a7e0:	6013      	str	r3, [r2, #0]
7010a7e2:	a901      	add	r1, sp, #4
7010a7e4:	462a      	mov	r2, r5
7010a7e6:	f7ff fe2b 	bl	7010a440 <pb_decode_varint32_eof>
7010a7ea:	b118      	cbz	r0, 7010a7f4 <pb_decode_tag+0x22>
7010a7ec:	9c01      	ldr	r4, [sp, #4]
7010a7ee:	b924      	cbnz	r4, 7010a7fa <pb_decode_tag+0x28>
7010a7f0:	2301      	movs	r3, #1
7010a7f2:	702b      	strb	r3, [r5, #0]
7010a7f4:	2000      	movs	r0, #0
7010a7f6:	b003      	add	sp, #12
7010a7f8:	bdf0      	pop	{r4, r5, r6, r7, pc}
7010a7fa:	08e3      	lsrs	r3, r4, #3
7010a7fc:	f004 0407 	and.w	r4, r4, #7
7010a800:	603b      	str	r3, [r7, #0]
7010a802:	7034      	strb	r4, [r6, #0]
7010a804:	e7f7      	b.n	7010a7f6 <pb_decode_tag+0x24>

7010a806 <pb_skip_field>:
7010a806:	b513      	push	{r0, r1, r4, lr}
7010a808:	4604      	mov	r4, r0
7010a80a:	2905      	cmp	r1, #5
7010a80c:	d821      	bhi.n	7010a852 <pb_skip_field+0x4c>
7010a80e:	e8df f001 	tbb	[pc, r1]
7010a812:	0f03      	.short	0x0f03
7010a814:	1e202017 	.word	0x1e202017
7010a818:	2201      	movs	r2, #1
7010a81a:	4620      	mov	r0, r4
7010a81c:	a901      	add	r1, sp, #4
7010a81e:	f7ff fec3 	bl	7010a5a8 <pb_read>
7010a822:	b118      	cbz	r0, 7010a82c <pb_skip_field+0x26>
7010a824:	f99d 3004 	ldrsb.w	r3, [sp, #4]
7010a828:	2b00      	cmp	r3, #0
7010a82a:	dbf5      	blt.n	7010a818 <pb_skip_field+0x12>
7010a82c:	b002      	add	sp, #8
7010a82e:	bd10      	pop	{r4, pc}
7010a830:	2208      	movs	r2, #8
7010a832:	2100      	movs	r1, #0
7010a834:	4620      	mov	r0, r4
7010a836:	b002      	add	sp, #8
7010a838:	e8bd 4010 	ldmia.w	sp!, {r4, lr}
7010a83c:	f7ff beb4 	b.w	7010a5a8 <pb_read>
7010a840:	a901      	add	r1, sp, #4
7010a842:	f7ff fedd 	bl	7010a600 <pb_decode_varint32>
7010a846:	2800      	cmp	r0, #0
7010a848:	d0f0      	beq.n	7010a82c <pb_skip_field+0x26>
7010a84a:	9a01      	ldr	r2, [sp, #4]
7010a84c:	e7f1      	b.n	7010a832 <pb_skip_field+0x2c>
7010a84e:	2204      	movs	r2, #4
7010a850:	e7ef      	b.n	7010a832 <pb_skip_field+0x2c>
7010a852:	2000      	movs	r0, #0
7010a854:	e7ea      	b.n	7010a82c <pb_skip_field+0x26>

7010a856 <pb_make_string_substream>:
7010a856:	b537      	push	{r0, r1, r2, r4, r5, lr}
7010a858:	460d      	mov	r5, r1
7010a85a:	a901      	add	r1, sp, #4
7010a85c:	4604      	mov	r4, r0
7010a85e:	f7ff fecf 	bl	7010a600 <pb_decode_varint32>
7010a862:	4603      	mov	r3, r0
7010a864:	b918      	cbnz	r0, 7010a86e <pb_make_string_substream+0x18>
7010a866:	2300      	movs	r3, #0
7010a868:	4618      	mov	r0, r3
7010a86a:	b003      	add	sp, #12
7010a86c:	bd30      	pop	{r4, r5, pc}
7010a86e:	e894 0007 	ldmia.w	r4, {r0, r1, r2}
7010a872:	e885 0007 	stmia.w	r5, {r0, r1, r2}
7010a876:	9901      	ldr	r1, [sp, #4]
7010a878:	428a      	cmp	r2, r1
7010a87a:	d3f4      	bcc.n	7010a866 <pb_make_string_substream+0x10>
7010a87c:	60a9      	str	r1, [r5, #8]
7010a87e:	68a2      	ldr	r2, [r4, #8]
7010a880:	1a52      	subs	r2, r2, r1
7010a882:	60a2      	str	r2, [r4, #8]
7010a884:	e7f0      	b.n	7010a868 <pb_make_string_substream+0x12>

7010a886 <pb_close_string_substream>:
7010a886:	688a      	ldr	r2, [r1, #8]
7010a888:	b538      	push	{r3, r4, r5, lr}
7010a88a:	4605      	mov	r5, r0
7010a88c:	460c      	mov	r4, r1
7010a88e:	b91a      	cbnz	r2, 7010a898 <pb_close_string_substream+0x12>
7010a890:	2001      	movs	r0, #1
7010a892:	6863      	ldr	r3, [r4, #4]
7010a894:	606b      	str	r3, [r5, #4]
7010a896:	bd38      	pop	{r3, r4, r5, pc}
7010a898:	2100      	movs	r1, #0
7010a89a:	4620      	mov	r0, r4
7010a89c:	f7ff fe84 	bl	7010a5a8 <pb_read>
7010a8a0:	2800      	cmp	r0, #0
7010a8a2:	d1f5      	bne.n	7010a890 <pb_close_string_substream+0xa>
7010a8a4:	e7f7      	b.n	7010a896 <pb_close_string_substream+0x10>
	...

7010a8a8 <decode_field>:
7010a8a8:	e92d 43f0 	stmdb	sp!, {r4, r5, r6, r7, r8, r9, lr}
7010a8ac:	460b      	mov	r3, r1
7010a8ae:	6851      	ldr	r1, [r2, #4]
7010a8b0:	4614      	mov	r4, r2
7010a8b2:	788a      	ldrb	r2, [r1, #2]
7010a8b4:	4605      	mov	r5, r0
7010a8b6:	f012 07c0 	ands.w	r7, r2, #192	@ 0xc0
7010a8ba:	b087      	sub	sp, #28
7010a8bc:	d003      	beq.n	7010a8c6 <decode_field+0x1e>
7010a8be:	2f40      	cmp	r7, #64	@ 0x40
7010a8c0:	d067      	beq.n	7010a992 <decode_field+0xea>
7010a8c2:	2000      	movs	r0, #0
7010a8c4:	e057      	b.n	7010a976 <decode_field+0xce>
7010a8c6:	f002 0c0f 	and.w	ip, r2, #15
7010a8ca:	4e5d      	ldr	r6, [pc, #372]	@ (7010aa40 <decode_field+0x198>)
7010a8cc:	f002 0230 	and.w	r2, r2, #48	@ 0x30
7010a8d0:	2a20      	cmp	r2, #32
7010a8d2:	f856 602c 	ldr.w	r6, [r6, ip, lsl #2]
7010a8d6:	d024      	beq.n	7010a922 <decode_field+0x7a>
7010a8d8:	d806      	bhi.n	7010a8e8 <decode_field+0x40>
7010a8da:	b9d2      	cbnz	r2, 7010a912 <decode_field+0x6a>
7010a8dc:	6922      	ldr	r2, [r4, #16]
7010a8de:	4633      	mov	r3, r6
7010a8e0:	b007      	add	sp, #28
7010a8e2:	e8bd 43f0 	ldmia.w	sp!, {r4, r5, r6, r7, r8, r9, lr}
7010a8e6:	4718      	bx	r3
7010a8e8:	2a30      	cmp	r2, #48	@ 0x30
7010a8ea:	d1ea      	bne.n	7010a8c2 <decode_field+0x1a>
7010a8ec:	880a      	ldrh	r2, [r1, #0]
7010a8ee:	6963      	ldr	r3, [r4, #20]
7010a8f0:	f1bc 0f07 	cmp.w	ip, #7
7010a8f4:	801a      	strh	r2, [r3, #0]
7010a8f6:	d109      	bne.n	7010a90c <decode_field+0x64>
7010a8f8:	890a      	ldrh	r2, [r1, #8]
7010a8fa:	6920      	ldr	r0, [r4, #16]
7010a8fc:	4639      	mov	r1, r7
7010a8fe:	f001 f8a1 	bl	7010ba44 <memset>
7010a902:	6863      	ldr	r3, [r4, #4]
7010a904:	6921      	ldr	r1, [r4, #16]
7010a906:	68d8      	ldr	r0, [r3, #12]
7010a908:	f7ff fe3e 	bl	7010a588 <pb_message_set_to_defaults>
7010a90c:	6922      	ldr	r2, [r4, #16]
7010a90e:	6861      	ldr	r1, [r4, #4]
7010a910:	e005      	b.n	7010a91e <decode_field+0x76>
7010a912:	e9d4 2304 	ldrd	r2, r3, [r4, #16]
7010a916:	4293      	cmp	r3, r2
7010a918:	bf1c      	itt	ne
7010a91a:	2001      	movne	r0, #1
7010a91c:	7018      	strbne	r0, [r3, #0]
7010a91e:	4628      	mov	r0, r5
7010a920:	e7dd      	b.n	7010a8de <decode_field+0x36>
7010a922:	2b02      	cmp	r3, #2
7010a924:	6967      	ldr	r7, [r4, #20]
7010a926:	d129      	bne.n	7010a97c <decode_field+0xd4>
7010a928:	f1bc 0f04 	cmp.w	ip, #4
7010a92c:	d826      	bhi.n	7010a97c <decode_field+0xd4>
7010a92e:	a903      	add	r1, sp, #12
7010a930:	f7ff ff91 	bl	7010a856 <pb_make_string_substream>
7010a934:	4681      	mov	r9, r0
7010a936:	2800      	cmp	r0, #0
7010a938:	d0c3      	beq.n	7010a8c2 <decode_field+0x1a>
7010a93a:	9b05      	ldr	r3, [sp, #20]
7010a93c:	b183      	cbz	r3, 7010a960 <decode_field+0xb8>
7010a93e:	6861      	ldr	r1, [r4, #4]
7010a940:	883b      	ldrh	r3, [r7, #0]
7010a942:	894a      	ldrh	r2, [r1, #10]
7010a944:	429a      	cmp	r2, r3
7010a946:	d9bc      	bls.n	7010a8c2 <decode_field+0x1a>
7010a948:	8908      	ldrh	r0, [r1, #8]
7010a94a:	6922      	ldr	r2, [r4, #16]
7010a94c:	fb03 2200 	mla	r2, r3, r0, r2
7010a950:	a803      	add	r0, sp, #12
7010a952:	47b0      	blx	r6
7010a954:	4680      	mov	r8, r0
7010a956:	b120      	cbz	r0, 7010a962 <decode_field+0xba>
7010a958:	883b      	ldrh	r3, [r7, #0]
7010a95a:	3301      	adds	r3, #1
7010a95c:	803b      	strh	r3, [r7, #0]
7010a95e:	e7ec      	b.n	7010a93a <decode_field+0x92>
7010a960:	46c8      	mov	r8, r9
7010a962:	9b05      	ldr	r3, [sp, #20]
7010a964:	2b00      	cmp	r3, #0
7010a966:	d1ac      	bne.n	7010a8c2 <decode_field+0x1a>
7010a968:	4628      	mov	r0, r5
7010a96a:	a903      	add	r1, sp, #12
7010a96c:	f7ff ff8b 	bl	7010a886 <pb_close_string_substream>
7010a970:	ea00 0008 	and.w	r0, r0, r8
7010a974:	b2c0      	uxtb	r0, r0
7010a976:	b007      	add	sp, #28
7010a978:	e8bd 83f0 	ldmia.w	sp!, {r4, r5, r6, r7, r8, r9, pc}
7010a97c:	883b      	ldrh	r3, [r7, #0]
7010a97e:	6922      	ldr	r2, [r4, #16]
7010a980:	1c5c      	adds	r4, r3, #1
7010a982:	8908      	ldrh	r0, [r1, #8]
7010a984:	803c      	strh	r4, [r7, #0]
7010a986:	894c      	ldrh	r4, [r1, #10]
7010a988:	429c      	cmp	r4, r3
7010a98a:	d99a      	bls.n	7010a8c2 <decode_field+0x1a>
7010a98c:	fb03 2200 	mla	r2, r3, r0, r2
7010a990:	e7c5      	b.n	7010a91e <decode_field+0x76>
7010a992:	6927      	ldr	r7, [r4, #16]
7010a994:	b10f      	cbz	r7, 7010a99a <decode_field+0xf2>
7010a996:	683a      	ldr	r2, [r7, #0]
7010a998:	b932      	cbnz	r2, 7010a9a8 <decode_field+0x100>
7010a99a:	4619      	mov	r1, r3
7010a99c:	4628      	mov	r0, r5
7010a99e:	b007      	add	sp, #28
7010a9a0:	e8bd 43f0 	ldmia.w	sp!, {r4, r5, r6, r7, r8, r9, lr}
7010a9a4:	f7ff bf2f 	b.w	7010a806 <pb_skip_field>
7010a9a8:	2b02      	cmp	r3, #2
7010a9aa:	f107 0804 	add.w	r8, r7, #4
7010a9ae:	d114      	bne.n	7010a9da <decode_field+0x132>
7010a9b0:	a903      	add	r1, sp, #12
7010a9b2:	f7ff ff50 	bl	7010a856 <pb_make_string_substream>
7010a9b6:	2800      	cmp	r0, #0
7010a9b8:	d083      	beq.n	7010a8c2 <decode_field+0x1a>
7010a9ba:	4642      	mov	r2, r8
7010a9bc:	683b      	ldr	r3, [r7, #0]
7010a9be:	6861      	ldr	r1, [r4, #4]
7010a9c0:	a803      	add	r0, sp, #12
7010a9c2:	4798      	blx	r3
7010a9c4:	2800      	cmp	r0, #0
7010a9c6:	f43f af7c 	beq.w	7010a8c2 <decode_field+0x1a>
7010a9ca:	9b05      	ldr	r3, [sp, #20]
7010a9cc:	2b00      	cmp	r3, #0
7010a9ce:	d1f4      	bne.n	7010a9ba <decode_field+0x112>
7010a9d0:	4628      	mov	r0, r5
7010a9d2:	a903      	add	r1, sp, #12
7010a9d4:	f7ff ff57 	bl	7010a886 <pb_close_string_substream>
7010a9d8:	e7cd      	b.n	7010a976 <decode_field+0xce>
7010a9da:	2b01      	cmp	r3, #1
7010a9dc:	d022      	beq.n	7010aa24 <decode_field+0x17c>
7010a9de:	2b05      	cmp	r3, #5
7010a9e0:	d028      	beq.n	7010aa34 <decode_field+0x18c>
7010a9e2:	2b00      	cmp	r3, #0
7010a9e4:	f47f af6d 	bne.w	7010a8c2 <decode_field+0x1a>
7010a9e8:	2601      	movs	r6, #1
7010a9ea:	46e9      	mov	r9, sp
7010a9ec:	e003      	b.n	7010a9f6 <decode_field+0x14e>
7010a9ee:	3601      	adds	r6, #1
7010a9f0:	2e0b      	cmp	r6, #11
7010a9f2:	f43f af66 	beq.w	7010a8c2 <decode_field+0x1a>
7010a9f6:	2201      	movs	r2, #1
7010a9f8:	4649      	mov	r1, r9
7010a9fa:	4628      	mov	r0, r5
7010a9fc:	f7ff fdd4 	bl	7010a5a8 <pb_read>
7010aa00:	2800      	cmp	r0, #0
7010aa02:	f43f af5e 	beq.w	7010a8c2 <decode_field+0x1a>
7010aa06:	f919 3b01 	ldrsb.w	r3, [r9], #1
7010aa0a:	2b00      	cmp	r3, #0
7010aa0c:	dbef      	blt.n	7010a9ee <decode_field+0x146>
7010aa0e:	4b0d      	ldr	r3, [pc, #52]	@ (7010aa44 <decode_field+0x19c>)
7010aa10:	4642      	mov	r2, r8
7010aa12:	9303      	str	r3, [sp, #12]
7010aa14:	466b      	mov	r3, sp
7010aa16:	6861      	ldr	r1, [r4, #4]
7010aa18:	e9cd 3604 	strd	r3, r6, [sp, #16]
7010aa1c:	a803      	add	r0, sp, #12
7010aa1e:	683b      	ldr	r3, [r7, #0]
7010aa20:	4798      	blx	r3
7010aa22:	e7a8      	b.n	7010a976 <decode_field+0xce>
7010aa24:	2208      	movs	r2, #8
7010aa26:	4669      	mov	r1, sp
7010aa28:	f7ff fdbe 	bl	7010a5a8 <pb_read>
7010aa2c:	2608      	movs	r6, #8
7010aa2e:	2800      	cmp	r0, #0
7010aa30:	d1ed      	bne.n	7010aa0e <decode_field+0x166>
7010aa32:	e746      	b.n	7010a8c2 <decode_field+0x1a>
7010aa34:	2204      	movs	r2, #4
7010aa36:	4669      	mov	r1, sp
7010aa38:	f7ff fdb6 	bl	7010a5a8 <pb_read>
7010aa3c:	2604      	movs	r6, #4
7010aa3e:	e7f6      	b.n	7010aa2e <decode_field+0x186>
7010aa40:	7010fb80 	.word	0x7010fb80
7010aa44:	7010a3fd 	.word	0x7010a3fd

7010aa48 <pb_decode_noinit>:
7010aa48:	e92d 4ff0 	stmdb	sp!, {r4, r5, r6, r7, r8, r9, sl, fp, lr}
7010aa4c:	2400      	movs	r4, #0
7010aa4e:	b091      	sub	sp, #68	@ 0x44
7010aa50:	4605      	mov	r5, r0
7010aa52:	a804      	add	r0, sp, #16
7010aa54:	e9cd 4402 	strd	r4, r4, [sp, #8]
7010aa58:	f8ad 4002 	strh.w	r4, [sp, #2]
7010aa5c:	46a0      	mov	r8, r4
7010aa5e:	f7ff fc67 	bl	7010a330 <pb_field_iter_begin>
7010aa62:	68ab      	ldr	r3, [r5, #8]
7010aa64:	2b00      	cmp	r3, #0
7010aa66:	d133      	bne.n	7010aad0 <pb_decode_noinit+0x88>
7010aa68:	b124      	cbz	r4, 7010aa74 <pb_decode_noinit+0x2c>
7010aa6a:	8962      	ldrh	r2, [r4, #10]
7010aa6c:	f8bd 3002 	ldrh.w	r3, [sp, #2]
7010aa70:	429a      	cmp	r2, r3
7010aa72:	d139      	bne.n	7010aae8 <pb_decode_noinit+0xa0>
7010aa74:	e9dd 3405 	ldrd	r3, r4, [sp, #20]
7010aa78:	a804      	add	r0, sp, #16
7010aa7a:	789d      	ldrb	r5, [r3, #2]
7010aa7c:	f7ff fc69 	bl	7010a352 <pb_field_iter_next>
7010aa80:	2800      	cmp	r0, #0
7010aa82:	d1f7      	bne.n	7010aa74 <pb_decode_noinit+0x2c>
7010aa84:	f015 0f30 	tst.w	r5, #48	@ 0x30
7010aa88:	d104      	bne.n	7010aa94 <pb_decode_noinit+0x4c>
7010aa8a:	9b05      	ldr	r3, [sp, #20]
7010aa8c:	881b      	ldrh	r3, [r3, #0]
7010aa8e:	2b00      	cmp	r3, #0
7010aa90:	ea54 9404 	cinc	r4, r4, ne
7010aa94:	2c00      	cmp	r4, #0
7010aa96:	f000 80c6 	beq.w	7010ac26 <pb_decode_noinit+0x1de>
7010aa9a:	2c40      	cmp	r4, #64	@ 0x40
7010aa9c:	bf28      	it	cs
7010aa9e:	2440      	movcs	r4, #64	@ 0x40
7010aaa0:	2200      	movs	r2, #0
7010aaa2:	0963      	lsrs	r3, r4, #5
7010aaa4:	a902      	add	r1, sp, #8
7010aaa6:	4293      	cmp	r3, r2
7010aaa8:	f040 80b6 	bne.w	7010ac18 <pb_decode_noinit+0x1d0>
7010aaac:	f014 041f 	ands.w	r4, r4, #31
7010aab0:	f000 80b9 	beq.w	7010ac26 <pb_decode_noinit+0x1de>
7010aab4:	f04f 30ff 	mov.w	r0, #4294967295
7010aab8:	aa10      	add	r2, sp, #64	@ 0x40
7010aaba:	eb02 0383 	add.w	r3, r2, r3, lsl #2
7010aabe:	f853 3c38 	ldr.w	r3, [r3, #-56]
7010aac2:	f1c4 0420 	rsb	r4, r4, #32
7010aac6:	40e0      	lsrs	r0, r4
7010aac8:	1ac3      	subs	r3, r0, r3
7010aaca:	4258      	negs	r0, r3
7010aacc:	4158      	adcs	r0, r3
7010aace:	e00c      	b.n	7010aaea <pb_decode_noinit+0xa2>
7010aad0:	4669      	mov	r1, sp
7010aad2:	4628      	mov	r0, r5
7010aad4:	f10d 0301 	add.w	r3, sp, #1
7010aad8:	aa01      	add	r2, sp, #4
7010aada:	f7ff fe7a 	bl	7010a7d2 <pb_decode_tag>
7010aade:	b938      	cbnz	r0, 7010aaf0 <pb_decode_noinit+0xa8>
7010aae0:	f89d 3001 	ldrb.w	r3, [sp, #1]
7010aae4:	2b00      	cmp	r3, #0
7010aae6:	d1bf      	bne.n	7010aa68 <pb_decode_noinit+0x20>
7010aae8:	2000      	movs	r0, #0
7010aaea:	b011      	add	sp, #68	@ 0x44
7010aaec:	e8bd 8ff0 	ldmia.w	sp!, {r4, r5, r6, r7, r8, r9, sl, fp, pc}
7010aaf0:	9f01      	ldr	r7, [sp, #4]
7010aaf2:	a804      	add	r0, sp, #16
7010aaf4:	4639      	mov	r1, r7
7010aaf6:	f7ff fc6a 	bl	7010a3ce <pb_field_iter_find>
7010aafa:	2800      	cmp	r0, #0
7010aafc:	d159      	bne.n	7010abb2 <pb_decode_noinit+0x16a>
7010aafe:	4547      	cmp	r7, r8
7010ab00:	d34e      	bcc.n	7010aba0 <pb_decode_noinit+0x158>
7010ab02:	9e05      	ldr	r6, [sp, #20]
7010ab04:	4633      	mov	r3, r6
7010ab06:	789b      	ldrb	r3, [r3, #2]
7010ab08:	f003 030f 	and.w	r3, r3, #15
7010ab0c:	2b08      	cmp	r3, #8
7010ab0e:	f000 808c 	beq.w	7010ac2a <pb_decode_noinit+0x1e2>
7010ab12:	a804      	add	r0, sp, #16
7010ab14:	f7ff fc1d 	bl	7010a352 <pb_field_iter_next>
7010ab18:	9b05      	ldr	r3, [sp, #20]
7010ab1a:	429e      	cmp	r6, r3
7010ab1c:	d1f3      	bne.n	7010ab06 <pb_decode_noinit+0xbe>
7010ab1e:	f04f 38ff 	mov.w	r8, #4294967295
7010ab22:	4547      	cmp	r7, r8
7010ab24:	d33c      	bcc.n	7010aba0 <pb_decode_noinit+0x158>
7010ab26:	9b08      	ldr	r3, [sp, #32]
7010ab28:	f89d a000 	ldrb.w	sl, [sp]
7010ab2c:	f8d5 9008 	ldr.w	r9, [r5, #8]
7010ab30:	681e      	ldr	r6, [r3, #0]
7010ab32:	68ab      	ldr	r3, [r5, #8]
7010ab34:	b38e      	cbz	r6, 7010ab9a <pb_decode_noinit+0x152>
7010ab36:	4599      	cmp	r9, r3
7010ab38:	d193      	bne.n	7010aa62 <pb_decode_noinit+0x1a>
7010ab3a:	6833      	ldr	r3, [r6, #0]
7010ab3c:	f8d3 b000 	ldr.w	fp, [r3]
7010ab40:	f1bb 0f00 	cmp.w	fp, #0
7010ab44:	d008      	beq.n	7010ab58 <pb_decode_noinit+0x110>
7010ab46:	4653      	mov	r3, sl
7010ab48:	463a      	mov	r2, r7
7010ab4a:	4631      	mov	r1, r6
7010ab4c:	4628      	mov	r0, r5
7010ab4e:	47d8      	blx	fp
7010ab50:	2800      	cmp	r0, #0
7010ab52:	d0c9      	beq.n	7010aae8 <pb_decode_noinit+0xa0>
7010ab54:	68b6      	ldr	r6, [r6, #8]
7010ab56:	e7ec      	b.n	7010ab32 <pb_decode_noinit+0xea>
7010ab58:	f8d3 b008 	ldr.w	fp, [r3, #8]
7010ab5c:	f8bb 3000 	ldrh.w	r3, [fp]
7010ab60:	429f      	cmp	r7, r3
7010ab62:	d1f7      	bne.n	7010ab54 <pb_decode_noinit+0x10c>
7010ab64:	4659      	mov	r1, fp
7010ab66:	6872      	ldr	r2, [r6, #4]
7010ab68:	a80a      	add	r0, sp, #40	@ 0x28
7010ab6a:	f7ff fbe1 	bl	7010a330 <pb_field_iter_begin>
7010ab6e:	6871      	ldr	r1, [r6, #4]
7010ab70:	f106 030c 	add.w	r3, r6, #12
7010ab74:	910e      	str	r1, [sp, #56]	@ 0x38
7010ab76:	930f      	str	r3, [sp, #60]	@ 0x3c
7010ab78:	f89b 2002 	ldrb.w	r2, [fp, #2]
7010ab7c:	1d33      	adds	r3, r6, #4
7010ab7e:	f002 02c0 	and.w	r2, r2, #192	@ 0xc0
7010ab82:	2a80      	cmp	r2, #128	@ 0x80
7010ab84:	bf18      	it	ne
7010ab86:	460b      	movne	r3, r1
7010ab88:	930e      	str	r3, [sp, #56]	@ 0x38
7010ab8a:	2301      	movs	r3, #1
7010ab8c:	4651      	mov	r1, sl
7010ab8e:	4628      	mov	r0, r5
7010ab90:	7333      	strb	r3, [r6, #12]
7010ab92:	aa0a      	add	r2, sp, #40	@ 0x28
7010ab94:	f7ff fe88 	bl	7010a8a8 <decode_field>
7010ab98:	e7da      	b.n	7010ab50 <pb_decode_noinit+0x108>
7010ab9a:	4599      	cmp	r9, r3
7010ab9c:	f47f af61 	bne.w	7010aa62 <pb_decode_noinit+0x1a>
7010aba0:	4628      	mov	r0, r5
7010aba2:	f89d 1000 	ldrb.w	r1, [sp]
7010aba6:	f7ff fe2e 	bl	7010a806 <pb_skip_field>
7010abaa:	2800      	cmp	r0, #0
7010abac:	f47f af59 	bne.w	7010aa62 <pb_decode_noinit+0x1a>
7010abb0:	e79a      	b.n	7010aae8 <pb_decode_noinit+0xa0>
7010abb2:	9a05      	ldr	r2, [sp, #20]
7010abb4:	7893      	ldrb	r3, [r2, #2]
7010abb6:	f003 0330 	and.w	r3, r3, #48	@ 0x30
7010abba:	2b20      	cmp	r3, #32
7010abbc:	d119      	bne.n	7010abf2 <pb_decode_noinit+0x1aa>
7010abbe:	e9dd 3108 	ldrd	r3, r1, [sp, #32]
7010abc2:	4299      	cmp	r1, r3
7010abc4:	d10e      	bne.n	7010abe4 <pb_decode_noinit+0x19c>
7010abc6:	42a2      	cmp	r2, r4
7010abc8:	d008      	beq.n	7010abdc <pb_decode_noinit+0x194>
7010abca:	b124      	cbz	r4, 7010abd6 <pb_decode_noinit+0x18e>
7010abcc:	8961      	ldrh	r1, [r4, #10]
7010abce:	f8bd 3002 	ldrh.w	r3, [sp, #2]
7010abd2:	4299      	cmp	r1, r3
7010abd4:	d188      	bne.n	7010aae8 <pb_decode_noinit+0xa0>
7010abd6:	2300      	movs	r3, #0
7010abd8:	f8ad 3002 	strh.w	r3, [sp, #2]
7010abdc:	4614      	mov	r4, r2
7010abde:	f10d 0302 	add.w	r3, sp, #2
7010abe2:	9309      	str	r3, [sp, #36]	@ 0x24
7010abe4:	4628      	mov	r0, r5
7010abe6:	f89d 1000 	ldrb.w	r1, [sp]
7010abea:	aa04      	add	r2, sp, #16
7010abec:	f7ff fe5c 	bl	7010a8a8 <decode_field>
7010abf0:	e7db      	b.n	7010abaa <pb_decode_noinit+0x162>
7010abf2:	2b00      	cmp	r3, #0
7010abf4:	d1f6      	bne.n	7010abe4 <pb_decode_noinit+0x19c>
7010abf6:	9a06      	ldr	r2, [sp, #24]
7010abf8:	2a3f      	cmp	r2, #63	@ 0x3f
7010abfa:	d8f3      	bhi.n	7010abe4 <pb_decode_noinit+0x19c>
7010abfc:	0951      	lsrs	r1, r2, #5
7010abfe:	ab10      	add	r3, sp, #64	@ 0x40
7010ac00:	eb03 0181 	add.w	r1, r3, r1, lsl #2
7010ac04:	2301      	movs	r3, #1
7010ac06:	f002 021f 	and.w	r2, r2, #31
7010ac0a:	4093      	lsls	r3, r2
7010ac0c:	f851 2c38 	ldr.w	r2, [r1, #-56]
7010ac10:	4313      	orrs	r3, r2
7010ac12:	f841 3c38 	str.w	r3, [r1, #-56]
7010ac16:	e7e5      	b.n	7010abe4 <pb_decode_noinit+0x19c>
7010ac18:	f851 0b04 	ldr.w	r0, [r1], #4
7010ac1c:	3001      	adds	r0, #1
7010ac1e:	f47f af63 	bne.w	7010aae8 <pb_decode_noinit+0xa0>
7010ac22:	3201      	adds	r2, #1
7010ac24:	e73f      	b.n	7010aaa6 <pb_decode_noinit+0x5e>
7010ac26:	2001      	movs	r0, #1
7010ac28:	e75f      	b.n	7010aaea <pb_decode_noinit+0xa2>
7010ac2a:	9b05      	ldr	r3, [sp, #20]
7010ac2c:	f8b3 8000 	ldrh.w	r8, [r3]
7010ac30:	e777      	b.n	7010ab22 <pb_decode_noinit+0xda>

7010ac32 <pb_decode>:
7010ac32:	b570      	push	{r4, r5, r6, lr}
7010ac34:	460c      	mov	r4, r1
7010ac36:	4606      	mov	r6, r0
7010ac38:	4615      	mov	r5, r2
7010ac3a:	4611      	mov	r1, r2
7010ac3c:	4620      	mov	r0, r4
7010ac3e:	f7ff fca3 	bl	7010a588 <pb_message_set_to_defaults>
7010ac42:	462a      	mov	r2, r5
7010ac44:	4621      	mov	r1, r4
7010ac46:	4630      	mov	r0, r6
7010ac48:	e8bd 4070 	ldmia.w	sp!, {r4, r5, r6, lr}
7010ac4c:	f7ff befc 	b.w	7010aa48 <pb_decode_noinit>

7010ac50 <pb_dec_submessage>:
7010ac50:	b5f0      	push	{r4, r5, r6, r7, lr}
7010ac52:	b085      	sub	sp, #20
7010ac54:	460c      	mov	r4, r1
7010ac56:	68cf      	ldr	r7, [r1, #12]
7010ac58:	a901      	add	r1, sp, #4
7010ac5a:	4605      	mov	r5, r0
7010ac5c:	4616      	mov	r6, r2
7010ac5e:	f7ff fdfa 	bl	7010a856 <pb_make_string_substream>
7010ac62:	b198      	cbz	r0, 7010ac8c <pb_dec_submessage+0x3c>
7010ac64:	68e3      	ldr	r3, [r4, #12]
7010ac66:	4618      	mov	r0, r3
7010ac68:	b183      	cbz	r3, 7010ac8c <pb_dec_submessage+0x3c>
7010ac6a:	78a3      	ldrb	r3, [r4, #2]
7010ac6c:	4632      	mov	r2, r6
7010ac6e:	f003 0330 	and.w	r3, r3, #48	@ 0x30
7010ac72:	2b20      	cmp	r3, #32
7010ac74:	4639      	mov	r1, r7
7010ac76:	a801      	add	r0, sp, #4
7010ac78:	d10a      	bne.n	7010ac90 <pb_dec_submessage+0x40>
7010ac7a:	f7ff ffda 	bl	7010ac32 <pb_decode>
7010ac7e:	4604      	mov	r4, r0
7010ac80:	a901      	add	r1, sp, #4
7010ac82:	4628      	mov	r0, r5
7010ac84:	f7ff fdff 	bl	7010a886 <pb_close_string_substream>
7010ac88:	4020      	ands	r0, r4
7010ac8a:	b2c0      	uxtb	r0, r0
7010ac8c:	b005      	add	sp, #20
7010ac8e:	bdf0      	pop	{r4, r5, r6, r7, pc}
7010ac90:	f7ff feda 	bl	7010aa48 <pb_decode_noinit>
7010ac94:	e7f3      	b.n	7010ac7e <pb_dec_submessage+0x2e>

7010ac96 <pb_decode_delimited>:
7010ac96:	b57f      	push	{r0, r1, r2, r3, r4, r5, r6, lr}
7010ac98:	460c      	mov	r4, r1
7010ac9a:	a901      	add	r1, sp, #4
7010ac9c:	4605      	mov	r5, r0
7010ac9e:	4616      	mov	r6, r2
7010aca0:	f7ff fdd9 	bl	7010a856 <pb_make_string_substream>
7010aca4:	b158      	cbz	r0, 7010acbe <pb_decode_delimited+0x28>
7010aca6:	4621      	mov	r1, r4
7010aca8:	4632      	mov	r2, r6
7010acaa:	a801      	add	r0, sp, #4
7010acac:	f7ff ffc1 	bl	7010ac32 <pb_decode>
7010acb0:	a901      	add	r1, sp, #4
7010acb2:	4604      	mov	r4, r0
7010acb4:	4628      	mov	r0, r5
7010acb6:	f7ff fde6 	bl	7010a886 <pb_close_string_substream>
7010acba:	4020      	ands	r0, r4
7010acbc:	b2c0      	uxtb	r0, r0
7010acbe:	b004      	add	sp, #16
7010acc0:	bd70      	pop	{r4, r5, r6, pc}

7010acc2 <pb_decode_svarint>:
7010acc2:	b5d3      	push	{r0, r1, r4, r6, r7, lr}
7010acc4:	460c      	mov	r4, r1
7010acc6:	4669      	mov	r1, sp
7010acc8:	f7ff fcff 	bl	7010a6ca <pb_decode_varint>
7010accc:	b160      	cbz	r0, 7010ace8 <pb_decode_svarint+0x26>
7010acce:	9900      	ldr	r1, [sp, #0]
7010acd0:	9f01      	ldr	r7, [sp, #4]
7010acd2:	460e      	mov	r6, r1
7010acd4:	ea56 075f 	lsrl	r6, r7, #1
7010acd8:	07cb      	lsls	r3, r1, #31
7010acda:	bf45      	ittet	mi
7010acdc:	43f2      	mvnmi	r2, r6
7010acde:	43fb      	mvnmi	r3, r7
7010ace0:	e9c4 6700 	strdpl	r6, r7, [r4]
7010ace4:	e9c4 2300 	strdmi	r2, r3, [r4]
7010ace8:	b002      	add	sp, #8
7010acea:	bdd0      	pop	{r4, r6, r7, pc}

7010acec <pb_dec_svarint>:
7010acec:	b537      	push	{r0, r1, r2, r4, r5, lr}
7010acee:	460d      	mov	r5, r1
7010acf0:	4669      	mov	r1, sp
7010acf2:	4614      	mov	r4, r2
7010acf4:	f7ff ffe5 	bl	7010acc2 <pb_decode_svarint>
7010acf8:	b1a8      	cbz	r0, 7010ad26 <pb_dec_svarint+0x3a>
7010acfa:	892b      	ldrh	r3, [r5, #8]
7010acfc:	3b01      	subs	r3, #1
7010acfe:	2b07      	cmp	r3, #7
7010ad00:	d824      	bhi.n	7010ad4c <pb_dec_svarint+0x60>
7010ad02:	e8df f003 	tbb	[pc, r3]
7010ad06:	181e      	.short	0x181e
7010ad08:	23231223 	.word	0x23231223
7010ad0c:	0423      	.short	0x0423
7010ad0e:	e9dd 3200 	ldrd	r3, r2, [sp]
7010ad12:	4619      	mov	r1, r3
7010ad14:	4610      	mov	r0, r2
7010ad16:	e9c4 3200 	strd	r3, r2, [r4]
7010ad1a:	4290      	cmp	r0, r2
7010ad1c:	bf08      	it	eq
7010ad1e:	4299      	cmpeq	r1, r3
7010ad20:	bf0c      	ite	eq
7010ad22:	2001      	moveq	r0, #1
7010ad24:	2000      	movne	r0, #0
7010ad26:	b003      	add	sp, #12
7010ad28:	bd30      	pop	{r4, r5, pc}
7010ad2a:	e9dd 1000 	ldrd	r1, r0, [sp]
7010ad2e:	460b      	mov	r3, r1
7010ad30:	6021      	str	r1, [r4, #0]
7010ad32:	17ca      	asrs	r2, r1, #31
7010ad34:	e7f1      	b.n	7010ad1a <pb_dec_svarint+0x2e>
7010ad36:	e9dd 1000 	ldrd	r1, r0, [sp]
7010ad3a:	b20b      	sxth	r3, r1
7010ad3c:	8023      	strh	r3, [r4, #0]
7010ad3e:	17da      	asrs	r2, r3, #31
7010ad40:	e7eb      	b.n	7010ad1a <pb_dec_svarint+0x2e>
7010ad42:	e9dd 1000 	ldrd	r1, r0, [sp]
7010ad46:	b24b      	sxtb	r3, r1
7010ad48:	7023      	strb	r3, [r4, #0]
7010ad4a:	e7f8      	b.n	7010ad3e <pb_dec_svarint+0x52>
7010ad4c:	2000      	movs	r0, #0
7010ad4e:	e7ea      	b.n	7010ad26 <pb_dec_svarint+0x3a>

7010ad50 <pb_decode_fixed32>:
7010ad50:	2204      	movs	r2, #4
7010ad52:	b513      	push	{r0, r1, r4, lr}
7010ad54:	460c      	mov	r4, r1
7010ad56:	eb0d 0102 	add.w	r1, sp, r2
7010ad5a:	f7ff fc25 	bl	7010a5a8 <pb_read>
7010ad5e:	b108      	cbz	r0, 7010ad64 <pb_decode_fixed32+0x14>
7010ad60:	9b01      	ldr	r3, [sp, #4]
7010ad62:	6023      	str	r3, [r4, #0]
7010ad64:	b002      	add	sp, #8
7010ad66:	bd10      	pop	{r4, pc}

7010ad68 <pb_dec_fixed32>:
7010ad68:	4611      	mov	r1, r2
7010ad6a:	f7ff bff1 	b.w	7010ad50 <pb_decode_fixed32>

7010ad6e <pb_decode_fixed64>:
7010ad6e:	b513      	push	{r0, r1, r4, lr}
7010ad70:	2208      	movs	r2, #8
7010ad72:	460c      	mov	r4, r1
7010ad74:	4669      	mov	r1, sp
7010ad76:	f7ff fc17 	bl	7010a5a8 <pb_read>
7010ad7a:	b118      	cbz	r0, 7010ad84 <pb_decode_fixed64+0x16>
7010ad7c:	e9dd 2300 	ldrd	r2, r3, [sp]
7010ad80:	e9c4 2300 	strd	r2, r3, [r4]
7010ad84:	b002      	add	sp, #8
7010ad86:	bd10      	pop	{r4, pc}

7010ad88 <pb_dec_fixed64>:
7010ad88:	4611      	mov	r1, r2
7010ad8a:	f7ff bff0 	b.w	7010ad6e <pb_decode_fixed64>
	...

7010ad90 <pb_check_proto3_default_value>:
7010ad90:	b510      	push	{r4, lr}
7010ad92:	7883      	ldrb	r3, [r0, #2]
7010ad94:	4604      	mov	r4, r0
7010ad96:	f013 0030 	ands.w	r0, r3, #48	@ 0x30
7010ad9a:	460a      	mov	r2, r1
7010ad9c:	b086      	sub	sp, #24
7010ad9e:	d010      	beq.n	7010adc2 <pb_check_proto3_default_value+0x32>
7010ada0:	2820      	cmp	r0, #32
7010ada2:	f9b4 1006 	ldrsh.w	r1, [r4, #6]
7010ada6:	d104      	bne.n	7010adb2 <pb_check_proto3_default_value+0x22>
7010ada8:	5a50      	ldrh	r0, [r2, r1]
7010adaa:	fab0 f080 	clz	r0, r0
7010adae:	0940      	lsrs	r0, r0, #5
7010adb0:	e007      	b.n	7010adc2 <pb_check_proto3_default_value+0x32>
7010adb2:	2830      	cmp	r0, #48	@ 0x30
7010adb4:	d0f8      	beq.n	7010ada8 <pb_check_proto3_default_value+0x18>
7010adb6:	2810      	cmp	r0, #16
7010adb8:	d105      	bne.n	7010adc6 <pb_check_proto3_default_value+0x36>
7010adba:	b121      	cbz	r1, 7010adc6 <pb_check_proto3_default_value+0x36>
7010adbc:	5c50      	ldrb	r0, [r2, r1]
7010adbe:	f080 0001 	eor.w	r0, r0, #1
7010adc2:	b006      	add	sp, #24
7010adc4:	bd10      	pop	{r4, pc}
7010adc6:	2b3f      	cmp	r3, #63	@ 0x3f
7010adc8:	d905      	bls.n	7010add6 <pb_check_proto3_default_value+0x46>
7010adca:	8923      	ldrh	r3, [r4, #8]
7010adcc:	3301      	adds	r3, #1
7010adce:	3b01      	subs	r3, #1
7010add0:	d12a      	bne.n	7010ae28 <pb_check_proto3_default_value+0x98>
7010add2:	2001      	movs	r0, #1
7010add4:	e7f5      	b.n	7010adc2 <pb_check_proto3_default_value+0x32>
7010add6:	f003 030f 	and.w	r3, r3, #15
7010adda:	3b05      	subs	r3, #5
7010addc:	2b04      	cmp	r3, #4
7010adde:	d8f4      	bhi.n	7010adca <pb_check_proto3_default_value+0x3a>
7010ade0:	a101      	add	r1, pc, #4	@ (adr r1, 7010ade8 <pb_check_proto3_default_value+0x58>)
7010ade2:	f851 f023 	ldr.w	pc, [r1, r3, lsl #2]
7010ade6:	bf00      	nop
7010ade8:	7010adfd 	.word	0x7010adfd
7010adec:	7010ae01 	.word	0x7010ae01
7010adf0:	7010ae09 	.word	0x7010ae09
7010adf4:	7010adcb 	.word	0x7010adcb
7010adf8:	7010ae05 	.word	0x7010ae05
7010adfc:	8810      	ldrh	r0, [r2, #0]
7010adfe:	e7d4      	b.n	7010adaa <pb_check_proto3_default_value+0x1a>
7010ae00:	7810      	ldrb	r0, [r2, #0]
7010ae02:	e7d2      	b.n	7010adaa <pb_check_proto3_default_value+0x1a>
7010ae04:	8920      	ldrh	r0, [r4, #8]
7010ae06:	e7d0      	b.n	7010adaa <pb_check_proto3_default_value+0x1a>
7010ae08:	4668      	mov	r0, sp
7010ae0a:	68e1      	ldr	r1, [r4, #12]
7010ae0c:	f7ff fa90 	bl	7010a330 <pb_field_iter_begin>
7010ae10:	2800      	cmp	r0, #0
7010ae12:	d0de      	beq.n	7010add2 <pb_check_proto3_default_value+0x42>
7010ae14:	9904      	ldr	r1, [sp, #16]
7010ae16:	9801      	ldr	r0, [sp, #4]
7010ae18:	f7ff ffba 	bl	7010ad90 <pb_check_proto3_default_value>
7010ae1c:	2800      	cmp	r0, #0
7010ae1e:	d0d0      	beq.n	7010adc2 <pb_check_proto3_default_value+0x32>
7010ae20:	4668      	mov	r0, sp
7010ae22:	f7ff fa96 	bl	7010a352 <pb_field_iter_next>
7010ae26:	e7f3      	b.n	7010ae10 <pb_check_proto3_default_value+0x80>
7010ae28:	f812 1b01 	ldrb.w	r1, [r2], #1
7010ae2c:	2900      	cmp	r1, #0
7010ae2e:	d0ce      	beq.n	7010adce <pb_check_proto3_default_value+0x3e>
7010ae30:	2000      	movs	r0, #0
7010ae32:	e7c6      	b.n	7010adc2 <pb_check_proto3_default_value+0x32>

7010ae34 <pb_write>:
7010ae34:	b5f8      	push	{r3, r4, r5, r6, r7, lr}
7010ae36:	6806      	ldr	r6, [r0, #0]
7010ae38:	4604      	mov	r4, r0
7010ae3a:	4615      	mov	r5, r2
7010ae3c:	b926      	cbnz	r6, 7010ae48 <pb_write+0x14>
7010ae3e:	2001      	movs	r0, #1
7010ae40:	68e3      	ldr	r3, [r4, #12]
7010ae42:	442b      	add	r3, r5
7010ae44:	60e3      	str	r3, [r4, #12]
7010ae46:	bdf8      	pop	{r3, r4, r5, r6, r7, pc}
7010ae48:	68c3      	ldr	r3, [r0, #12]
7010ae4a:	6887      	ldr	r7, [r0, #8]
7010ae4c:	4413      	add	r3, r2
7010ae4e:	429f      	cmp	r7, r3
7010ae50:	d201      	bcs.n	7010ae56 <pb_write+0x22>
7010ae52:	2000      	movs	r0, #0
7010ae54:	e7f7      	b.n	7010ae46 <pb_write+0x12>
7010ae56:	47b0      	blx	r6
7010ae58:	2800      	cmp	r0, #0
7010ae5a:	d1f0      	bne.n	7010ae3e <pb_write+0xa>
7010ae5c:	e7f9      	b.n	7010ae52 <pb_write+0x1e>

7010ae5e <pb_encode_varint>:
7010ae5e:	b5f0      	push	{r4, r5, r6, r7, lr}
7010ae60:	461d      	mov	r5, r3
7010ae62:	2a80      	cmp	r2, #128	@ 0x80
7010ae64:	f175 0300 	sbcs.w	r3, r5, #0
7010ae68:	4606      	mov	r6, r0
7010ae6a:	4614      	mov	r4, r2
7010ae6c:	b085      	sub	sp, #20
7010ae6e:	d207      	bcs.n	7010ae80 <pb_encode_varint+0x22>
7010ae70:	f88d 2004 	strb.w	r2, [sp, #4]
7010ae74:	2201      	movs	r2, #1
7010ae76:	a901      	add	r1, sp, #4
7010ae78:	f7ff ffdc 	bl	7010ae34 <pb_write>
7010ae7c:	b005      	add	sp, #20
7010ae7e:	bdf0      	pop	{r4, r5, r6, r7, pc}
7010ae80:	2200      	movs	r2, #0
7010ae82:	a901      	add	r1, sp, #4
7010ae84:	f064 037f 	orn	r3, r4, #127	@ 0x7f
7010ae88:	b2e0      	uxtb	r0, r4
7010ae8a:	ea54 15df 	lsrl	r4, r5, #7
7010ae8e:	ea54 0705 	orrs.w	r7, r4, r5
7010ae92:	f801 3b01 	strb.w	r3, [r1], #1
7010ae96:	4613      	mov	r3, r2
7010ae98:	f102 0201 	add.w	r2, r2, #1
7010ae9c:	d1f2      	bne.n	7010ae84 <pb_encode_varint+0x26>
7010ae9e:	3310      	adds	r3, #16
7010aea0:	446b      	add	r3, sp
7010aea2:	f803 0c0c 	strb.w	r0, [r3, #-12]
7010aea6:	a901      	add	r1, sp, #4
7010aea8:	4630      	mov	r0, r6
7010aeaa:	e7e5      	b.n	7010ae78 <pb_encode_varint+0x1a>

7010aeac <pb_enc_uvarint>:
7010aeac:	4613      	mov	r3, r2
7010aeae:	890a      	ldrh	r2, [r1, #8]
7010aeb0:	3a01      	subs	r2, #1
7010aeb2:	2a07      	cmp	r2, #7
7010aeb4:	d810      	bhi.n	7010aed8 <pb_enc_uvarint+0x2c>
7010aeb6:	e8df f002 	tbb	[pc, r2]
7010aeba:	0804      	.short	0x0804
7010aebc:	0f0f0a0f 	.word	0x0f0f0a0f
7010aec0:	0c0f      	.short	0x0c0f
7010aec2:	781a      	ldrb	r2, [r3, #0]
7010aec4:	2300      	movs	r3, #0
7010aec6:	f7ff bfca 	b.w	7010ae5e <pb_encode_varint>
7010aeca:	881a      	ldrh	r2, [r3, #0]
7010aecc:	e7fa      	b.n	7010aec4 <pb_enc_uvarint+0x18>
7010aece:	681a      	ldr	r2, [r3, #0]
7010aed0:	e7f8      	b.n	7010aec4 <pb_enc_uvarint+0x18>
7010aed2:	e9d3 2300 	ldrd	r2, r3, [r3]
7010aed6:	e7f6      	b.n	7010aec6 <pb_enc_uvarint+0x1a>
7010aed8:	2000      	movs	r0, #0
7010aeda:	4770      	bx	lr

7010aedc <pb_enc_varint>:
7010aedc:	4613      	mov	r3, r2
7010aede:	890a      	ldrh	r2, [r1, #8]
7010aee0:	3a01      	subs	r2, #1
7010aee2:	2a07      	cmp	r2, #7
7010aee4:	d812      	bhi.n	7010af0c <pb_enc_varint+0x30>
7010aee6:	e8df f002 	tbb	[pc, r2]
7010aeea:	0904      	.short	0x0904
7010aeec:	11110c11 	.word	0x11110c11
7010aef0:	0e11      	.short	0x0e11
7010aef2:	f993 2000 	ldrsb.w	r2, [r3]
7010aef6:	17d3      	asrs	r3, r2, #31
7010aef8:	f7ff bfb1 	b.w	7010ae5e <pb_encode_varint>
7010aefc:	f9b3 2000 	ldrsh.w	r2, [r3]
7010af00:	e7f9      	b.n	7010aef6 <pb_enc_varint+0x1a>
7010af02:	681a      	ldr	r2, [r3, #0]
7010af04:	e7f7      	b.n	7010aef6 <pb_enc_varint+0x1a>
7010af06:	e9d3 2300 	ldrd	r2, r3, [r3]
7010af0a:	e7f5      	b.n	7010aef8 <pb_enc_varint+0x1c>
7010af0c:	2000      	movs	r0, #0
7010af0e:	4770      	bx	lr

7010af10 <pb_encode_svarint>:
7010af10:	1892      	adds	r2, r2, r2
7010af12:	eb43 0103 	adc.w	r1, r3, r3
7010af16:	ea82 72e3 	eor.w	r2, r2, r3, asr #31
7010af1a:	ea81 73e3 	eor.w	r3, r1, r3, asr #31
7010af1e:	f7ff bf9e 	b.w	7010ae5e <pb_encode_varint>

7010af22 <pb_enc_svarint>:
7010af22:	4613      	mov	r3, r2
7010af24:	890a      	ldrh	r2, [r1, #8]
7010af26:	3a01      	subs	r2, #1
7010af28:	2a07      	cmp	r2, #7
7010af2a:	d812      	bhi.n	7010af52 <pb_enc_svarint+0x30>
7010af2c:	e8df f002 	tbb	[pc, r2]
7010af30:	0c110904 	.word	0x0c110904
7010af34:	0e111111 	.word	0x0e111111
7010af38:	f993 2000 	ldrsb.w	r2, [r3]
7010af3c:	17d3      	asrs	r3, r2, #31
7010af3e:	f7ff bfe7 	b.w	7010af10 <pb_encode_svarint>
7010af42:	f9b3 2000 	ldrsh.w	r2, [r3]
7010af46:	e7f9      	b.n	7010af3c <pb_enc_svarint+0x1a>
7010af48:	681a      	ldr	r2, [r3, #0]
7010af4a:	e7f7      	b.n	7010af3c <pb_enc_svarint+0x1a>
7010af4c:	e9d3 2300 	ldrd	r2, r3, [r3]
7010af50:	e7f5      	b.n	7010af3e <pb_enc_svarint+0x1c>
7010af52:	2000      	movs	r0, #0
7010af54:	4770      	bx	lr

7010af56 <pb_encode_fixed32>:
7010af56:	b507      	push	{r0, r1, r2, lr}
7010af58:	2204      	movs	r2, #4
7010af5a:	680b      	ldr	r3, [r1, #0]
7010af5c:	eb0d 0102 	add.w	r1, sp, r2
7010af60:	9301      	str	r3, [sp, #4]
7010af62:	f7ff ff67 	bl	7010ae34 <pb_write>
7010af66:	b003      	add	sp, #12
7010af68:	bd00      	pop	{pc}

7010af6a <pb_enc_fixed32>:
7010af6a:	4611      	mov	r1, r2
7010af6c:	f7ff bff3 	b.w	7010af56 <pb_encode_fixed32>

7010af70 <pb_encode_fixed64>:
7010af70:	b507      	push	{r0, r1, r2, lr}
7010af72:	e9d1 2300 	ldrd	r2, r3, [r1]
7010af76:	9200      	str	r2, [sp, #0]
7010af78:	0a1a      	lsrs	r2, r3, #8
7010af7a:	f88d 2005 	strb.w	r2, [sp, #5]
7010af7e:	0c1a      	lsrs	r2, r3, #16
7010af80:	f88d 3004 	strb.w	r3, [sp, #4]
7010af84:	f88d 2006 	strb.w	r2, [sp, #6]
7010af88:	0e1b      	lsrs	r3, r3, #24
7010af8a:	2208      	movs	r2, #8
7010af8c:	4669      	mov	r1, sp
7010af8e:	f88d 3007 	strb.w	r3, [sp, #7]
7010af92:	f7ff ff4f 	bl	7010ae34 <pb_write>
7010af96:	b003      	add	sp, #12
7010af98:	bd00      	pop	{pc}

7010af9a <pb_enc_fixed64>:
7010af9a:	4611      	mov	r1, r2
7010af9c:	f7ff bfe8 	b.w	7010af70 <pb_encode_fixed64>

7010afa0 <pb_encode_tag>:
7010afa0:	b430      	push	{r4, r5}
7010afa2:	4614      	mov	r4, r2
7010afa4:	2500      	movs	r5, #0
7010afa6:	ea54 05cf 	lsll	r4, r5, #3
7010afaa:	462b      	mov	r3, r5
7010afac:	ea41 0204 	orr.w	r2, r1, r4
7010afb0:	bc30      	pop	{r4, r5}
7010afb2:	f7ff bf54 	b.w	7010ae5e <pb_encode_varint>

7010afb6 <pb_encode_tag_for_field>:
7010afb6:	788a      	ldrb	r2, [r1, #2]
7010afb8:	460b      	mov	r3, r1
7010afba:	f002 020f 	and.w	r2, r2, #15
7010afbe:	2a09      	cmp	r2, #9
7010afc0:	d810      	bhi.n	7010afe4 <pb_encode_tag_for_field+0x2e>
7010afc2:	e8df f002 	tbb	[pc, r2]
7010afc6:	0505      	.short	0x0505
7010afc8:	0b090d05 	.word	0x0b090d05
7010afcc:	0b0f0b0b 	.word	0x0b0f0b0b
7010afd0:	2100      	movs	r1, #0
7010afd2:	881a      	ldrh	r2, [r3, #0]
7010afd4:	f7ff bfe4 	b.w	7010afa0 <pb_encode_tag>
7010afd8:	2101      	movs	r1, #1
7010afda:	e7fa      	b.n	7010afd2 <pb_encode_tag_for_field+0x1c>
7010afdc:	2102      	movs	r1, #2
7010afde:	e7f8      	b.n	7010afd2 <pb_encode_tag_for_field+0x1c>
7010afe0:	2105      	movs	r1, #5
7010afe2:	e7f6      	b.n	7010afd2 <pb_encode_tag_for_field+0x1c>
7010afe4:	2000      	movs	r0, #0
7010afe6:	4770      	bx	lr

7010afe8 <encode_field>:
7010afe8:	e92d 47f0 	stmdb	sp!, {r4, r5, r6, r7, r8, r9, sl, lr}
7010afec:	4615      	mov	r5, r2
7010afee:	788a      	ldrb	r2, [r1, #2]
7010aff0:	4606      	mov	r6, r0
7010aff2:	f002 03c0 	and.w	r3, r2, #192	@ 0xc0
7010aff6:	2b40      	cmp	r3, #64	@ 0x40
7010aff8:	460c      	mov	r4, r1
7010affa:	b086      	sub	sp, #24
7010affc:	f000 80c9 	beq.w	7010b192 <encode_field+0x1aa>
7010b000:	0653      	lsls	r3, r2, #25
7010b002:	d43c      	bmi.n	7010b07e <encode_field+0x96>
7010b004:	4b66      	ldr	r3, [pc, #408]	@ (7010b1a0 <encode_field+0x1b8>)
7010b006:	f002 010f 	and.w	r1, r2, #15
7010b00a:	f853 8021 	ldr.w	r8, [r3, r1, lsl #2]
7010b00e:	f9b4 3006 	ldrsh.w	r3, [r4, #6]
7010b012:	b1fb      	cbz	r3, 7010b054 <encode_field+0x6c>
7010b014:	442b      	add	r3, r5
7010b016:	78a2      	ldrb	r2, [r4, #2]
7010b018:	f002 00c0 	and.w	r0, r2, #192	@ 0xc0
7010b01c:	2880      	cmp	r0, #128	@ 0x80
7010b01e:	d105      	bne.n	7010b02c <encode_field+0x44>
7010b020:	682d      	ldr	r5, [r5, #0]
7010b022:	1e29      	subs	r1, r5, #0
7010b024:	bf18      	it	ne
7010b026:	2101      	movne	r1, #1
7010b028:	f88d 1007 	strb.w	r1, [sp, #7]
7010b02c:	f002 0130 	and.w	r1, r2, #48	@ 0x30
7010b030:	2920      	cmp	r1, #32
7010b032:	d02d      	beq.n	7010b090 <encode_field+0xa8>
7010b034:	d820      	bhi.n	7010b078 <encode_field+0x90>
7010b036:	bb31      	cbnz	r1, 7010b086 <encode_field+0x9e>
7010b038:	b30d      	cbz	r5, 7010b07e <encode_field+0x96>
7010b03a:	4621      	mov	r1, r4
7010b03c:	4630      	mov	r0, r6
7010b03e:	f7ff ffba 	bl	7010afb6 <pb_encode_tag_for_field>
7010b042:	b1e0      	cbz	r0, 7010b07e <encode_field+0x96>
7010b044:	462a      	mov	r2, r5
7010b046:	4621      	mov	r1, r4
7010b048:	4630      	mov	r0, r6
7010b04a:	4643      	mov	r3, r8
7010b04c:	b006      	add	sp, #24
7010b04e:	e8bd 47f0 	ldmia.w	sp!, {r4, r5, r6, r7, r8, r9, sl, lr}
7010b052:	4718      	bx	r3
7010b054:	f002 0230 	and.w	r2, r2, #48	@ 0x30
7010b058:	2a10      	cmp	r2, #16
7010b05a:	d10b      	bne.n	7010b074 <encode_field+0x8c>
7010b05c:	4629      	mov	r1, r5
7010b05e:	4620      	mov	r0, r4
7010b060:	f7ff fe96 	bl	7010ad90 <pb_check_proto3_default_value>
7010b064:	f080 0001 	eor.w	r0, r0, #1
7010b068:	b2c0      	uxtb	r0, r0
7010b06a:	f88d 0007 	strb.w	r0, [sp, #7]
7010b06e:	f10d 0307 	add.w	r3, sp, #7
7010b072:	e7d0      	b.n	7010b016 <encode_field+0x2e>
7010b074:	2001      	movs	r0, #1
7010b076:	e7f8      	b.n	7010b06a <encode_field+0x82>
7010b078:	2930      	cmp	r1, #48	@ 0x30
7010b07a:	f000 8084 	beq.w	7010b186 <encode_field+0x19e>
7010b07e:	2000      	movs	r0, #0
7010b080:	b006      	add	sp, #24
7010b082:	e8bd 87f0 	ldmia.w	sp!, {r4, r5, r6, r7, r8, r9, sl, pc}
7010b086:	781b      	ldrb	r3, [r3, #0]
7010b088:	2b00      	cmp	r3, #0
7010b08a:	d1d6      	bne.n	7010b03a <encode_field+0x52>
7010b08c:	2001      	movs	r0, #1
7010b08e:	e7f7      	b.n	7010b080 <encode_field+0x98>
7010b090:	f9b4 1006 	ldrsh.w	r1, [r4, #6]
7010b094:	b359      	cbz	r1, 7010b0ee <encode_field+0x106>
7010b096:	881f      	ldrh	r7, [r3, #0]
7010b098:	2f00      	cmp	r7, #0
7010b09a:	d0f7      	beq.n	7010b08c <encode_field+0xa4>
7010b09c:	2880      	cmp	r0, #128	@ 0x80
7010b09e:	d002      	beq.n	7010b0a6 <encode_field+0xbe>
7010b0a0:	8963      	ldrh	r3, [r4, #10]
7010b0a2:	429f      	cmp	r7, r3
7010b0a4:	d8eb      	bhi.n	7010b07e <encode_field+0x96>
7010b0a6:	f002 020f 	and.w	r2, r2, #15
7010b0aa:	2a04      	cmp	r2, #4
7010b0ac:	d84a      	bhi.n	7010b144 <encode_field+0x15c>
7010b0ae:	2102      	movs	r1, #2
7010b0b0:	4630      	mov	r0, r6
7010b0b2:	8822      	ldrh	r2, [r4, #0]
7010b0b4:	f7ff ff74 	bl	7010afa0 <pb_encode_tag>
7010b0b8:	2800      	cmp	r0, #0
7010b0ba:	d0e0      	beq.n	7010b07e <encode_field+0x96>
7010b0bc:	78a3      	ldrb	r3, [r4, #2]
7010b0be:	f003 030f 	and.w	r3, r3, #15
7010b0c2:	2b03      	cmp	r3, #3
7010b0c4:	d115      	bne.n	7010b0f2 <encode_field+0x10a>
7010b0c6:	ea4f 0987 	mov.w	r9, r7, lsl #2
7010b0ca:	464a      	mov	r2, r9
7010b0cc:	2300      	movs	r3, #0
7010b0ce:	4630      	mov	r0, r6
7010b0d0:	f7ff fec5 	bl	7010ae5e <pb_encode_varint>
7010b0d4:	2800      	cmp	r0, #0
7010b0d6:	d0d2      	beq.n	7010b07e <encode_field+0x96>
7010b0d8:	6831      	ldr	r1, [r6, #0]
7010b0da:	f04f 0a00 	mov.w	sl, #0
7010b0de:	bb21      	cbnz	r1, 7010b12a <encode_field+0x142>
7010b0e0:	464a      	mov	r2, r9
7010b0e2:	4630      	mov	r0, r6
7010b0e4:	b006      	add	sp, #24
7010b0e6:	e8bd 47f0 	ldmia.w	sp!, {r4, r5, r6, r7, r8, r9, sl, lr}
7010b0ea:	f7ff bea3 	b.w	7010ae34 <pb_write>
7010b0ee:	8967      	ldrh	r7, [r4, #10]
7010b0f0:	e7d2      	b.n	7010b098 <encode_field+0xb0>
7010b0f2:	2b04      	cmp	r3, #4
7010b0f4:	d102      	bne.n	7010b0fc <encode_field+0x114>
7010b0f6:	ea4f 09c7 	mov.w	r9, r7, lsl #3
7010b0fa:	e7e6      	b.n	7010b0ca <encode_field+0xe2>
7010b0fc:	2210      	movs	r2, #16
7010b0fe:	2100      	movs	r1, #0
7010b100:	a802      	add	r0, sp, #8
7010b102:	f000 fc9f 	bl	7010ba44 <memset>
7010b106:	46aa      	mov	sl, r5
7010b108:	f04f 0900 	mov.w	r9, #0
7010b10c:	4652      	mov	r2, sl
7010b10e:	4621      	mov	r1, r4
7010b110:	a802      	add	r0, sp, #8
7010b112:	47c0      	blx	r8
7010b114:	2800      	cmp	r0, #0
7010b116:	d0b2      	beq.n	7010b07e <encode_field+0x96>
7010b118:	8923      	ldrh	r3, [r4, #8]
7010b11a:	f109 0901 	add.w	r9, r9, #1
7010b11e:	454f      	cmp	r7, r9
7010b120:	449a      	add	sl, r3
7010b122:	d8f3      	bhi.n	7010b10c <encode_field+0x124>
7010b124:	f8dd 9014 	ldr.w	r9, [sp, #20]
7010b128:	e7cf      	b.n	7010b0ca <encode_field+0xe2>
7010b12a:	462a      	mov	r2, r5
7010b12c:	4621      	mov	r1, r4
7010b12e:	4630      	mov	r0, r6
7010b130:	47c0      	blx	r8
7010b132:	2800      	cmp	r0, #0
7010b134:	d0a3      	beq.n	7010b07e <encode_field+0x96>
7010b136:	8923      	ldrh	r3, [r4, #8]
7010b138:	f10a 0a01 	add.w	sl, sl, #1
7010b13c:	4557      	cmp	r7, sl
7010b13e:	441d      	add	r5, r3
7010b140:	d8f3      	bhi.n	7010b12a <encode_field+0x142>
7010b142:	e7a3      	b.n	7010b08c <encode_field+0xa4>
7010b144:	f04f 0900 	mov.w	r9, #0
7010b148:	4621      	mov	r1, r4
7010b14a:	4630      	mov	r0, r6
7010b14c:	f7ff ff33 	bl	7010afb6 <pb_encode_tag_for_field>
7010b150:	2800      	cmp	r0, #0
7010b152:	d094      	beq.n	7010b07e <encode_field+0x96>
7010b154:	78a3      	ldrb	r3, [r4, #2]
7010b156:	f003 02c0 	and.w	r2, r3, #192	@ 0xc0
7010b15a:	2a80      	cmp	r2, #128	@ 0x80
7010b15c:	d111      	bne.n	7010b182 <encode_field+0x19a>
7010b15e:	f003 030f 	and.w	r3, r3, #15
7010b162:	3b05      	subs	r3, #5
7010b164:	2b01      	cmp	r3, #1
7010b166:	d80c      	bhi.n	7010b182 <encode_field+0x19a>
7010b168:	682a      	ldr	r2, [r5, #0]
7010b16a:	4621      	mov	r1, r4
7010b16c:	4630      	mov	r0, r6
7010b16e:	47c0      	blx	r8
7010b170:	2800      	cmp	r0, #0
7010b172:	d084      	beq.n	7010b07e <encode_field+0x96>
7010b174:	8923      	ldrh	r3, [r4, #8]
7010b176:	f109 0901 	add.w	r9, r9, #1
7010b17a:	454f      	cmp	r7, r9
7010b17c:	441d      	add	r5, r3
7010b17e:	d8e3      	bhi.n	7010b148 <encode_field+0x160>
7010b180:	e784      	b.n	7010b08c <encode_field+0xa4>
7010b182:	462a      	mov	r2, r5
7010b184:	e7f1      	b.n	7010b16a <encode_field+0x182>
7010b186:	881a      	ldrh	r2, [r3, #0]
7010b188:	8823      	ldrh	r3, [r4, #0]
7010b18a:	429a      	cmp	r2, r3
7010b18c:	f47f af7e 	bne.w	7010b08c <encode_field+0xa4>
7010b190:	e753      	b.n	7010b03a <encode_field+0x52>
7010b192:	682b      	ldr	r3, [r5, #0]
7010b194:	2b00      	cmp	r3, #0
7010b196:	f43f af79 	beq.w	7010b08c <encode_field+0xa4>
7010b19a:	1d2a      	adds	r2, r5, #4
7010b19c:	e756      	b.n	7010b04c <encode_field+0x64>
7010b19e:	bf00      	nop
7010b1a0:	7010fba8 	.word	0x7010fba8

7010b1a4 <pb_encode>:
7010b1a4:	b530      	push	{r4, r5, lr}
7010b1a6:	b087      	sub	sp, #28
7010b1a8:	4605      	mov	r5, r0
7010b1aa:	4668      	mov	r0, sp
7010b1ac:	f7ff f8c0 	bl	7010a330 <pb_field_iter_begin>
7010b1b0:	b910      	cbnz	r0, 7010b1b8 <pb_encode+0x14>
7010b1b2:	2001      	movs	r0, #1
7010b1b4:	b007      	add	sp, #28
7010b1b6:	bd30      	pop	{r4, r5, pc}
7010b1b8:	9901      	ldr	r1, [sp, #4]
7010b1ba:	9a04      	ldr	r2, [sp, #16]
7010b1bc:	788b      	ldrb	r3, [r1, #2]
7010b1be:	f003 030f 	and.w	r3, r3, #15
7010b1c2:	2b08      	cmp	r3, #8
7010b1c4:	d11c      	bne.n	7010b200 <pb_encode+0x5c>
7010b1c6:	6814      	ldr	r4, [r2, #0]
7010b1c8:	b91c      	cbnz	r4, 7010b1d2 <pb_encode+0x2e>
7010b1ca:	4668      	mov	r0, sp
7010b1cc:	f7ff f8c1 	bl	7010a352 <pb_field_iter_next>
7010b1d0:	e7ee      	b.n	7010b1b0 <pb_encode+0xc>
7010b1d2:	6823      	ldr	r3, [r4, #0]
7010b1d4:	685a      	ldr	r2, [r3, #4]
7010b1d6:	b12a      	cbz	r2, 7010b1e4 <pb_encode+0x40>
7010b1d8:	4621      	mov	r1, r4
7010b1da:	4628      	mov	r0, r5
7010b1dc:	4790      	blx	r2
7010b1de:	b968      	cbnz	r0, 7010b1fc <pb_encode+0x58>
7010b1e0:	2000      	movs	r0, #0
7010b1e2:	e7e7      	b.n	7010b1b4 <pb_encode+0x10>
7010b1e4:	6899      	ldr	r1, [r3, #8]
7010b1e6:	4628      	mov	r0, r5
7010b1e8:	788b      	ldrb	r3, [r1, #2]
7010b1ea:	f003 03c0 	and.w	r3, r3, #192	@ 0xc0
7010b1ee:	2b80      	cmp	r3, #128	@ 0x80
7010b1f0:	bf14      	ite	ne
7010b1f2:	6862      	ldrne	r2, [r4, #4]
7010b1f4:	1d22      	addeq	r2, r4, #4
7010b1f6:	f7ff fef7 	bl	7010afe8 <encode_field>
7010b1fa:	e7f0      	b.n	7010b1de <pb_encode+0x3a>
7010b1fc:	68a4      	ldr	r4, [r4, #8]
7010b1fe:	e7e3      	b.n	7010b1c8 <pb_encode+0x24>
7010b200:	4628      	mov	r0, r5
7010b202:	f7ff fef1 	bl	7010afe8 <encode_field>
7010b206:	2800      	cmp	r0, #0
7010b208:	d1df      	bne.n	7010b1ca <pb_encode+0x26>
7010b20a:	e7e9      	b.n	7010b1e0 <pb_encode+0x3c>

7010b20c <pb_encode_string>:
7010b20c:	b570      	push	{r4, r5, r6, lr}
7010b20e:	2300      	movs	r3, #0
7010b210:	4604      	mov	r4, r0
7010b212:	460d      	mov	r5, r1
7010b214:	4616      	mov	r6, r2
7010b216:	f7ff fe22 	bl	7010ae5e <pb_encode_varint>
7010b21a:	b130      	cbz	r0, 7010b22a <pb_encode_string+0x1e>
7010b21c:	4632      	mov	r2, r6
7010b21e:	4629      	mov	r1, r5
7010b220:	4620      	mov	r0, r4
7010b222:	e8bd 4070 	ldmia.w	sp!, {r4, r5, r6, lr}
7010b226:	f7ff be05 	b.w	7010ae34 <pb_write>
7010b22a:	bd70      	pop	{r4, r5, r6, pc}

7010b22c <pb_enc_fixed_length_bytes>:
7010b22c:	4613      	mov	r3, r2
7010b22e:	890a      	ldrh	r2, [r1, #8]
7010b230:	4619      	mov	r1, r3
7010b232:	f7ff bfeb 	b.w	7010b20c <pb_encode_string>

7010b236 <pb_enc_string>:
7010b236:	460b      	mov	r3, r1
7010b238:	4611      	mov	r1, r2
7010b23a:	b410      	push	{r4}
7010b23c:	789a      	ldrb	r2, [r3, #2]
7010b23e:	f002 02c0 	and.w	r2, r2, #192	@ 0xc0
7010b242:	2a80      	cmp	r2, #128	@ 0x80
7010b244:	bf08      	it	eq
7010b246:	f04f 33ff 	moveq.w	r3, #4294967295
7010b24a:	460a      	mov	r2, r1
7010b24c:	bf18      	it	ne
7010b24e:	891b      	ldrhne	r3, [r3, #8]
7010b250:	b129      	cbz	r1, 7010b25e <pb_enc_string+0x28>
7010b252:	2200      	movs	r2, #0
7010b254:	3301      	adds	r3, #1
7010b256:	3b01      	subs	r3, #1
7010b258:	d001      	beq.n	7010b25e <pb_enc_string+0x28>
7010b25a:	5c8c      	ldrb	r4, [r1, r2]
7010b25c:	b91c      	cbnz	r4, 7010b266 <pb_enc_string+0x30>
7010b25e:	f85d 4b04 	ldr.w	r4, [sp], #4
7010b262:	f7ff bfd3 	b.w	7010b20c <pb_encode_string>
7010b266:	3201      	adds	r2, #1
7010b268:	e7f5      	b.n	7010b256 <pb_enc_string+0x20>

7010b26a <pb_enc_bytes>:
7010b26a:	460b      	mov	r3, r1
7010b26c:	b430      	push	{r4, r5}
7010b26e:	4611      	mov	r1, r2
7010b270:	4604      	mov	r4, r0
7010b272:	b912      	cbnz	r2, 7010b27a <pb_enc_bytes+0x10>
7010b274:	bc30      	pop	{r4, r5}
7010b276:	f7ff bfc9 	b.w	7010b20c <pb_encode_string>
7010b27a:	7898      	ldrb	r0, [r3, #2]
7010b27c:	8812      	ldrh	r2, [r2, #0]
7010b27e:	283f      	cmp	r0, #63	@ 0x3f
7010b280:	d803      	bhi.n	7010b28a <pb_enc_bytes+0x20>
7010b282:	891d      	ldrh	r5, [r3, #8]
7010b284:	1c90      	adds	r0, r2, #2
7010b286:	42a8      	cmp	r0, r5
7010b288:	d802      	bhi.n	7010b290 <pb_enc_bytes+0x26>
7010b28a:	4620      	mov	r0, r4
7010b28c:	3102      	adds	r1, #2
7010b28e:	e7f1      	b.n	7010b274 <pb_enc_bytes+0xa>
7010b290:	2000      	movs	r0, #0
7010b292:	bc30      	pop	{r4, r5}
7010b294:	4770      	bx	lr

7010b296 <pb_encode_submessage>:
7010b296:	e92d 41ff 	stmdb	sp!, {r0, r1, r2, r3, r4, r5, r6, r7, r8, lr}
7010b29a:	460e      	mov	r6, r1
7010b29c:	4617      	mov	r7, r2
7010b29e:	2100      	movs	r1, #0
7010b2a0:	2210      	movs	r2, #16
7010b2a2:	4604      	mov	r4, r0
7010b2a4:	4668      	mov	r0, sp
7010b2a6:	f000 fbcd 	bl	7010ba44 <memset>
7010b2aa:	463a      	mov	r2, r7
7010b2ac:	4631      	mov	r1, r6
7010b2ae:	4668      	mov	r0, sp
7010b2b0:	f7ff ff78 	bl	7010b1a4 <pb_encode>
7010b2b4:	b918      	cbnz	r0, 7010b2be <pb_encode_submessage+0x28>
7010b2b6:	2000      	movs	r0, #0
7010b2b8:	b004      	add	sp, #16
7010b2ba:	e8bd 81f0 	ldmia.w	sp!, {r4, r5, r6, r7, r8, pc}
7010b2be:	f04f 0800 	mov.w	r8, #0
7010b2c2:	9d03      	ldr	r5, [sp, #12]
7010b2c4:	4643      	mov	r3, r8
7010b2c6:	462a      	mov	r2, r5
7010b2c8:	4620      	mov	r0, r4
7010b2ca:	f7ff fdc8 	bl	7010ae5e <pb_encode_varint>
7010b2ce:	2800      	cmp	r0, #0
7010b2d0:	d0f1      	beq.n	7010b2b6 <pb_encode_submessage+0x20>
7010b2d2:	6821      	ldr	r1, [r4, #0]
7010b2d4:	b921      	cbnz	r1, 7010b2e0 <pb_encode_submessage+0x4a>
7010b2d6:	462a      	mov	r2, r5
7010b2d8:	4620      	mov	r0, r4
7010b2da:	f7ff fdab 	bl	7010ae34 <pb_write>
7010b2de:	e7eb      	b.n	7010b2b8 <pb_encode_submessage+0x22>
7010b2e0:	68e2      	ldr	r2, [r4, #12]
7010b2e2:	68a3      	ldr	r3, [r4, #8]
7010b2e4:	442a      	add	r2, r5
7010b2e6:	429a      	cmp	r2, r3
7010b2e8:	d8e5      	bhi.n	7010b2b6 <pb_encode_submessage+0x20>
7010b2ea:	6863      	ldr	r3, [r4, #4]
7010b2ec:	463a      	mov	r2, r7
7010b2ee:	9100      	str	r1, [sp, #0]
7010b2f0:	4668      	mov	r0, sp
7010b2f2:	4631      	mov	r1, r6
7010b2f4:	e9cd 3501 	strd	r3, r5, [sp, #4]
7010b2f8:	f8cd 800c 	str.w	r8, [sp, #12]
7010b2fc:	f7ff ff52 	bl	7010b1a4 <pb_encode>
7010b300:	9a03      	ldr	r2, [sp, #12]
7010b302:	68e3      	ldr	r3, [r4, #12]
7010b304:	42aa      	cmp	r2, r5
7010b306:	bf14      	ite	ne
7010b308:	2000      	movne	r0, #0
7010b30a:	f000 0001 	andeq.w	r0, r0, #1
7010b30e:	4413      	add	r3, r2
7010b310:	60e3      	str	r3, [r4, #12]
7010b312:	9b01      	ldr	r3, [sp, #4]
7010b314:	6063      	str	r3, [r4, #4]
7010b316:	e7cf      	b.n	7010b2b8 <pb_encode_submessage+0x22>

7010b318 <pb_enc_submessage>:
7010b318:	68c9      	ldr	r1, [r1, #12]
7010b31a:	b109      	cbz	r1, 7010b320 <pb_enc_submessage+0x8>
7010b31c:	f7ff bfbb 	b.w	7010b296 <pb_encode_submessage>
7010b320:	4608      	mov	r0, r1
7010b322:	4770      	bx	lr

7010b324 <__assert_func>:
7010b324:	b51f      	push	{r0, r1, r2, r3, r4, lr}
7010b326:	4614      	mov	r4, r2
7010b328:	461a      	mov	r2, r3
7010b32a:	4b09      	ldr	r3, [pc, #36]	@ (7010b350 <__assert_func+0x2c>)
7010b32c:	4605      	mov	r5, r0
7010b32e:	681b      	ldr	r3, [r3, #0]
7010b330:	68d8      	ldr	r0, [r3, #12]
7010b332:	b14c      	cbz	r4, 7010b348 <__assert_func+0x24>
7010b334:	4b07      	ldr	r3, [pc, #28]	@ (7010b354 <__assert_func+0x30>)
7010b336:	9100      	str	r1, [sp, #0]
7010b338:	4907      	ldr	r1, [pc, #28]	@ (7010b358 <__assert_func+0x34>)
7010b33a:	e9cd 3401 	strd	r3, r4, [sp, #4]
7010b33e:	462b      	mov	r3, r5
7010b340:	f000 fa0a 	bl	7010b758 <fiprintf>
7010b344:	f000 fe1a 	bl	7010bf7c <abort>
7010b348:	4b04      	ldr	r3, [pc, #16]	@ (7010b35c <__assert_func+0x38>)
7010b34a:	461c      	mov	r4, r3
7010b34c:	e7f3      	b.n	7010b336 <__assert_func+0x12>
7010b34e:	bf00      	nop
7010b350:	34000094 	.word	0x34000094
7010b354:	7010dff5 	.word	0x7010dff5
7010b358:	7010e002 	.word	0x7010e002
7010b35c:	7010d6f8 	.word	0x7010d6f8

7010b360 <sbrk_aligned>:
7010b360:	b570      	push	{r4, r5, r6, lr}
7010b362:	4e0f      	ldr	r6, [pc, #60]	@ (7010b3a0 <sbrk_aligned+0x40>)
7010b364:	460c      	mov	r4, r1
7010b366:	4605      	mov	r5, r0
7010b368:	6831      	ldr	r1, [r6, #0]
7010b36a:	b911      	cbnz	r1, 7010b372 <sbrk_aligned+0x12>
7010b36c:	f000 fdaa 	bl	7010bec4 <_sbrk_r>
7010b370:	6030      	str	r0, [r6, #0]
7010b372:	4621      	mov	r1, r4
7010b374:	4628      	mov	r0, r5
7010b376:	f000 fda5 	bl	7010bec4 <_sbrk_r>
7010b37a:	1c43      	adds	r3, r0, #1
7010b37c:	d103      	bne.n	7010b386 <sbrk_aligned+0x26>
7010b37e:	f04f 34ff 	mov.w	r4, #4294967295
7010b382:	4620      	mov	r0, r4
7010b384:	bd70      	pop	{r4, r5, r6, pc}
7010b386:	1cc4      	adds	r4, r0, #3
7010b388:	f024 0403 	bic.w	r4, r4, #3
7010b38c:	42a0      	cmp	r0, r4
7010b38e:	d0f8      	beq.n	7010b382 <sbrk_aligned+0x22>
7010b390:	1a21      	subs	r1, r4, r0
7010b392:	4628      	mov	r0, r5
7010b394:	f000 fd96 	bl	7010bec4 <_sbrk_r>
7010b398:	3001      	adds	r0, #1
7010b39a:	d1f2      	bne.n	7010b382 <sbrk_aligned+0x22>
7010b39c:	e7ef      	b.n	7010b37e <sbrk_aligned+0x1e>
7010b39e:	bf00      	nop
7010b3a0:	34001840 	.word	0x34001840

7010b3a4 <_malloc_r>:
7010b3a4:	e92d 43f8 	stmdb	sp!, {r3, r4, r5, r6, r7, r8, r9, lr}
7010b3a8:	1ccd      	adds	r5, r1, #3
7010b3aa:	4606      	mov	r6, r0
7010b3ac:	f025 0503 	bic.w	r5, r5, #3
7010b3b0:	3508      	adds	r5, #8
7010b3b2:	2d0c      	cmp	r5, #12
7010b3b4:	bf38      	it	cc
7010b3b6:	250c      	movcc	r5, #12
7010b3b8:	2d00      	cmp	r5, #0
7010b3ba:	db01      	blt.n	7010b3c0 <_malloc_r+0x1c>
7010b3bc:	42a9      	cmp	r1, r5
7010b3be:	d904      	bls.n	7010b3ca <_malloc_r+0x26>
7010b3c0:	230c      	movs	r3, #12
7010b3c2:	6033      	str	r3, [r6, #0]
7010b3c4:	2000      	movs	r0, #0
7010b3c6:	e8bd 83f8 	ldmia.w	sp!, {r3, r4, r5, r6, r7, r8, r9, pc}
7010b3ca:	f8df 80d4 	ldr.w	r8, [pc, #212]	@ 7010b4a0 <_malloc_r+0xfc>
7010b3ce:	f000 f869 	bl	7010b4a4 <__malloc_lock>
7010b3d2:	f8d8 3000 	ldr.w	r3, [r8]
7010b3d6:	461c      	mov	r4, r3
7010b3d8:	bb44      	cbnz	r4, 7010b42c <_malloc_r+0x88>
7010b3da:	4629      	mov	r1, r5
7010b3dc:	4630      	mov	r0, r6
7010b3de:	f7ff ffbf 	bl	7010b360 <sbrk_aligned>
7010b3e2:	1c43      	adds	r3, r0, #1
7010b3e4:	4604      	mov	r4, r0
7010b3e6:	d158      	bne.n	7010b49a <_malloc_r+0xf6>
7010b3e8:	f8d8 4000 	ldr.w	r4, [r8]
7010b3ec:	4627      	mov	r7, r4
7010b3ee:	2f00      	cmp	r7, #0
7010b3f0:	d143      	bne.n	7010b47a <_malloc_r+0xd6>
7010b3f2:	2c00      	cmp	r4, #0
7010b3f4:	d04b      	beq.n	7010b48e <_malloc_r+0xea>
7010b3f6:	6823      	ldr	r3, [r4, #0]
7010b3f8:	4639      	mov	r1, r7
7010b3fa:	4630      	mov	r0, r6
7010b3fc:	eb04 0903 	add.w	r9, r4, r3
7010b400:	f000 fd60 	bl	7010bec4 <_sbrk_r>
7010b404:	4581      	cmp	r9, r0
7010b406:	d142      	bne.n	7010b48e <_malloc_r+0xea>
7010b408:	6821      	ldr	r1, [r4, #0]
7010b40a:	4630      	mov	r0, r6
7010b40c:	1a6d      	subs	r5, r5, r1
7010b40e:	4629      	mov	r1, r5
7010b410:	f7ff ffa6 	bl	7010b360 <sbrk_aligned>
7010b414:	3001      	adds	r0, #1
7010b416:	d03a      	beq.n	7010b48e <_malloc_r+0xea>
7010b418:	6823      	ldr	r3, [r4, #0]
7010b41a:	442b      	add	r3, r5
7010b41c:	6023      	str	r3, [r4, #0]
7010b41e:	f8d8 3000 	ldr.w	r3, [r8]
7010b422:	685a      	ldr	r2, [r3, #4]
7010b424:	bb62      	cbnz	r2, 7010b480 <_malloc_r+0xdc>
7010b426:	f8c8 7000 	str.w	r7, [r8]
7010b42a:	e00f      	b.n	7010b44c <_malloc_r+0xa8>
7010b42c:	6822      	ldr	r2, [r4, #0]
7010b42e:	1b52      	subs	r2, r2, r5
7010b430:	d420      	bmi.n	7010b474 <_malloc_r+0xd0>
7010b432:	2a0b      	cmp	r2, #11
7010b434:	d917      	bls.n	7010b466 <_malloc_r+0xc2>
7010b436:	1961      	adds	r1, r4, r5
7010b438:	42a3      	cmp	r3, r4
7010b43a:	6025      	str	r5, [r4, #0]
7010b43c:	bf18      	it	ne
7010b43e:	6059      	strne	r1, [r3, #4]
7010b440:	6863      	ldr	r3, [r4, #4]
7010b442:	bf08      	it	eq
7010b444:	f8c8 1000 	streq.w	r1, [r8]
7010b448:	5162      	str	r2, [r4, r5]
7010b44a:	604b      	str	r3, [r1, #4]
7010b44c:	4630      	mov	r0, r6
7010b44e:	f000 f82f 	bl	7010b4b0 <__malloc_unlock>
7010b452:	f104 000b 	add.w	r0, r4, #11
7010b456:	1d23      	adds	r3, r4, #4
7010b458:	f020 0007 	bic.w	r0, r0, #7
7010b45c:	1ac2      	subs	r2, r0, r3
7010b45e:	bf1c      	itt	ne
7010b460:	1a1b      	subne	r3, r3, r0
7010b462:	50a3      	strne	r3, [r4, r2]
7010b464:	e7af      	b.n	7010b3c6 <_malloc_r+0x22>
7010b466:	6862      	ldr	r2, [r4, #4]
7010b468:	42a3      	cmp	r3, r4
7010b46a:	bf0c      	ite	eq
7010b46c:	f8c8 2000 	streq.w	r2, [r8]
7010b470:	605a      	strne	r2, [r3, #4]
7010b472:	e7eb      	b.n	7010b44c <_malloc_r+0xa8>
7010b474:	4623      	mov	r3, r4
7010b476:	6864      	ldr	r4, [r4, #4]
7010b478:	e7ae      	b.n	7010b3d8 <_malloc_r+0x34>
7010b47a:	463c      	mov	r4, r7
7010b47c:	687f      	ldr	r7, [r7, #4]
7010b47e:	e7b6      	b.n	7010b3ee <_malloc_r+0x4a>
7010b480:	461a      	mov	r2, r3
7010b482:	685b      	ldr	r3, [r3, #4]
7010b484:	42a3      	cmp	r3, r4
7010b486:	d1fb      	bne.n	7010b480 <_malloc_r+0xdc>
7010b488:	2300      	movs	r3, #0
7010b48a:	6053      	str	r3, [r2, #4]
7010b48c:	e7de      	b.n	7010b44c <_malloc_r+0xa8>
7010b48e:	230c      	movs	r3, #12
7010b490:	4630      	mov	r0, r6
7010b492:	6033      	str	r3, [r6, #0]
7010b494:	f000 f80c 	bl	7010b4b0 <__malloc_unlock>
7010b498:	e794      	b.n	7010b3c4 <_malloc_r+0x20>
7010b49a:	6005      	str	r5, [r0, #0]
7010b49c:	e7d6      	b.n	7010b44c <_malloc_r+0xa8>
7010b49e:	bf00      	nop
7010b4a0:	34001844 	.word	0x34001844

7010b4a4 <__malloc_lock>:
7010b4a4:	4801      	ldr	r0, [pc, #4]	@ (7010b4ac <__malloc_lock+0x8>)
7010b4a6:	f000 bd5a 	b.w	7010bf5e <__retarget_lock_acquire_recursive>
7010b4aa:	bf00      	nop
7010b4ac:	34001988 	.word	0x34001988

7010b4b0 <__malloc_unlock>:
7010b4b0:	4801      	ldr	r0, [pc, #4]	@ (7010b4b8 <__malloc_unlock+0x8>)
7010b4b2:	f000 bd55 	b.w	7010bf60 <__retarget_lock_release_recursive>
7010b4b6:	bf00      	nop
7010b4b8:	34001988 	.word	0x34001988

7010b4bc <__sflush_r>:
7010b4bc:	f9b1 200c 	ldrsh.w	r2, [r1, #12]
7010b4c0:	e92d 41f0 	stmdb	sp!, {r4, r5, r6, r7, r8, lr}
7010b4c4:	0716      	lsls	r6, r2, #28
7010b4c6:	4605      	mov	r5, r0
7010b4c8:	460c      	mov	r4, r1
7010b4ca:	d451      	bmi.n	7010b570 <__sflush_r+0xb4>
7010b4cc:	684b      	ldr	r3, [r1, #4]
7010b4ce:	2b00      	cmp	r3, #0
7010b4d0:	dc02      	bgt.n	7010b4d8 <__sflush_r+0x1c>
7010b4d2:	6c0b      	ldr	r3, [r1, #64]	@ 0x40
7010b4d4:	2b00      	cmp	r3, #0
7010b4d6:	dd49      	ble.n	7010b56c <__sflush_r+0xb0>
7010b4d8:	6ae6      	ldr	r6, [r4, #44]	@ 0x2c
7010b4da:	2e00      	cmp	r6, #0
7010b4dc:	d046      	beq.n	7010b56c <__sflush_r+0xb0>
7010b4de:	2300      	movs	r3, #0
7010b4e0:	f412 5280 	ands.w	r2, r2, #4096	@ 0x1000
7010b4e4:	682f      	ldr	r7, [r5, #0]
7010b4e6:	602b      	str	r3, [r5, #0]
7010b4e8:	d031      	beq.n	7010b54e <__sflush_r+0x92>
7010b4ea:	6d62      	ldr	r2, [r4, #84]	@ 0x54
7010b4ec:	89a3      	ldrh	r3, [r4, #12]
7010b4ee:	0759      	lsls	r1, r3, #29
7010b4f0:	d505      	bpl.n	7010b4fe <__sflush_r+0x42>
7010b4f2:	6863      	ldr	r3, [r4, #4]
7010b4f4:	1ad2      	subs	r2, r2, r3
7010b4f6:	6b63      	ldr	r3, [r4, #52]	@ 0x34
7010b4f8:	b10b      	cbz	r3, 7010b4fe <__sflush_r+0x42>
7010b4fa:	6c23      	ldr	r3, [r4, #64]	@ 0x40
7010b4fc:	1ad2      	subs	r2, r2, r3
7010b4fe:	2300      	movs	r3, #0
7010b500:	6ae6      	ldr	r6, [r4, #44]	@ 0x2c
7010b502:	6a21      	ldr	r1, [r4, #32]
7010b504:	4628      	mov	r0, r5
7010b506:	47b0      	blx	r6
7010b508:	1c42      	adds	r2, r0, #1
7010b50a:	f9b4 300c 	ldrsh.w	r3, [r4, #12]
7010b50e:	d106      	bne.n	7010b51e <__sflush_r+0x62>
7010b510:	6829      	ldr	r1, [r5, #0]
7010b512:	291d      	cmp	r1, #29
7010b514:	d845      	bhi.n	7010b5a2 <__sflush_r+0xe6>
7010b516:	4a28      	ldr	r2, [pc, #160]	@ (7010b5b8 <__sflush_r+0xfc>)
7010b518:	40ca      	lsrs	r2, r1
7010b51a:	07d6      	lsls	r6, r2, #31
7010b51c:	d541      	bpl.n	7010b5a2 <__sflush_r+0xe6>
7010b51e:	2200      	movs	r2, #0
7010b520:	04d9      	lsls	r1, r3, #19
7010b522:	6062      	str	r2, [r4, #4]
7010b524:	6922      	ldr	r2, [r4, #16]
7010b526:	6022      	str	r2, [r4, #0]
7010b528:	d504      	bpl.n	7010b534 <__sflush_r+0x78>
7010b52a:	1c42      	adds	r2, r0, #1
7010b52c:	d101      	bne.n	7010b532 <__sflush_r+0x76>
7010b52e:	682b      	ldr	r3, [r5, #0]
7010b530:	b903      	cbnz	r3, 7010b534 <__sflush_r+0x78>
7010b532:	6560      	str	r0, [r4, #84]	@ 0x54
7010b534:	6b61      	ldr	r1, [r4, #52]	@ 0x34
7010b536:	602f      	str	r7, [r5, #0]
7010b538:	b1c1      	cbz	r1, 7010b56c <__sflush_r+0xb0>
7010b53a:	f104 0344 	add.w	r3, r4, #68	@ 0x44
7010b53e:	4299      	cmp	r1, r3
7010b540:	d002      	beq.n	7010b548 <__sflush_r+0x8c>
7010b542:	4628      	mov	r0, r5
7010b544:	f000 fd22 	bl	7010bf8c <_free_r>
7010b548:	2300      	movs	r3, #0
7010b54a:	6363      	str	r3, [r4, #52]	@ 0x34
7010b54c:	e00e      	b.n	7010b56c <__sflush_r+0xb0>
7010b54e:	2301      	movs	r3, #1
7010b550:	6a21      	ldr	r1, [r4, #32]
7010b552:	4628      	mov	r0, r5
7010b554:	47b0      	blx	r6
7010b556:	4602      	mov	r2, r0
7010b558:	1c50      	adds	r0, r2, #1
7010b55a:	d1c7      	bne.n	7010b4ec <__sflush_r+0x30>
7010b55c:	682b      	ldr	r3, [r5, #0]
7010b55e:	2b00      	cmp	r3, #0
7010b560:	d0c4      	beq.n	7010b4ec <__sflush_r+0x30>
7010b562:	2b1d      	cmp	r3, #29
7010b564:	d001      	beq.n	7010b56a <__sflush_r+0xae>
7010b566:	2b16      	cmp	r3, #22
7010b568:	d119      	bne.n	7010b59e <__sflush_r+0xe2>
7010b56a:	602f      	str	r7, [r5, #0]
7010b56c:	2000      	movs	r0, #0
7010b56e:	e01d      	b.n	7010b5ac <__sflush_r+0xf0>
7010b570:	690f      	ldr	r7, [r1, #16]
7010b572:	2f00      	cmp	r7, #0
7010b574:	d0fa      	beq.n	7010b56c <__sflush_r+0xb0>
7010b576:	0793      	lsls	r3, r2, #30
7010b578:	680e      	ldr	r6, [r1, #0]
7010b57a:	600f      	str	r7, [r1, #0]
7010b57c:	bf0c      	ite	eq
7010b57e:	694b      	ldreq	r3, [r1, #20]
7010b580:	2300      	movne	r3, #0
7010b582:	eba6 0807 	sub.w	r8, r6, r7
7010b586:	608b      	str	r3, [r1, #8]
7010b588:	f1b8 0f00 	cmp.w	r8, #0
7010b58c:	ddee      	ble.n	7010b56c <__sflush_r+0xb0>
7010b58e:	4643      	mov	r3, r8
7010b590:	463a      	mov	r2, r7
7010b592:	6a21      	ldr	r1, [r4, #32]
7010b594:	4628      	mov	r0, r5
7010b596:	6aa6      	ldr	r6, [r4, #40]	@ 0x28
7010b598:	47b0      	blx	r6
7010b59a:	2800      	cmp	r0, #0
7010b59c:	dc08      	bgt.n	7010b5b0 <__sflush_r+0xf4>
7010b59e:	f9b4 300c 	ldrsh.w	r3, [r4, #12]
7010b5a2:	f043 0340 	orr.w	r3, r3, #64	@ 0x40
7010b5a6:	f04f 30ff 	mov.w	r0, #4294967295
7010b5aa:	81a3      	strh	r3, [r4, #12]
7010b5ac:	e8bd 81f0 	ldmia.w	sp!, {r4, r5, r6, r7, r8, pc}
7010b5b0:	4407      	add	r7, r0
7010b5b2:	eba8 0800 	sub.w	r8, r8, r0
7010b5b6:	e7e7      	b.n	7010b588 <__sflush_r+0xcc>
7010b5b8:	20400001 	.word	0x20400001

7010b5bc <_fflush_r>:
7010b5bc:	b538      	push	{r3, r4, r5, lr}
7010b5be:	690b      	ldr	r3, [r1, #16]
7010b5c0:	4605      	mov	r5, r0
7010b5c2:	460c      	mov	r4, r1
7010b5c4:	b913      	cbnz	r3, 7010b5cc <_fflush_r+0x10>
7010b5c6:	2500      	movs	r5, #0
7010b5c8:	4628      	mov	r0, r5
7010b5ca:	bd38      	pop	{r3, r4, r5, pc}
7010b5cc:	b118      	cbz	r0, 7010b5d6 <_fflush_r+0x1a>
7010b5ce:	6a03      	ldr	r3, [r0, #32]
7010b5d0:	b90b      	cbnz	r3, 7010b5d6 <_fflush_r+0x1a>
7010b5d2:	f000 f8a9 	bl	7010b728 <__sinit>
7010b5d6:	f9b4 300c 	ldrsh.w	r3, [r4, #12]
7010b5da:	2b00      	cmp	r3, #0
7010b5dc:	d0f3      	beq.n	7010b5c6 <_fflush_r+0xa>
7010b5de:	6e62      	ldr	r2, [r4, #100]	@ 0x64
7010b5e0:	07d0      	lsls	r0, r2, #31
7010b5e2:	d404      	bmi.n	7010b5ee <_fflush_r+0x32>
7010b5e4:	0599      	lsls	r1, r3, #22
7010b5e6:	d402      	bmi.n	7010b5ee <_fflush_r+0x32>
7010b5e8:	6da0      	ldr	r0, [r4, #88]	@ 0x58
7010b5ea:	f000 fcb8 	bl	7010bf5e <__retarget_lock_acquire_recursive>
7010b5ee:	4628      	mov	r0, r5
7010b5f0:	4621      	mov	r1, r4
7010b5f2:	f7ff ff63 	bl	7010b4bc <__sflush_r>
7010b5f6:	6e63      	ldr	r3, [r4, #100]	@ 0x64
7010b5f8:	4605      	mov	r5, r0
7010b5fa:	07da      	lsls	r2, r3, #31
7010b5fc:	d4e4      	bmi.n	7010b5c8 <_fflush_r+0xc>
7010b5fe:	89a3      	ldrh	r3, [r4, #12]
7010b600:	059b      	lsls	r3, r3, #22
7010b602:	d4e1      	bmi.n	7010b5c8 <_fflush_r+0xc>
7010b604:	6da0      	ldr	r0, [r4, #88]	@ 0x58
7010b606:	f000 fcab 	bl	7010bf60 <__retarget_lock_release_recursive>
7010b60a:	e7dd      	b.n	7010b5c8 <_fflush_r+0xc>

7010b60c <std>:
7010b60c:	2300      	movs	r3, #0
7010b60e:	b510      	push	{r4, lr}
7010b610:	4604      	mov	r4, r0
7010b612:	6083      	str	r3, [r0, #8]
7010b614:	8181      	strh	r1, [r0, #12]
7010b616:	4619      	mov	r1, r3
7010b618:	6643      	str	r3, [r0, #100]	@ 0x64
7010b61a:	81c2      	strh	r2, [r0, #14]
7010b61c:	2208      	movs	r2, #8
7010b61e:	6183      	str	r3, [r0, #24]
7010b620:	e9c0 3300 	strd	r3, r3, [r0]
7010b624:	e9c0 3304 	strd	r3, r3, [r0, #16]
7010b628:	305c      	adds	r0, #92	@ 0x5c
7010b62a:	f000 fa0b 	bl	7010ba44 <memset>
7010b62e:	4b0d      	ldr	r3, [pc, #52]	@ (7010b664 <std+0x58>)
7010b630:	6224      	str	r4, [r4, #32]
7010b632:	6263      	str	r3, [r4, #36]	@ 0x24
7010b634:	4b0c      	ldr	r3, [pc, #48]	@ (7010b668 <std+0x5c>)
7010b636:	62a3      	str	r3, [r4, #40]	@ 0x28
7010b638:	4b0c      	ldr	r3, [pc, #48]	@ (7010b66c <std+0x60>)
7010b63a:	62e3      	str	r3, [r4, #44]	@ 0x2c
7010b63c:	4b0c      	ldr	r3, [pc, #48]	@ (7010b670 <std+0x64>)
7010b63e:	6323      	str	r3, [r4, #48]	@ 0x30
7010b640:	4b0c      	ldr	r3, [pc, #48]	@ (7010b674 <std+0x68>)
7010b642:	429c      	cmp	r4, r3
7010b644:	d006      	beq.n	7010b654 <std+0x48>
7010b646:	f103 0268 	add.w	r2, r3, #104	@ 0x68
7010b64a:	4294      	cmp	r4, r2
7010b64c:	d002      	beq.n	7010b654 <std+0x48>
7010b64e:	33d0      	adds	r3, #208	@ 0xd0
7010b650:	429c      	cmp	r4, r3
7010b652:	d105      	bne.n	7010b660 <std+0x54>
7010b654:	f104 0058 	add.w	r0, r4, #88	@ 0x58
7010b658:	e8bd 4010 	ldmia.w	sp!, {r4, lr}
7010b65c:	f000 bc7e 	b.w	7010bf5c <__retarget_lock_init_recursive>
7010b660:	bd10      	pop	{r4, pc}
7010b662:	bf00      	nop
7010b664:	7010b899 	.word	0x7010b899
7010b668:	7010b8bb 	.word	0x7010b8bb
7010b66c:	7010b8f3 	.word	0x7010b8f3
7010b670:	7010b919 	.word	0x7010b919
7010b674:	34001848 	.word	0x34001848

7010b678 <stdio_exit_handler>:
7010b678:	4a02      	ldr	r2, [pc, #8]	@ (7010b684 <stdio_exit_handler+0xc>)
7010b67a:	4903      	ldr	r1, [pc, #12]	@ (7010b688 <stdio_exit_handler+0x10>)
7010b67c:	4803      	ldr	r0, [pc, #12]	@ (7010b68c <stdio_exit_handler+0x14>)
7010b67e:	f000 b87d 	b.w	7010b77c <_fwalk_sglue>
7010b682:	bf00      	nop
7010b684:	34000088 	.word	0x34000088
7010b688:	7010b5bd 	.word	0x7010b5bd
7010b68c:	34000098 	.word	0x34000098

7010b690 <cleanup_stdio>:
7010b690:	6841      	ldr	r1, [r0, #4]
7010b692:	4b0c      	ldr	r3, [pc, #48]	@ (7010b6c4 <cleanup_stdio+0x34>)
7010b694:	4299      	cmp	r1, r3
7010b696:	b510      	push	{r4, lr}
7010b698:	4604      	mov	r4, r0
7010b69a:	d001      	beq.n	7010b6a0 <cleanup_stdio+0x10>
7010b69c:	f7ff ff8e 	bl	7010b5bc <_fflush_r>
7010b6a0:	68a1      	ldr	r1, [r4, #8]
7010b6a2:	4b09      	ldr	r3, [pc, #36]	@ (7010b6c8 <cleanup_stdio+0x38>)
7010b6a4:	4299      	cmp	r1, r3
7010b6a6:	d002      	beq.n	7010b6ae <cleanup_stdio+0x1e>
7010b6a8:	4620      	mov	r0, r4
7010b6aa:	f7ff ff87 	bl	7010b5bc <_fflush_r>
7010b6ae:	68e1      	ldr	r1, [r4, #12]
7010b6b0:	4b06      	ldr	r3, [pc, #24]	@ (7010b6cc <cleanup_stdio+0x3c>)
7010b6b2:	4299      	cmp	r1, r3
7010b6b4:	d004      	beq.n	7010b6c0 <cleanup_stdio+0x30>
7010b6b6:	4620      	mov	r0, r4
7010b6b8:	e8bd 4010 	ldmia.w	sp!, {r4, lr}
7010b6bc:	f7ff bf7e 	b.w	7010b5bc <_fflush_r>
7010b6c0:	bd10      	pop	{r4, pc}
7010b6c2:	bf00      	nop
7010b6c4:	34001848 	.word	0x34001848
7010b6c8:	340018b0 	.word	0x340018b0
7010b6cc:	34001918 	.word	0x34001918

7010b6d0 <global_stdio_init.part.0>:
7010b6d0:	4b0c      	ldr	r3, [pc, #48]	@ (7010b704 <global_stdio_init.part.0+0x34>)
7010b6d2:	2104      	movs	r1, #4
7010b6d4:	4a0c      	ldr	r2, [pc, #48]	@ (7010b708 <global_stdio_init.part.0+0x38>)
7010b6d6:	480d      	ldr	r0, [pc, #52]	@ (7010b70c <global_stdio_init.part.0+0x3c>)
7010b6d8:	b510      	push	{r4, lr}
7010b6da:	601a      	str	r2, [r3, #0]
7010b6dc:	2200      	movs	r2, #0
7010b6de:	f7ff ff95 	bl	7010b60c <std>
7010b6e2:	4b0a      	ldr	r3, [pc, #40]	@ (7010b70c <global_stdio_init.part.0+0x3c>)
7010b6e4:	2201      	movs	r2, #1
7010b6e6:	2109      	movs	r1, #9
7010b6e8:	461c      	mov	r4, r3
7010b6ea:	f103 0068 	add.w	r0, r3, #104	@ 0x68
7010b6ee:	f7ff ff8d 	bl	7010b60c <std>
7010b6f2:	2202      	movs	r2, #2
7010b6f4:	f104 00d0 	add.w	r0, r4, #208	@ 0xd0
7010b6f8:	2112      	movs	r1, #18
7010b6fa:	e8bd 4010 	ldmia.w	sp!, {r4, lr}
7010b6fe:	f7ff bf85 	b.w	7010b60c <std>
7010b702:	bf00      	nop
7010b704:	34001980 	.word	0x34001980
7010b708:	7010b679 	.word	0x7010b679
7010b70c:	34001848 	.word	0x34001848

7010b710 <__sfp_lock_acquire>:
7010b710:	4801      	ldr	r0, [pc, #4]	@ (7010b718 <__sfp_lock_acquire+0x8>)
7010b712:	f000 bc24 	b.w	7010bf5e <__retarget_lock_acquire_recursive>
7010b716:	bf00      	nop
7010b718:	34001989 	.word	0x34001989

7010b71c <__sfp_lock_release>:
7010b71c:	4801      	ldr	r0, [pc, #4]	@ (7010b724 <__sfp_lock_release+0x8>)
7010b71e:	f000 bc1f 	b.w	7010bf60 <__retarget_lock_release_recursive>
7010b722:	bf00      	nop
7010b724:	34001989 	.word	0x34001989

7010b728 <__sinit>:
7010b728:	b510      	push	{r4, lr}
7010b72a:	4604      	mov	r4, r0
7010b72c:	f7ff fff0 	bl	7010b710 <__sfp_lock_acquire>
7010b730:	6a23      	ldr	r3, [r4, #32]
7010b732:	b11b      	cbz	r3, 7010b73c <__sinit+0x14>
7010b734:	e8bd 4010 	ldmia.w	sp!, {r4, lr}
7010b738:	f7ff bff0 	b.w	7010b71c <__sfp_lock_release>
7010b73c:	4b04      	ldr	r3, [pc, #16]	@ (7010b750 <__sinit+0x28>)
7010b73e:	6223      	str	r3, [r4, #32]
7010b740:	4b04      	ldr	r3, [pc, #16]	@ (7010b754 <__sinit+0x2c>)
7010b742:	681b      	ldr	r3, [r3, #0]
7010b744:	2b00      	cmp	r3, #0
7010b746:	d1f5      	bne.n	7010b734 <__sinit+0xc>
7010b748:	f7ff ffc2 	bl	7010b6d0 <global_stdio_init.part.0>
7010b74c:	e7f2      	b.n	7010b734 <__sinit+0xc>
7010b74e:	bf00      	nop
7010b750:	7010b691 	.word	0x7010b691
7010b754:	34001980 	.word	0x34001980

7010b758 <fiprintf>:
7010b758:	b40e      	push	{r1, r2, r3}
7010b75a:	b503      	push	{r0, r1, lr}
7010b75c:	ab03      	add	r3, sp, #12
7010b75e:	4601      	mov	r1, r0
7010b760:	4805      	ldr	r0, [pc, #20]	@ (7010b778 <fiprintf+0x20>)
7010b762:	f853 2b04 	ldr.w	r2, [r3], #4
7010b766:	6800      	ldr	r0, [r0, #0]
7010b768:	9301      	str	r3, [sp, #4]
7010b76a:	f000 fc83 	bl	7010c074 <_vfiprintf_r>
7010b76e:	b002      	add	sp, #8
7010b770:	f85d eb04 	ldr.w	lr, [sp], #4
7010b774:	b003      	add	sp, #12
7010b776:	4770      	bx	lr
7010b778:	34000094 	.word	0x34000094

7010b77c <_fwalk_sglue>:
7010b77c:	e92d 43f8 	stmdb	sp!, {r3, r4, r5, r6, r7, r8, r9, lr}
7010b780:	4607      	mov	r7, r0
7010b782:	4688      	mov	r8, r1
7010b784:	4614      	mov	r4, r2
7010b786:	2600      	movs	r6, #0
7010b788:	e9d4 9501 	ldrd	r9, r5, [r4, #4]
7010b78c:	f1b9 0901 	subs.w	r9, r9, #1
7010b790:	d505      	bpl.n	7010b79e <_fwalk_sglue+0x22>
7010b792:	6824      	ldr	r4, [r4, #0]
7010b794:	2c00      	cmp	r4, #0
7010b796:	d1f7      	bne.n	7010b788 <_fwalk_sglue+0xc>
7010b798:	4630      	mov	r0, r6
7010b79a:	e8bd 83f8 	ldmia.w	sp!, {r3, r4, r5, r6, r7, r8, r9, pc}
7010b79e:	89ab      	ldrh	r3, [r5, #12]
7010b7a0:	2b01      	cmp	r3, #1
7010b7a2:	d907      	bls.n	7010b7b4 <_fwalk_sglue+0x38>
7010b7a4:	f9b5 300e 	ldrsh.w	r3, [r5, #14]
7010b7a8:	3301      	adds	r3, #1
7010b7aa:	d003      	beq.n	7010b7b4 <_fwalk_sglue+0x38>
7010b7ac:	4629      	mov	r1, r5
7010b7ae:	4638      	mov	r0, r7
7010b7b0:	47c0      	blx	r8
7010b7b2:	4306      	orrs	r6, r0
7010b7b4:	3568      	adds	r5, #104	@ 0x68
7010b7b6:	e7e9      	b.n	7010b78c <_fwalk_sglue+0x10>

7010b7b8 <iprintf>:
7010b7b8:	b40f      	push	{r0, r1, r2, r3}
7010b7ba:	b507      	push	{r0, r1, r2, lr}
7010b7bc:	4906      	ldr	r1, [pc, #24]	@ (7010b7d8 <iprintf+0x20>)
7010b7be:	ab04      	add	r3, sp, #16
7010b7c0:	6808      	ldr	r0, [r1, #0]
7010b7c2:	f853 2b04 	ldr.w	r2, [r3], #4
7010b7c6:	6881      	ldr	r1, [r0, #8]
7010b7c8:	9301      	str	r3, [sp, #4]
7010b7ca:	f000 fc53 	bl	7010c074 <_vfiprintf_r>
7010b7ce:	b003      	add	sp, #12
7010b7d0:	f85d eb04 	ldr.w	lr, [sp], #4
7010b7d4:	b004      	add	sp, #16
7010b7d6:	4770      	bx	lr
7010b7d8:	34000094 	.word	0x34000094

7010b7dc <_puts_r>:
7010b7dc:	6a03      	ldr	r3, [r0, #32]
7010b7de:	b570      	push	{r4, r5, r6, lr}
7010b7e0:	4605      	mov	r5, r0
7010b7e2:	460e      	mov	r6, r1
7010b7e4:	6884      	ldr	r4, [r0, #8]
7010b7e6:	b90b      	cbnz	r3, 7010b7ec <_puts_r+0x10>
7010b7e8:	f7ff ff9e 	bl	7010b728 <__sinit>
7010b7ec:	6e63      	ldr	r3, [r4, #100]	@ 0x64
7010b7ee:	07db      	lsls	r3, r3, #31
7010b7f0:	d405      	bmi.n	7010b7fe <_puts_r+0x22>
7010b7f2:	89a3      	ldrh	r3, [r4, #12]
7010b7f4:	0598      	lsls	r0, r3, #22
7010b7f6:	d402      	bmi.n	7010b7fe <_puts_r+0x22>
7010b7f8:	6da0      	ldr	r0, [r4, #88]	@ 0x58
7010b7fa:	f000 fbb0 	bl	7010bf5e <__retarget_lock_acquire_recursive>
7010b7fe:	89a3      	ldrh	r3, [r4, #12]
7010b800:	0719      	lsls	r1, r3, #28
7010b802:	d502      	bpl.n	7010b80a <_puts_r+0x2e>
7010b804:	6923      	ldr	r3, [r4, #16]
7010b806:	2b00      	cmp	r3, #0
7010b808:	d135      	bne.n	7010b876 <_puts_r+0x9a>
7010b80a:	4621      	mov	r1, r4
7010b80c:	4628      	mov	r0, r5
7010b80e:	f000 f8c5 	bl	7010b99c <__swsetup_r>
7010b812:	b380      	cbz	r0, 7010b876 <_puts_r+0x9a>
7010b814:	f04f 35ff 	mov.w	r5, #4294967295
7010b818:	6e63      	ldr	r3, [r4, #100]	@ 0x64
7010b81a:	07da      	lsls	r2, r3, #31
7010b81c:	d405      	bmi.n	7010b82a <_puts_r+0x4e>
7010b81e:	89a3      	ldrh	r3, [r4, #12]
7010b820:	059b      	lsls	r3, r3, #22
7010b822:	d402      	bmi.n	7010b82a <_puts_r+0x4e>
7010b824:	6da0      	ldr	r0, [r4, #88]	@ 0x58
7010b826:	f000 fb9b 	bl	7010bf60 <__retarget_lock_release_recursive>
7010b82a:	4628      	mov	r0, r5
7010b82c:	bd70      	pop	{r4, r5, r6, pc}
7010b82e:	2b00      	cmp	r3, #0
7010b830:	da04      	bge.n	7010b83c <_puts_r+0x60>
7010b832:	69a2      	ldr	r2, [r4, #24]
7010b834:	4293      	cmp	r3, r2
7010b836:	db17      	blt.n	7010b868 <_puts_r+0x8c>
7010b838:	290a      	cmp	r1, #10
7010b83a:	d015      	beq.n	7010b868 <_puts_r+0x8c>
7010b83c:	6823      	ldr	r3, [r4, #0]
7010b83e:	1c5a      	adds	r2, r3, #1
7010b840:	6022      	str	r2, [r4, #0]
7010b842:	7019      	strb	r1, [r3, #0]
7010b844:	68a3      	ldr	r3, [r4, #8]
7010b846:	f816 1f01 	ldrb.w	r1, [r6, #1]!
7010b84a:	3b01      	subs	r3, #1
7010b84c:	60a3      	str	r3, [r4, #8]
7010b84e:	2900      	cmp	r1, #0
7010b850:	d1ed      	bne.n	7010b82e <_puts_r+0x52>
7010b852:	2b00      	cmp	r3, #0
7010b854:	da11      	bge.n	7010b87a <_puts_r+0x9e>
7010b856:	4622      	mov	r2, r4
7010b858:	210a      	movs	r1, #10
7010b85a:	4628      	mov	r0, r5
7010b85c:	f000 f860 	bl	7010b920 <__swbuf_r>
7010b860:	3001      	adds	r0, #1
7010b862:	d0d7      	beq.n	7010b814 <_puts_r+0x38>
7010b864:	250a      	movs	r5, #10
7010b866:	e7d7      	b.n	7010b818 <_puts_r+0x3c>
7010b868:	4622      	mov	r2, r4
7010b86a:	4628      	mov	r0, r5
7010b86c:	f000 f858 	bl	7010b920 <__swbuf_r>
7010b870:	3001      	adds	r0, #1
7010b872:	d1e7      	bne.n	7010b844 <_puts_r+0x68>
7010b874:	e7ce      	b.n	7010b814 <_puts_r+0x38>
7010b876:	3e01      	subs	r6, #1
7010b878:	e7e4      	b.n	7010b844 <_puts_r+0x68>
7010b87a:	6823      	ldr	r3, [r4, #0]
7010b87c:	1c5a      	adds	r2, r3, #1
7010b87e:	6022      	str	r2, [r4, #0]
7010b880:	220a      	movs	r2, #10
7010b882:	701a      	strb	r2, [r3, #0]
7010b884:	e7ee      	b.n	7010b864 <_puts_r+0x88>
	...

7010b888 <puts>:
7010b888:	4b02      	ldr	r3, [pc, #8]	@ (7010b894 <puts+0xc>)
7010b88a:	4601      	mov	r1, r0
7010b88c:	6818      	ldr	r0, [r3, #0]
7010b88e:	f7ff bfa5 	b.w	7010b7dc <_puts_r>
7010b892:	bf00      	nop
7010b894:	34000094 	.word	0x34000094

7010b898 <__sread>:
7010b898:	b510      	push	{r4, lr}
7010b89a:	460c      	mov	r4, r1
7010b89c:	f9b1 100e 	ldrsh.w	r1, [r1, #14]
7010b8a0:	f000 fafe 	bl	7010bea0 <_read_r>
7010b8a4:	2800      	cmp	r0, #0
7010b8a6:	bfab      	itete	ge
7010b8a8:	6d63      	ldrge	r3, [r4, #84]	@ 0x54
7010b8aa:	89a3      	ldrhlt	r3, [r4, #12]
7010b8ac:	181b      	addge	r3, r3, r0
7010b8ae:	f423 5380 	biclt.w	r3, r3, #4096	@ 0x1000
7010b8b2:	bfac      	ite	ge
7010b8b4:	6563      	strge	r3, [r4, #84]	@ 0x54
7010b8b6:	81a3      	strhlt	r3, [r4, #12]
7010b8b8:	bd10      	pop	{r4, pc}

7010b8ba <__swrite>:
7010b8ba:	e92d 41f0 	stmdb	sp!, {r4, r5, r6, r7, r8, lr}
7010b8be:	461f      	mov	r7, r3
7010b8c0:	898b      	ldrh	r3, [r1, #12]
7010b8c2:	4605      	mov	r5, r0
7010b8c4:	460c      	mov	r4, r1
7010b8c6:	05db      	lsls	r3, r3, #23
7010b8c8:	4616      	mov	r6, r2
7010b8ca:	d505      	bpl.n	7010b8d8 <__swrite+0x1e>
7010b8cc:	2302      	movs	r3, #2
7010b8ce:	2200      	movs	r2, #0
7010b8d0:	f9b1 100e 	ldrsh.w	r1, [r1, #14]
7010b8d4:	f000 fad2 	bl	7010be7c <_lseek_r>
7010b8d8:	89a3      	ldrh	r3, [r4, #12]
7010b8da:	4632      	mov	r2, r6
7010b8dc:	f9b4 100e 	ldrsh.w	r1, [r4, #14]
7010b8e0:	4628      	mov	r0, r5
7010b8e2:	f423 5380 	bic.w	r3, r3, #4096	@ 0x1000
7010b8e6:	81a3      	strh	r3, [r4, #12]
7010b8e8:	463b      	mov	r3, r7
7010b8ea:	e8bd 41f0 	ldmia.w	sp!, {r4, r5, r6, r7, r8, lr}
7010b8ee:	f000 baf9 	b.w	7010bee4 <_write_r>

7010b8f2 <__sseek>:
7010b8f2:	b510      	push	{r4, lr}
7010b8f4:	460c      	mov	r4, r1
7010b8f6:	f9b1 100e 	ldrsh.w	r1, [r1, #14]
7010b8fa:	f000 fabf 	bl	7010be7c <_lseek_r>
7010b8fe:	1c42      	adds	r2, r0, #1
7010b900:	f9b4 300c 	ldrsh.w	r3, [r4, #12]
7010b904:	bf15      	itete	ne
7010b906:	6560      	strne	r0, [r4, #84]	@ 0x54
7010b908:	f423 5380 	biceq.w	r3, r3, #4096	@ 0x1000
7010b90c:	f443 5380 	orrne.w	r3, r3, #4096	@ 0x1000
7010b910:	81a3      	strheq	r3, [r4, #12]
7010b912:	bf18      	it	ne
7010b914:	81a3      	strhne	r3, [r4, #12]
7010b916:	bd10      	pop	{r4, pc}

7010b918 <__sclose>:
7010b918:	f9b1 100e 	ldrsh.w	r1, [r1, #14]
7010b91c:	f000 ba9e 	b.w	7010be5c <_close_r>

7010b920 <__swbuf_r>:
7010b920:	b5f8      	push	{r3, r4, r5, r6, r7, lr}
7010b922:	460e      	mov	r6, r1
7010b924:	4614      	mov	r4, r2
7010b926:	4605      	mov	r5, r0
7010b928:	b118      	cbz	r0, 7010b932 <__swbuf_r+0x12>
7010b92a:	6a03      	ldr	r3, [r0, #32]
7010b92c:	b90b      	cbnz	r3, 7010b932 <__swbuf_r+0x12>
7010b92e:	f7ff fefb 	bl	7010b728 <__sinit>
7010b932:	69a3      	ldr	r3, [r4, #24]
7010b934:	60a3      	str	r3, [r4, #8]
7010b936:	89a3      	ldrh	r3, [r4, #12]
7010b938:	071a      	lsls	r2, r3, #28
7010b93a:	d501      	bpl.n	7010b940 <__swbuf_r+0x20>
7010b93c:	6923      	ldr	r3, [r4, #16]
7010b93e:	b943      	cbnz	r3, 7010b952 <__swbuf_r+0x32>
7010b940:	4621      	mov	r1, r4
7010b942:	4628      	mov	r0, r5
7010b944:	f000 f82a 	bl	7010b99c <__swsetup_r>
7010b948:	b118      	cbz	r0, 7010b952 <__swbuf_r+0x32>
7010b94a:	f04f 37ff 	mov.w	r7, #4294967295
7010b94e:	4638      	mov	r0, r7
7010b950:	bdf8      	pop	{r3, r4, r5, r6, r7, pc}
7010b952:	6823      	ldr	r3, [r4, #0]
7010b954:	b2f6      	uxtb	r6, r6
7010b956:	6922      	ldr	r2, [r4, #16]
7010b958:	4637      	mov	r7, r6
7010b95a:	1a98      	subs	r0, r3, r2
7010b95c:	6963      	ldr	r3, [r4, #20]
7010b95e:	4283      	cmp	r3, r0
7010b960:	dc05      	bgt.n	7010b96e <__swbuf_r+0x4e>
7010b962:	4621      	mov	r1, r4
7010b964:	4628      	mov	r0, r5
7010b966:	f7ff fe29 	bl	7010b5bc <_fflush_r>
7010b96a:	2800      	cmp	r0, #0
7010b96c:	d1ed      	bne.n	7010b94a <__swbuf_r+0x2a>
7010b96e:	68a3      	ldr	r3, [r4, #8]
7010b970:	3b01      	subs	r3, #1
7010b972:	60a3      	str	r3, [r4, #8]
7010b974:	6823      	ldr	r3, [r4, #0]
7010b976:	1c5a      	adds	r2, r3, #1
7010b978:	6022      	str	r2, [r4, #0]
7010b97a:	701e      	strb	r6, [r3, #0]
7010b97c:	1c43      	adds	r3, r0, #1
7010b97e:	6962      	ldr	r2, [r4, #20]
7010b980:	429a      	cmp	r2, r3
7010b982:	d004      	beq.n	7010b98e <__swbuf_r+0x6e>
7010b984:	89a3      	ldrh	r3, [r4, #12]
7010b986:	07db      	lsls	r3, r3, #31
7010b988:	d5e1      	bpl.n	7010b94e <__swbuf_r+0x2e>
7010b98a:	2e0a      	cmp	r6, #10
7010b98c:	d1df      	bne.n	7010b94e <__swbuf_r+0x2e>
7010b98e:	4621      	mov	r1, r4
7010b990:	4628      	mov	r0, r5
7010b992:	f7ff fe13 	bl	7010b5bc <_fflush_r>
7010b996:	2800      	cmp	r0, #0
7010b998:	d0d9      	beq.n	7010b94e <__swbuf_r+0x2e>
7010b99a:	e7d6      	b.n	7010b94a <__swbuf_r+0x2a>

7010b99c <__swsetup_r>:
7010b99c:	b538      	push	{r3, r4, r5, lr}
7010b99e:	4b28      	ldr	r3, [pc, #160]	@ (7010ba40 <__swsetup_r+0xa4>)
7010b9a0:	4605      	mov	r5, r0
7010b9a2:	460c      	mov	r4, r1
7010b9a4:	6818      	ldr	r0, [r3, #0]
7010b9a6:	b118      	cbz	r0, 7010b9b0 <__swsetup_r+0x14>
7010b9a8:	6a03      	ldr	r3, [r0, #32]
7010b9aa:	b90b      	cbnz	r3, 7010b9b0 <__swsetup_r+0x14>
7010b9ac:	f7ff febc 	bl	7010b728 <__sinit>
7010b9b0:	f9b4 300c 	ldrsh.w	r3, [r4, #12]
7010b9b4:	071a      	lsls	r2, r3, #28
7010b9b6:	d421      	bmi.n	7010b9fc <__swsetup_r+0x60>
7010b9b8:	06d8      	lsls	r0, r3, #27
7010b9ba:	d407      	bmi.n	7010b9cc <__swsetup_r+0x30>
7010b9bc:	2209      	movs	r2, #9
7010b9be:	602a      	str	r2, [r5, #0]
7010b9c0:	f043 0340 	orr.w	r3, r3, #64	@ 0x40
7010b9c4:	f04f 30ff 	mov.w	r0, #4294967295
7010b9c8:	81a3      	strh	r3, [r4, #12]
7010b9ca:	e030      	b.n	7010ba2e <__swsetup_r+0x92>
7010b9cc:	0759      	lsls	r1, r3, #29
7010b9ce:	d512      	bpl.n	7010b9f6 <__swsetup_r+0x5a>
7010b9d0:	6b61      	ldr	r1, [r4, #52]	@ 0x34
7010b9d2:	b141      	cbz	r1, 7010b9e6 <__swsetup_r+0x4a>
7010b9d4:	f104 0344 	add.w	r3, r4, #68	@ 0x44
7010b9d8:	4299      	cmp	r1, r3
7010b9da:	d002      	beq.n	7010b9e2 <__swsetup_r+0x46>
7010b9dc:	4628      	mov	r0, r5
7010b9de:	f000 fad5 	bl	7010bf8c <_free_r>
7010b9e2:	2300      	movs	r3, #0
7010b9e4:	6363      	str	r3, [r4, #52]	@ 0x34
7010b9e6:	2200      	movs	r2, #0
7010b9e8:	f9b4 300c 	ldrsh.w	r3, [r4, #12]
7010b9ec:	6062      	str	r2, [r4, #4]
7010b9ee:	f023 0324 	bic.w	r3, r3, #36	@ 0x24
7010b9f2:	6922      	ldr	r2, [r4, #16]
7010b9f4:	6022      	str	r2, [r4, #0]
7010b9f6:	f043 0308 	orr.w	r3, r3, #8
7010b9fa:	81a3      	strh	r3, [r4, #12]
7010b9fc:	6922      	ldr	r2, [r4, #16]
7010b9fe:	b93a      	cbnz	r2, 7010ba10 <__swsetup_r+0x74>
7010ba00:	059a      	lsls	r2, r3, #22
7010ba02:	d501      	bpl.n	7010ba08 <__swsetup_r+0x6c>
7010ba04:	0618      	lsls	r0, r3, #24
7010ba06:	d503      	bpl.n	7010ba10 <__swsetup_r+0x74>
7010ba08:	4621      	mov	r1, r4
7010ba0a:	4628      	mov	r0, r5
7010ba0c:	f000 fe02 	bl	7010c614 <__smakebuf_r>
7010ba10:	f9b4 300c 	ldrsh.w	r3, [r4, #12]
7010ba14:	f013 0201 	ands.w	r2, r3, #1
7010ba18:	d00a      	beq.n	7010ba30 <__swsetup_r+0x94>
7010ba1a:	2200      	movs	r2, #0
7010ba1c:	60a2      	str	r2, [r4, #8]
7010ba1e:	6962      	ldr	r2, [r4, #20]
7010ba20:	4252      	negs	r2, r2
7010ba22:	61a2      	str	r2, [r4, #24]
7010ba24:	6922      	ldr	r2, [r4, #16]
7010ba26:	b942      	cbnz	r2, 7010ba3a <__swsetup_r+0x9e>
7010ba28:	f013 0080 	ands.w	r0, r3, #128	@ 0x80
7010ba2c:	d1c8      	bne.n	7010b9c0 <__swsetup_r+0x24>
7010ba2e:	bd38      	pop	{r3, r4, r5, pc}
7010ba30:	0799      	lsls	r1, r3, #30
7010ba32:	bf58      	it	pl
7010ba34:	6962      	ldrpl	r2, [r4, #20]
7010ba36:	60a2      	str	r2, [r4, #8]
7010ba38:	e7f4      	b.n	7010ba24 <__swsetup_r+0x88>
7010ba3a:	2000      	movs	r0, #0
7010ba3c:	e7f7      	b.n	7010ba2e <__swsetup_r+0x92>
7010ba3e:	bf00      	nop
7010ba40:	34000094 	.word	0x34000094

7010ba44 <memset>:
7010ba44:	4402      	add	r2, r0
7010ba46:	4603      	mov	r3, r0
7010ba48:	4293      	cmp	r3, r2
7010ba4a:	d100      	bne.n	7010ba4e <memset+0xa>
7010ba4c:	4770      	bx	lr
7010ba4e:	f803 1b01 	strb.w	r1, [r3], #1
7010ba52:	e7f9      	b.n	7010ba48 <memset+0x4>

7010ba54 <_strerror_r>:
7010ba54:	b510      	push	{r4, lr}
7010ba56:	4604      	mov	r4, r0
7010ba58:	4608      	mov	r0, r1
7010ba5a:	4611      	mov	r1, r2
7010ba5c:	461a      	mov	r2, r3
7010ba5e:	288e      	cmp	r0, #142	@ 0x8e
7010ba60:	f200 8130 	bhi.w	7010bcc4 <_strerror_r+0x270>
7010ba64:	e8df f010 	tbh	[pc, r0, lsl #1]
7010ba68:	0138008f 	.word	0x0138008f
7010ba6c:	00940092 	.word	0x00940092
7010ba70:	00980096 	.word	0x00980096
7010ba74:	009c009a 	.word	0x009c009a
7010ba78:	00a2009e 	.word	0x00a2009e
7010ba7c:	00a800a4 	.word	0x00a800a4
7010ba80:	00ac00aa 	.word	0x00ac00aa
7010ba84:	012e00ae 	.word	0x012e00ae
7010ba88:	00b200b0 	.word	0x00b200b0
7010ba8c:	00b600b4 	.word	0x00b600b4
7010ba90:	00be00b8 	.word	0x00be00b8
7010ba94:	00c600c0 	.word	0x00c600c0
7010ba98:	00ca00c8 	.word	0x00ca00c8
7010ba9c:	00ce00cc 	.word	0x00ce00cc
7010baa0:	00d600d2 	.word	0x00d600d2
7010baa4:	00da00d8 	.word	0x00da00d8
7010baa8:	00de00dc 	.word	0x00de00dc
7010baac:	00e200e0 	.word	0x00e200e0
7010bab0:	012e00e4 	.word	0x012e00e4
7010bab4:	012e012e 	.word	0x012e012e
7010bab8:	012e012e 	.word	0x012e012e
7010babc:	012e012e 	.word	0x012e012e
7010bac0:	00e8012e 	.word	0x00e8012e
7010bac4:	012e00ec 	.word	0x012e00ec
7010bac8:	012e012e 	.word	0x012e012e
7010bacc:	012e012e 	.word	0x012e012e
7010bad0:	012e012e 	.word	0x012e012e
7010bad4:	012e012e 	.word	0x012e012e
7010bad8:	012e012e 	.word	0x012e012e
7010badc:	012e012e 	.word	0x012e012e
7010bae0:	010800ee 	.word	0x010800ee
7010bae4:	00f200f0 	.word	0x00f200f0
7010bae8:	012e012e 	.word	0x012e012e
7010baec:	00f4012e 	.word	0x00f4012e
7010baf0:	012e012e 	.word	0x012e012e
7010baf4:	00f6012e 	.word	0x00f6012e
7010baf8:	012e012e 	.word	0x012e012e
7010bafc:	012e00fa 	.word	0x012e00fa
7010bb00:	00fc012e 	.word	0x00fc012e
7010bb04:	012e012e 	.word	0x012e012e
7010bb08:	012e012e 	.word	0x012e012e
7010bb0c:	012e012e 	.word	0x012e012e
7010bb10:	012e012e 	.word	0x012e012e
7010bb14:	012e012e 	.word	0x012e012e
7010bb18:	012e00fe 	.word	0x012e00fe
7010bb1c:	01020100 	.word	0x01020100
7010bb20:	012e0104 	.word	0x012e0104
7010bb24:	0126012e 	.word	0x0126012e
7010bb28:	012e012e 	.word	0x012e012e
7010bb2c:	012e012e 	.word	0x012e012e
7010bb30:	012e012e 	.word	0x012e012e
7010bb34:	012e012e 	.word	0x012e012e
7010bb38:	01060114 	.word	0x01060114
7010bb3c:	010c010a 	.word	0x010c010a
7010bb40:	0110010e 	.word	0x0110010e
7010bb44:	0112012e 	.word	0x0112012e
7010bb48:	011a0116 	.word	0x011a0116
7010bb4c:	00c200ea 	.word	0x00c200ea
7010bb50:	00ba012c 	.word	0x00ba012c
7010bb54:	00bc00d0 	.word	0x00bc00d0
7010bb58:	00a600a0 	.word	0x00a600a0
7010bb5c:	00f8012a 	.word	0x00f8012a
7010bb60:	0118012e 	.word	0x0118012e
7010bb64:	011e00c4 	.word	0x011e00c4
7010bb68:	012e011c 	.word	0x012e011c
7010bb6c:	012e012e 	.word	0x012e012e
7010bb70:	012e012e 	.word	0x012e012e
7010bb74:	012e00d4 	.word	0x012e00d4
7010bb78:	012e012e 	.word	0x012e012e
7010bb7c:	012800e6 	.word	0x012800e6
7010bb80:	01220120 	.word	0x01220120
7010bb84:	0124      	.short	0x0124
7010bb86:	4b55      	ldr	r3, [pc, #340]	@ (7010bcdc <_strerror_r+0x288>)
7010bb88:	4618      	mov	r0, r3
7010bb8a:	bd10      	pop	{r4, pc}
7010bb8c:	4b54      	ldr	r3, [pc, #336]	@ (7010bce0 <_strerror_r+0x28c>)
7010bb8e:	e7fb      	b.n	7010bb88 <_strerror_r+0x134>
7010bb90:	4b54      	ldr	r3, [pc, #336]	@ (7010bce4 <_strerror_r+0x290>)
7010bb92:	e7f9      	b.n	7010bb88 <_strerror_r+0x134>
7010bb94:	4b54      	ldr	r3, [pc, #336]	@ (7010bce8 <_strerror_r+0x294>)
7010bb96:	e7f7      	b.n	7010bb88 <_strerror_r+0x134>
7010bb98:	4b54      	ldr	r3, [pc, #336]	@ (7010bcec <_strerror_r+0x298>)
7010bb9a:	e7f5      	b.n	7010bb88 <_strerror_r+0x134>
7010bb9c:	4b54      	ldr	r3, [pc, #336]	@ (7010bcf0 <_strerror_r+0x29c>)
7010bb9e:	e7f3      	b.n	7010bb88 <_strerror_r+0x134>
7010bba0:	4b54      	ldr	r3, [pc, #336]	@ (7010bcf4 <_strerror_r+0x2a0>)
7010bba2:	e7f1      	b.n	7010bb88 <_strerror_r+0x134>
7010bba4:	4b54      	ldr	r3, [pc, #336]	@ (7010bcf8 <_strerror_r+0x2a4>)
7010bba6:	e7ef      	b.n	7010bb88 <_strerror_r+0x134>
7010bba8:	4b54      	ldr	r3, [pc, #336]	@ (7010bcfc <_strerror_r+0x2a8>)
7010bbaa:	e7ed      	b.n	7010bb88 <_strerror_r+0x134>
7010bbac:	4b54      	ldr	r3, [pc, #336]	@ (7010bd00 <_strerror_r+0x2ac>)
7010bbae:	e7eb      	b.n	7010bb88 <_strerror_r+0x134>
7010bbb0:	4b54      	ldr	r3, [pc, #336]	@ (7010bd04 <_strerror_r+0x2b0>)
7010bbb2:	e7e9      	b.n	7010bb88 <_strerror_r+0x134>
7010bbb4:	4b54      	ldr	r3, [pc, #336]	@ (7010bd08 <_strerror_r+0x2b4>)
7010bbb6:	e7e7      	b.n	7010bb88 <_strerror_r+0x134>
7010bbb8:	4b54      	ldr	r3, [pc, #336]	@ (7010bd0c <_strerror_r+0x2b8>)
7010bbba:	e7e5      	b.n	7010bb88 <_strerror_r+0x134>
7010bbbc:	4b54      	ldr	r3, [pc, #336]	@ (7010bd10 <_strerror_r+0x2bc>)
7010bbbe:	e7e3      	b.n	7010bb88 <_strerror_r+0x134>
7010bbc0:	4b54      	ldr	r3, [pc, #336]	@ (7010bd14 <_strerror_r+0x2c0>)
7010bbc2:	e7e1      	b.n	7010bb88 <_strerror_r+0x134>
7010bbc4:	4b54      	ldr	r3, [pc, #336]	@ (7010bd18 <_strerror_r+0x2c4>)
7010bbc6:	e7df      	b.n	7010bb88 <_strerror_r+0x134>
7010bbc8:	4b54      	ldr	r3, [pc, #336]	@ (7010bd1c <_strerror_r+0x2c8>)
7010bbca:	e7dd      	b.n	7010bb88 <_strerror_r+0x134>
7010bbcc:	4b54      	ldr	r3, [pc, #336]	@ (7010bd20 <_strerror_r+0x2cc>)
7010bbce:	e7db      	b.n	7010bb88 <_strerror_r+0x134>
7010bbd0:	4b54      	ldr	r3, [pc, #336]	@ (7010bd24 <_strerror_r+0x2d0>)
7010bbd2:	e7d9      	b.n	7010bb88 <_strerror_r+0x134>
7010bbd4:	4b54      	ldr	r3, [pc, #336]	@ (7010bd28 <_strerror_r+0x2d4>)
7010bbd6:	e7d7      	b.n	7010bb88 <_strerror_r+0x134>
7010bbd8:	4b54      	ldr	r3, [pc, #336]	@ (7010bd2c <_strerror_r+0x2d8>)
7010bbda:	e7d5      	b.n	7010bb88 <_strerror_r+0x134>
7010bbdc:	4b54      	ldr	r3, [pc, #336]	@ (7010bd30 <_strerror_r+0x2dc>)
7010bbde:	e7d3      	b.n	7010bb88 <_strerror_r+0x134>
7010bbe0:	4b54      	ldr	r3, [pc, #336]	@ (7010bd34 <_strerror_r+0x2e0>)
7010bbe2:	e7d1      	b.n	7010bb88 <_strerror_r+0x134>
7010bbe4:	4b54      	ldr	r3, [pc, #336]	@ (7010bd38 <_strerror_r+0x2e4>)
7010bbe6:	e7cf      	b.n	7010bb88 <_strerror_r+0x134>
7010bbe8:	4b54      	ldr	r3, [pc, #336]	@ (7010bd3c <_strerror_r+0x2e8>)
7010bbea:	e7cd      	b.n	7010bb88 <_strerror_r+0x134>
7010bbec:	4b54      	ldr	r3, [pc, #336]	@ (7010bd40 <_strerror_r+0x2ec>)
7010bbee:	e7cb      	b.n	7010bb88 <_strerror_r+0x134>
7010bbf0:	4b54      	ldr	r3, [pc, #336]	@ (7010bd44 <_strerror_r+0x2f0>)
7010bbf2:	e7c9      	b.n	7010bb88 <_strerror_r+0x134>
7010bbf4:	4b54      	ldr	r3, [pc, #336]	@ (7010bd48 <_strerror_r+0x2f4>)
7010bbf6:	e7c7      	b.n	7010bb88 <_strerror_r+0x134>
7010bbf8:	4b54      	ldr	r3, [pc, #336]	@ (7010bd4c <_strerror_r+0x2f8>)
7010bbfa:	e7c5      	b.n	7010bb88 <_strerror_r+0x134>
7010bbfc:	4b54      	ldr	r3, [pc, #336]	@ (7010bd50 <_strerror_r+0x2fc>)
7010bbfe:	e7c3      	b.n	7010bb88 <_strerror_r+0x134>
7010bc00:	4b54      	ldr	r3, [pc, #336]	@ (7010bd54 <_strerror_r+0x300>)
7010bc02:	e7c1      	b.n	7010bb88 <_strerror_r+0x134>
7010bc04:	4b54      	ldr	r3, [pc, #336]	@ (7010bd58 <_strerror_r+0x304>)
7010bc06:	e7bf      	b.n	7010bb88 <_strerror_r+0x134>
7010bc08:	4b54      	ldr	r3, [pc, #336]	@ (7010bd5c <_strerror_r+0x308>)
7010bc0a:	e7bd      	b.n	7010bb88 <_strerror_r+0x134>
7010bc0c:	4b54      	ldr	r3, [pc, #336]	@ (7010bd60 <_strerror_r+0x30c>)
7010bc0e:	e7bb      	b.n	7010bb88 <_strerror_r+0x134>
7010bc10:	4b54      	ldr	r3, [pc, #336]	@ (7010bd64 <_strerror_r+0x310>)
7010bc12:	e7b9      	b.n	7010bb88 <_strerror_r+0x134>
7010bc14:	4b54      	ldr	r3, [pc, #336]	@ (7010bd68 <_strerror_r+0x314>)
7010bc16:	e7b7      	b.n	7010bb88 <_strerror_r+0x134>
7010bc18:	4b54      	ldr	r3, [pc, #336]	@ (7010bd6c <_strerror_r+0x318>)
7010bc1a:	e7b5      	b.n	7010bb88 <_strerror_r+0x134>
7010bc1c:	4b54      	ldr	r3, [pc, #336]	@ (7010bd70 <_strerror_r+0x31c>)
7010bc1e:	e7b3      	b.n	7010bb88 <_strerror_r+0x134>
7010bc20:	4b54      	ldr	r3, [pc, #336]	@ (7010bd74 <_strerror_r+0x320>)
7010bc22:	e7b1      	b.n	7010bb88 <_strerror_r+0x134>
7010bc24:	4b54      	ldr	r3, [pc, #336]	@ (7010bd78 <_strerror_r+0x324>)
7010bc26:	e7af      	b.n	7010bb88 <_strerror_r+0x134>
7010bc28:	4b54      	ldr	r3, [pc, #336]	@ (7010bd7c <_strerror_r+0x328>)
7010bc2a:	e7ad      	b.n	7010bb88 <_strerror_r+0x134>
7010bc2c:	4b54      	ldr	r3, [pc, #336]	@ (7010bd80 <_strerror_r+0x32c>)
7010bc2e:	e7ab      	b.n	7010bb88 <_strerror_r+0x134>
7010bc30:	4b54      	ldr	r3, [pc, #336]	@ (7010bd84 <_strerror_r+0x330>)
7010bc32:	e7a9      	b.n	7010bb88 <_strerror_r+0x134>
7010bc34:	4b54      	ldr	r3, [pc, #336]	@ (7010bd88 <_strerror_r+0x334>)
7010bc36:	e7a7      	b.n	7010bb88 <_strerror_r+0x134>
7010bc38:	4b54      	ldr	r3, [pc, #336]	@ (7010bd8c <_strerror_r+0x338>)
7010bc3a:	e7a5      	b.n	7010bb88 <_strerror_r+0x134>
7010bc3c:	4b54      	ldr	r3, [pc, #336]	@ (7010bd90 <_strerror_r+0x33c>)
7010bc3e:	e7a3      	b.n	7010bb88 <_strerror_r+0x134>
7010bc40:	4b54      	ldr	r3, [pc, #336]	@ (7010bd94 <_strerror_r+0x340>)
7010bc42:	e7a1      	b.n	7010bb88 <_strerror_r+0x134>
7010bc44:	4b54      	ldr	r3, [pc, #336]	@ (7010bd98 <_strerror_r+0x344>)
7010bc46:	e79f      	b.n	7010bb88 <_strerror_r+0x134>
7010bc48:	4b54      	ldr	r3, [pc, #336]	@ (7010bd9c <_strerror_r+0x348>)
7010bc4a:	e79d      	b.n	7010bb88 <_strerror_r+0x134>
7010bc4c:	4b54      	ldr	r3, [pc, #336]	@ (7010bda0 <_strerror_r+0x34c>)
7010bc4e:	e79b      	b.n	7010bb88 <_strerror_r+0x134>
7010bc50:	4b54      	ldr	r3, [pc, #336]	@ (7010bda4 <_strerror_r+0x350>)
7010bc52:	e799      	b.n	7010bb88 <_strerror_r+0x134>
7010bc54:	4b54      	ldr	r3, [pc, #336]	@ (7010bda8 <_strerror_r+0x354>)
7010bc56:	e797      	b.n	7010bb88 <_strerror_r+0x134>
7010bc58:	4b54      	ldr	r3, [pc, #336]	@ (7010bdac <_strerror_r+0x358>)
7010bc5a:	e795      	b.n	7010bb88 <_strerror_r+0x134>
7010bc5c:	4b54      	ldr	r3, [pc, #336]	@ (7010bdb0 <_strerror_r+0x35c>)
7010bc5e:	e793      	b.n	7010bb88 <_strerror_r+0x134>
7010bc60:	4b54      	ldr	r3, [pc, #336]	@ (7010bdb4 <_strerror_r+0x360>)
7010bc62:	e791      	b.n	7010bb88 <_strerror_r+0x134>
7010bc64:	4b54      	ldr	r3, [pc, #336]	@ (7010bdb8 <_strerror_r+0x364>)
7010bc66:	e78f      	b.n	7010bb88 <_strerror_r+0x134>
7010bc68:	4b54      	ldr	r3, [pc, #336]	@ (7010bdbc <_strerror_r+0x368>)
7010bc6a:	e78d      	b.n	7010bb88 <_strerror_r+0x134>
7010bc6c:	4b54      	ldr	r3, [pc, #336]	@ (7010bdc0 <_strerror_r+0x36c>)
7010bc6e:	e78b      	b.n	7010bb88 <_strerror_r+0x134>
7010bc70:	4b54      	ldr	r3, [pc, #336]	@ (7010bdc4 <_strerror_r+0x370>)
7010bc72:	e789      	b.n	7010bb88 <_strerror_r+0x134>
7010bc74:	4b54      	ldr	r3, [pc, #336]	@ (7010bdc8 <_strerror_r+0x374>)
7010bc76:	e787      	b.n	7010bb88 <_strerror_r+0x134>
7010bc78:	4b54      	ldr	r3, [pc, #336]	@ (7010bdcc <_strerror_r+0x378>)
7010bc7a:	e785      	b.n	7010bb88 <_strerror_r+0x134>
7010bc7c:	4b54      	ldr	r3, [pc, #336]	@ (7010bdd0 <_strerror_r+0x37c>)
7010bc7e:	e783      	b.n	7010bb88 <_strerror_r+0x134>
7010bc80:	4b54      	ldr	r3, [pc, #336]	@ (7010bdd4 <_strerror_r+0x380>)
7010bc82:	e781      	b.n	7010bb88 <_strerror_r+0x134>
7010bc84:	4b54      	ldr	r3, [pc, #336]	@ (7010bdd8 <_strerror_r+0x384>)
7010bc86:	e77f      	b.n	7010bb88 <_strerror_r+0x134>
7010bc88:	4b54      	ldr	r3, [pc, #336]	@ (7010bddc <_strerror_r+0x388>)
7010bc8a:	e77d      	b.n	7010bb88 <_strerror_r+0x134>
7010bc8c:	4b54      	ldr	r3, [pc, #336]	@ (7010bde0 <_strerror_r+0x38c>)
7010bc8e:	e77b      	b.n	7010bb88 <_strerror_r+0x134>
7010bc90:	4b54      	ldr	r3, [pc, #336]	@ (7010bde4 <_strerror_r+0x390>)
7010bc92:	e779      	b.n	7010bb88 <_strerror_r+0x134>
7010bc94:	4b54      	ldr	r3, [pc, #336]	@ (7010bde8 <_strerror_r+0x394>)
7010bc96:	e777      	b.n	7010bb88 <_strerror_r+0x134>
7010bc98:	4b54      	ldr	r3, [pc, #336]	@ (7010bdec <_strerror_r+0x398>)
7010bc9a:	e775      	b.n	7010bb88 <_strerror_r+0x134>
7010bc9c:	4b54      	ldr	r3, [pc, #336]	@ (7010bdf0 <_strerror_r+0x39c>)
7010bc9e:	e773      	b.n	7010bb88 <_strerror_r+0x134>
7010bca0:	4b54      	ldr	r3, [pc, #336]	@ (7010bdf4 <_strerror_r+0x3a0>)
7010bca2:	e771      	b.n	7010bb88 <_strerror_r+0x134>
7010bca4:	4b54      	ldr	r3, [pc, #336]	@ (7010bdf8 <_strerror_r+0x3a4>)
7010bca6:	e76f      	b.n	7010bb88 <_strerror_r+0x134>
7010bca8:	4b54      	ldr	r3, [pc, #336]	@ (7010bdfc <_strerror_r+0x3a8>)
7010bcaa:	e76d      	b.n	7010bb88 <_strerror_r+0x134>
7010bcac:	4b54      	ldr	r3, [pc, #336]	@ (7010be00 <_strerror_r+0x3ac>)
7010bcae:	e76b      	b.n	7010bb88 <_strerror_r+0x134>
7010bcb0:	4b54      	ldr	r3, [pc, #336]	@ (7010be04 <_strerror_r+0x3b0>)
7010bcb2:	e769      	b.n	7010bb88 <_strerror_r+0x134>
7010bcb4:	4b54      	ldr	r3, [pc, #336]	@ (7010be08 <_strerror_r+0x3b4>)
7010bcb6:	e767      	b.n	7010bb88 <_strerror_r+0x134>
7010bcb8:	4b54      	ldr	r3, [pc, #336]	@ (7010be0c <_strerror_r+0x3b8>)
7010bcba:	e765      	b.n	7010bb88 <_strerror_r+0x134>
7010bcbc:	4b54      	ldr	r3, [pc, #336]	@ (7010be10 <_strerror_r+0x3bc>)
7010bcbe:	e763      	b.n	7010bb88 <_strerror_r+0x134>
7010bcc0:	4b54      	ldr	r3, [pc, #336]	@ (7010be14 <_strerror_r+0x3c0>)
7010bcc2:	e761      	b.n	7010bb88 <_strerror_r+0x134>
7010bcc4:	2a00      	cmp	r2, #0
7010bcc6:	bf08      	it	eq
7010bcc8:	4622      	moveq	r2, r4
7010bcca:	f000 f8c5 	bl	7010be58 <_user_strerror>
7010bcce:	4b52      	ldr	r3, [pc, #328]	@ (7010be18 <_strerror_r+0x3c4>)
7010bcd0:	2800      	cmp	r0, #0
7010bcd2:	bf18      	it	ne
7010bcd4:	4603      	movne	r3, r0
7010bcd6:	e757      	b.n	7010bb88 <_strerror_r+0x134>
7010bcd8:	4b50      	ldr	r3, [pc, #320]	@ (7010be1c <_strerror_r+0x3c8>)
7010bcda:	e755      	b.n	7010bb88 <_strerror_r+0x134>
7010bcdc:	7010e031 	.word	0x7010e031
7010bce0:	7010e043 	.word	0x7010e043
7010bce4:	7010e05d 	.word	0x7010e05d
7010bce8:	7010e06d 	.word	0x7010e06d
7010bcec:	7010e085 	.word	0x7010e085
7010bcf0:	7010e08f 	.word	0x7010e08f
7010bcf4:	7010e0a9 	.word	0x7010e0a9
7010bcf8:	7010e0bb 	.word	0x7010e0bb
7010bcfc:	7010e0cd 	.word	0x7010e0cd
7010bd00:	7010e0e6 	.word	0x7010e0e6
7010bd04:	7010e0f6 	.word	0x7010e0f6
7010bd08:	7010e102 	.word	0x7010e102
7010bd0c:	7010e11f 	.word	0x7010e11f
7010bd10:	7010e131 	.word	0x7010e131
7010bd14:	7010e142 	.word	0x7010e142
7010bd18:	7010e154 	.word	0x7010e154
7010bd1c:	7010e160 	.word	0x7010e160
7010bd20:	7010e178 	.word	0x7010e178
7010bd24:	7010e184 	.word	0x7010e184
7010bd28:	7010e196 	.word	0x7010e196
7010bd2c:	7010e1a5 	.word	0x7010e1a5
7010bd30:	7010e1b5 	.word	0x7010e1b5
7010bd34:	7010e1c2 	.word	0x7010e1c2
7010bd38:	7010e1e1 	.word	0x7010e1e1
7010bd3c:	7010e1f0 	.word	0x7010e1f0
7010bd40:	7010e201 	.word	0x7010e201
7010bd44:	7010e225 	.word	0x7010e225
7010bd48:	7010e243 	.word	0x7010e243
7010bd4c:	7010e261 	.word	0x7010e261
7010bd50:	7010e281 	.word	0x7010e281
7010bd54:	7010e298 	.word	0x7010e298
7010bd58:	7010e2a7 	.word	0x7010e2a7
7010bd5c:	7010e2b6 	.word	0x7010e2b6
7010bd60:	7010e2ca 	.word	0x7010e2ca
7010bd64:	7010e2e2 	.word	0x7010e2e2
7010bd68:	7010e2f0 	.word	0x7010e2f0
7010bd6c:	7010e2fd 	.word	0x7010e2fd
7010bd70:	7010e313 	.word	0x7010e313
7010bd74:	7010e322 	.word	0x7010e322
7010bd78:	7010e32e 	.word	0x7010e32e
7010bd7c:	7010e35d 	.word	0x7010e35d
7010bd80:	7010e36e 	.word	0x7010e36e
7010bd84:	7010e389 	.word	0x7010e389
7010bd88:	7010e39c 	.word	0x7010e39c
7010bd8c:	7010e3b2 	.word	0x7010e3b2
7010bd90:	7010e3bb 	.word	0x7010e3bb
7010bd94:	7010e3d2 	.word	0x7010e3d2
7010bd98:	7010e3da 	.word	0x7010e3da
7010bd9c:	7010e3e7 	.word	0x7010e3e7
7010bda0:	7010e3fc 	.word	0x7010e3fc
7010bda4:	7010e410 	.word	0x7010e410
7010bda8:	7010e428 	.word	0x7010e428
7010bdac:	7010e437 	.word	0x7010e437
7010bdb0:	7010e448 	.word	0x7010e448
7010bdb4:	7010e45b 	.word	0x7010e45b
7010bdb8:	7010e467 	.word	0x7010e467
7010bdbc:	7010e480 	.word	0x7010e480
7010bdc0:	7010e494 	.word	0x7010e494
7010bdc4:	7010e4af 	.word	0x7010e4af
7010bdc8:	7010e4c7 	.word	0x7010e4c7
7010bdcc:	7010e4e1 	.word	0x7010e4e1
7010bdd0:	7010e4e9 	.word	0x7010e4e9
7010bdd4:	7010e519 	.word	0x7010e519
7010bdd8:	7010e538 	.word	0x7010e538
7010bddc:	7010e557 	.word	0x7010e557
7010bde0:	7010e56e 	.word	0x7010e56e
7010bde4:	7010e581 	.word	0x7010e581
7010bde8:	7010e59a 	.word	0x7010e59a
7010bdec:	7010e5b1 	.word	0x7010e5b1
7010bdf0:	7010e5c7 	.word	0x7010e5c7
7010bdf4:	7010e5e8 	.word	0x7010e5e8
7010bdf8:	7010e600 	.word	0x7010e600
7010bdfc:	7010e61c 	.word	0x7010e61c
7010be00:	7010e62f 	.word	0x7010e62f
7010be04:	7010e645 	.word	0x7010e645
7010be08:	7010e659 	.word	0x7010e659
7010be0c:	7010e67b 	.word	0x7010e67b
7010be10:	7010e6a1 	.word	0x7010e6a1
7010be14:	7010e6b2 	.word	0x7010e6b2
7010be18:	7010d6f8 	.word	0x7010d6f8
7010be1c:	7010e039 	.word	0x7010e039

7010be20 <strerror>:
7010be20:	4601      	mov	r1, r0
7010be22:	2300      	movs	r3, #0
7010be24:	4802      	ldr	r0, [pc, #8]	@ (7010be30 <strerror+0x10>)
7010be26:	461a      	mov	r2, r3
7010be28:	6800      	ldr	r0, [r0, #0]
7010be2a:	f7ff be13 	b.w	7010ba54 <_strerror_r>
7010be2e:	bf00      	nop
7010be30:	34000094 	.word	0x34000094

7010be34 <strncmp>:
7010be34:	b510      	push	{r4, lr}
7010be36:	b16a      	cbz	r2, 7010be54 <strncmp+0x20>
7010be38:	3901      	subs	r1, #1
7010be3a:	1884      	adds	r4, r0, r2
7010be3c:	f810 2b01 	ldrb.w	r2, [r0], #1
7010be40:	f811 3f01 	ldrb.w	r3, [r1, #1]!
7010be44:	429a      	cmp	r2, r3
7010be46:	d103      	bne.n	7010be50 <strncmp+0x1c>
7010be48:	42a0      	cmp	r0, r4
7010be4a:	d001      	beq.n	7010be50 <strncmp+0x1c>
7010be4c:	2a00      	cmp	r2, #0
7010be4e:	d1f5      	bne.n	7010be3c <strncmp+0x8>
7010be50:	1ad0      	subs	r0, r2, r3
7010be52:	bd10      	pop	{r4, pc}
7010be54:	4610      	mov	r0, r2
7010be56:	e7fc      	b.n	7010be52 <strncmp+0x1e>

7010be58 <_user_strerror>:
7010be58:	2000      	movs	r0, #0
7010be5a:	4770      	bx	lr

7010be5c <_close_r>:
7010be5c:	b538      	push	{r3, r4, r5, lr}
7010be5e:	2300      	movs	r3, #0
7010be60:	4d05      	ldr	r5, [pc, #20]	@ (7010be78 <_close_r+0x1c>)
7010be62:	4604      	mov	r4, r0
7010be64:	4608      	mov	r0, r1
7010be66:	602b      	str	r3, [r5, #0]
7010be68:	f7f5 fd35 	bl	701018d6 <_close>
7010be6c:	1c43      	adds	r3, r0, #1
7010be6e:	d102      	bne.n	7010be76 <_close_r+0x1a>
7010be70:	682b      	ldr	r3, [r5, #0]
7010be72:	b103      	cbz	r3, 7010be76 <_close_r+0x1a>
7010be74:	6023      	str	r3, [r4, #0]
7010be76:	bd38      	pop	{r3, r4, r5, pc}
7010be78:	34001984 	.word	0x34001984

7010be7c <_lseek_r>:
7010be7c:	b538      	push	{r3, r4, r5, lr}
7010be7e:	4604      	mov	r4, r0
7010be80:	4d06      	ldr	r5, [pc, #24]	@ (7010be9c <_lseek_r+0x20>)
7010be82:	4608      	mov	r0, r1
7010be84:	4611      	mov	r1, r2
7010be86:	2200      	movs	r2, #0
7010be88:	602a      	str	r2, [r5, #0]
7010be8a:	461a      	mov	r2, r3
7010be8c:	f7f5 fd2d 	bl	701018ea <_lseek>
7010be90:	1c43      	adds	r3, r0, #1
7010be92:	d102      	bne.n	7010be9a <_lseek_r+0x1e>
7010be94:	682b      	ldr	r3, [r5, #0]
7010be96:	b103      	cbz	r3, 7010be9a <_lseek_r+0x1e>
7010be98:	6023      	str	r3, [r4, #0]
7010be9a:	bd38      	pop	{r3, r4, r5, pc}
7010be9c:	34001984 	.word	0x34001984

7010bea0 <_read_r>:
7010bea0:	b538      	push	{r3, r4, r5, lr}
7010bea2:	4604      	mov	r4, r0
7010bea4:	4d06      	ldr	r5, [pc, #24]	@ (7010bec0 <_read_r+0x20>)
7010bea6:	4608      	mov	r0, r1
7010bea8:	4611      	mov	r1, r2
7010beaa:	2200      	movs	r2, #0
7010beac:	602a      	str	r2, [r5, #0]
7010beae:	461a      	mov	r2, r3
7010beb0:	f7f5 fd03 	bl	701018ba <_read>
7010beb4:	1c43      	adds	r3, r0, #1
7010beb6:	d102      	bne.n	7010bebe <_read_r+0x1e>
7010beb8:	682b      	ldr	r3, [r5, #0]
7010beba:	b103      	cbz	r3, 7010bebe <_read_r+0x1e>
7010bebc:	6023      	str	r3, [r4, #0]
7010bebe:	bd38      	pop	{r3, r4, r5, pc}
7010bec0:	34001984 	.word	0x34001984

7010bec4 <_sbrk_r>:
7010bec4:	b538      	push	{r3, r4, r5, lr}
7010bec6:	2300      	movs	r3, #0
7010bec8:	4d05      	ldr	r5, [pc, #20]	@ (7010bee0 <_sbrk_r+0x1c>)
7010beca:	4604      	mov	r4, r0
7010becc:	4608      	mov	r0, r1
7010bece:	602b      	str	r3, [r5, #0]
7010bed0:	f7f5 fd0e 	bl	701018f0 <_sbrk>
7010bed4:	1c43      	adds	r3, r0, #1
7010bed6:	d102      	bne.n	7010bede <_sbrk_r+0x1a>
7010bed8:	682b      	ldr	r3, [r5, #0]
7010beda:	b103      	cbz	r3, 7010bede <_sbrk_r+0x1a>
7010bedc:	6023      	str	r3, [r4, #0]
7010bede:	bd38      	pop	{r3, r4, r5, pc}
7010bee0:	34001984 	.word	0x34001984

7010bee4 <_write_r>:
7010bee4:	b538      	push	{r3, r4, r5, lr}
7010bee6:	4604      	mov	r4, r0
7010bee8:	4d06      	ldr	r5, [pc, #24]	@ (7010bf04 <_write_r+0x20>)
7010beea:	4608      	mov	r0, r1
7010beec:	4611      	mov	r1, r2
7010beee:	2200      	movs	r2, #0
7010bef0:	602a      	str	r2, [r5, #0]
7010bef2:	461a      	mov	r2, r3
7010bef4:	f7fa f9d0 	bl	70106298 <_write>
7010bef8:	1c43      	adds	r3, r0, #1
7010befa:	d102      	bne.n	7010bf02 <_write_r+0x1e>
7010befc:	682b      	ldr	r3, [r5, #0]
7010befe:	b103      	cbz	r3, 7010bf02 <_write_r+0x1e>
7010bf00:	6023      	str	r3, [r4, #0]
7010bf02:	bd38      	pop	{r3, r4, r5, pc}
7010bf04:	34001984 	.word	0x34001984

7010bf08 <__errno>:
7010bf08:	4b01      	ldr	r3, [pc, #4]	@ (7010bf10 <__errno+0x8>)
7010bf0a:	6818      	ldr	r0, [r3, #0]
7010bf0c:	4770      	bx	lr
7010bf0e:	bf00      	nop
7010bf10:	34000094 	.word	0x34000094

7010bf14 <__libc_init_array>:
7010bf14:	b570      	push	{r4, r5, r6, lr}
7010bf16:	4b0d      	ldr	r3, [pc, #52]	@ (7010bf4c <__libc_init_array+0x38>)
7010bf18:	2600      	movs	r6, #0
7010bf1a:	4d0d      	ldr	r5, [pc, #52]	@ (7010bf50 <__libc_init_array+0x3c>)
7010bf1c:	1b5b      	subs	r3, r3, r5
7010bf1e:	109c      	asrs	r4, r3, #2
7010bf20:	42a6      	cmp	r6, r4
7010bf22:	d109      	bne.n	7010bf38 <__libc_init_array+0x24>
7010bf24:	4d0b      	ldr	r5, [pc, #44]	@ (7010bf54 <__libc_init_array+0x40>)
7010bf26:	f000 fc23 	bl	7010c770 <_init>
7010bf2a:	4b0b      	ldr	r3, [pc, #44]	@ (7010bf58 <__libc_init_array+0x44>)
7010bf2c:	2600      	movs	r6, #0
7010bf2e:	1b5b      	subs	r3, r3, r5
7010bf30:	109c      	asrs	r4, r3, #2
7010bf32:	42a6      	cmp	r6, r4
7010bf34:	d105      	bne.n	7010bf42 <__libc_init_array+0x2e>
7010bf36:	bd70      	pop	{r4, r5, r6, pc}
7010bf38:	f855 3b04 	ldr.w	r3, [r5], #4
7010bf3c:	3601      	adds	r6, #1
7010bf3e:	4798      	blx	r3
7010bf40:	e7ee      	b.n	7010bf20 <__libc_init_array+0xc>
7010bf42:	f855 3b04 	ldr.w	r3, [r5], #4
7010bf46:	3601      	adds	r6, #1
7010bf48:	4798      	blx	r3
7010bf4a:	e7f2      	b.n	7010bf32 <__libc_init_array+0x1e>
7010bf4c:	70110110 	.word	0x70110110
7010bf50:	70110110 	.word	0x70110110
7010bf54:	70110110 	.word	0x70110110
7010bf58:	70110114 	.word	0x70110114

7010bf5c <__retarget_lock_init_recursive>:
7010bf5c:	4770      	bx	lr

7010bf5e <__retarget_lock_acquire_recursive>:
7010bf5e:	4770      	bx	lr

7010bf60 <__retarget_lock_release_recursive>:
7010bf60:	4770      	bx	lr

7010bf62 <memcpy>:
7010bf62:	440a      	add	r2, r1
7010bf64:	1e43      	subs	r3, r0, #1
7010bf66:	4291      	cmp	r1, r2
7010bf68:	d100      	bne.n	7010bf6c <memcpy+0xa>
7010bf6a:	4770      	bx	lr
7010bf6c:	b510      	push	{r4, lr}
7010bf6e:	f811 4b01 	ldrb.w	r4, [r1], #1
7010bf72:	4291      	cmp	r1, r2
7010bf74:	f803 4f01 	strb.w	r4, [r3, #1]!
7010bf78:	d1f9      	bne.n	7010bf6e <memcpy+0xc>
7010bf7a:	bd10      	pop	{r4, pc}

7010bf7c <abort>:
7010bf7c:	2006      	movs	r0, #6
7010bf7e:	b508      	push	{r3, lr}
7010bf80:	f000 fbaa 	bl	7010c6d8 <raise>
7010bf84:	2001      	movs	r0, #1
7010bf86:	f7f5 fc92 	bl	701018ae <_exit>
	...

7010bf8c <_free_r>:
7010bf8c:	b538      	push	{r3, r4, r5, lr}
7010bf8e:	4605      	mov	r5, r0
7010bf90:	2900      	cmp	r1, #0
7010bf92:	d041      	beq.n	7010c018 <_free_r+0x8c>
7010bf94:	f851 3c04 	ldr.w	r3, [r1, #-4]
7010bf98:	1f0c      	subs	r4, r1, #4
7010bf9a:	2b00      	cmp	r3, #0
7010bf9c:	bfb8      	it	lt
7010bf9e:	18e4      	addlt	r4, r4, r3
7010bfa0:	f7ff fa80 	bl	7010b4a4 <__malloc_lock>
7010bfa4:	4a1d      	ldr	r2, [pc, #116]	@ (7010c01c <_free_r+0x90>)
7010bfa6:	6813      	ldr	r3, [r2, #0]
7010bfa8:	b933      	cbnz	r3, 7010bfb8 <_free_r+0x2c>
7010bfaa:	6063      	str	r3, [r4, #4]
7010bfac:	6014      	str	r4, [r2, #0]
7010bfae:	4628      	mov	r0, r5
7010bfb0:	e8bd 4038 	ldmia.w	sp!, {r3, r4, r5, lr}
7010bfb4:	f7ff ba7c 	b.w	7010b4b0 <__malloc_unlock>
7010bfb8:	42a3      	cmp	r3, r4
7010bfba:	d908      	bls.n	7010bfce <_free_r+0x42>
7010bfbc:	6820      	ldr	r0, [r4, #0]
7010bfbe:	1821      	adds	r1, r4, r0
7010bfc0:	428b      	cmp	r3, r1
7010bfc2:	bf01      	itttt	eq
7010bfc4:	6819      	ldreq	r1, [r3, #0]
7010bfc6:	685b      	ldreq	r3, [r3, #4]
7010bfc8:	1809      	addeq	r1, r1, r0
7010bfca:	6021      	streq	r1, [r4, #0]
7010bfcc:	e7ed      	b.n	7010bfaa <_free_r+0x1e>
7010bfce:	461a      	mov	r2, r3
7010bfd0:	685b      	ldr	r3, [r3, #4]
7010bfd2:	b10b      	cbz	r3, 7010bfd8 <_free_r+0x4c>
7010bfd4:	42a3      	cmp	r3, r4
7010bfd6:	d9fa      	bls.n	7010bfce <_free_r+0x42>
7010bfd8:	6811      	ldr	r1, [r2, #0]
7010bfda:	1850      	adds	r0, r2, r1
7010bfdc:	42a0      	cmp	r0, r4
7010bfde:	d10b      	bne.n	7010bff8 <_free_r+0x6c>
7010bfe0:	6820      	ldr	r0, [r4, #0]
7010bfe2:	4401      	add	r1, r0
7010bfe4:	1850      	adds	r0, r2, r1
7010bfe6:	6011      	str	r1, [r2, #0]
7010bfe8:	4283      	cmp	r3, r0
7010bfea:	d1e0      	bne.n	7010bfae <_free_r+0x22>
7010bfec:	6818      	ldr	r0, [r3, #0]
7010bfee:	685b      	ldr	r3, [r3, #4]
7010bff0:	4408      	add	r0, r1
7010bff2:	6053      	str	r3, [r2, #4]
7010bff4:	6010      	str	r0, [r2, #0]
7010bff6:	e7da      	b.n	7010bfae <_free_r+0x22>
7010bff8:	d902      	bls.n	7010c000 <_free_r+0x74>
7010bffa:	230c      	movs	r3, #12
7010bffc:	602b      	str	r3, [r5, #0]
7010bffe:	e7d6      	b.n	7010bfae <_free_r+0x22>
7010c000:	6820      	ldr	r0, [r4, #0]
7010c002:	1821      	adds	r1, r4, r0
7010c004:	428b      	cmp	r3, r1
7010c006:	bf02      	ittt	eq
7010c008:	6819      	ldreq	r1, [r3, #0]
7010c00a:	685b      	ldreq	r3, [r3, #4]
7010c00c:	1809      	addeq	r1, r1, r0
7010c00e:	6063      	str	r3, [r4, #4]
7010c010:	bf08      	it	eq
7010c012:	6021      	streq	r1, [r4, #0]
7010c014:	6054      	str	r4, [r2, #4]
7010c016:	e7ca      	b.n	7010bfae <_free_r+0x22>
7010c018:	bd38      	pop	{r3, r4, r5, pc}
7010c01a:	bf00      	nop
7010c01c:	34001844 	.word	0x34001844

7010c020 <__sfputc_r>:
7010c020:	6893      	ldr	r3, [r2, #8]
7010c022:	3b01      	subs	r3, #1
7010c024:	2b00      	cmp	r3, #0
7010c026:	b410      	push	{r4}
7010c028:	6093      	str	r3, [r2, #8]
7010c02a:	da08      	bge.n	7010c03e <__sfputc_r+0x1e>
7010c02c:	6994      	ldr	r4, [r2, #24]
7010c02e:	42a3      	cmp	r3, r4
7010c030:	db01      	blt.n	7010c036 <__sfputc_r+0x16>
7010c032:	290a      	cmp	r1, #10
7010c034:	d103      	bne.n	7010c03e <__sfputc_r+0x1e>
7010c036:	f85d 4b04 	ldr.w	r4, [sp], #4
7010c03a:	f7ff bc71 	b.w	7010b920 <__swbuf_r>
7010c03e:	6813      	ldr	r3, [r2, #0]
7010c040:	1c58      	adds	r0, r3, #1
7010c042:	6010      	str	r0, [r2, #0]
7010c044:	4608      	mov	r0, r1
7010c046:	7019      	strb	r1, [r3, #0]
7010c048:	f85d 4b04 	ldr.w	r4, [sp], #4
7010c04c:	4770      	bx	lr

7010c04e <__sfputs_r>:
7010c04e:	b5f8      	push	{r3, r4, r5, r6, r7, lr}
7010c050:	4606      	mov	r6, r0
7010c052:	460f      	mov	r7, r1
7010c054:	4614      	mov	r4, r2
7010c056:	18d5      	adds	r5, r2, r3
7010c058:	42ac      	cmp	r4, r5
7010c05a:	d101      	bne.n	7010c060 <__sfputs_r+0x12>
7010c05c:	2000      	movs	r0, #0
7010c05e:	e007      	b.n	7010c070 <__sfputs_r+0x22>
7010c060:	463a      	mov	r2, r7
7010c062:	f814 1b01 	ldrb.w	r1, [r4], #1
7010c066:	4630      	mov	r0, r6
7010c068:	f7ff ffda 	bl	7010c020 <__sfputc_r>
7010c06c:	1c43      	adds	r3, r0, #1
7010c06e:	d1f3      	bne.n	7010c058 <__sfputs_r+0xa>
7010c070:	bdf8      	pop	{r3, r4, r5, r6, r7, pc}
	...

7010c074 <_vfiprintf_r>:
7010c074:	e92d 47f0 	stmdb	sp!, {r4, r5, r6, r7, r8, r9, sl, lr}
7010c078:	460d      	mov	r5, r1
7010c07a:	b09c      	sub	sp, #112	@ 0x70
7010c07c:	4614      	mov	r4, r2
7010c07e:	461f      	mov	r7, r3
7010c080:	4606      	mov	r6, r0
7010c082:	b118      	cbz	r0, 7010c08c <_vfiprintf_r+0x18>
7010c084:	6a03      	ldr	r3, [r0, #32]
7010c086:	b90b      	cbnz	r3, 7010c08c <_vfiprintf_r+0x18>
7010c088:	f7ff fb4e 	bl	7010b728 <__sinit>
7010c08c:	6e6b      	ldr	r3, [r5, #100]	@ 0x64
7010c08e:	07d9      	lsls	r1, r3, #31
7010c090:	d405      	bmi.n	7010c09e <_vfiprintf_r+0x2a>
7010c092:	89ab      	ldrh	r3, [r5, #12]
7010c094:	059a      	lsls	r2, r3, #22
7010c096:	d402      	bmi.n	7010c09e <_vfiprintf_r+0x2a>
7010c098:	6da8      	ldr	r0, [r5, #88]	@ 0x58
7010c09a:	f7ff ff60 	bl	7010bf5e <__retarget_lock_acquire_recursive>
7010c09e:	89ab      	ldrh	r3, [r5, #12]
7010c0a0:	071b      	lsls	r3, r3, #28
7010c0a2:	d501      	bpl.n	7010c0a8 <_vfiprintf_r+0x34>
7010c0a4:	692b      	ldr	r3, [r5, #16]
7010c0a6:	b99b      	cbnz	r3, 7010c0d0 <_vfiprintf_r+0x5c>
7010c0a8:	4629      	mov	r1, r5
7010c0aa:	4630      	mov	r0, r6
7010c0ac:	f7ff fc76 	bl	7010b99c <__swsetup_r>
7010c0b0:	b170      	cbz	r0, 7010c0d0 <_vfiprintf_r+0x5c>
7010c0b2:	6e6b      	ldr	r3, [r5, #100]	@ 0x64
7010c0b4:	07dc      	lsls	r4, r3, #31
7010c0b6:	d504      	bpl.n	7010c0c2 <_vfiprintf_r+0x4e>
7010c0b8:	f04f 30ff 	mov.w	r0, #4294967295
7010c0bc:	b01c      	add	sp, #112	@ 0x70
7010c0be:	e8bd 87f0 	ldmia.w	sp!, {r4, r5, r6, r7, r8, r9, sl, pc}
7010c0c2:	89ab      	ldrh	r3, [r5, #12]
7010c0c4:	0598      	lsls	r0, r3, #22
7010c0c6:	d4f7      	bmi.n	7010c0b8 <_vfiprintf_r+0x44>
7010c0c8:	6da8      	ldr	r0, [r5, #88]	@ 0x58
7010c0ca:	f7ff ff49 	bl	7010bf60 <__retarget_lock_release_recursive>
7010c0ce:	e7f3      	b.n	7010c0b8 <_vfiprintf_r+0x44>
7010c0d0:	2300      	movs	r3, #0
7010c0d2:	9703      	str	r7, [sp, #12]
7010c0d4:	f04f 0801 	mov.w	r8, #1
7010c0d8:	4f6b      	ldr	r7, [pc, #428]	@ (7010c288 <_vfiprintf_r+0x214>)
7010c0da:	9309      	str	r3, [sp, #36]	@ 0x24
7010c0dc:	2320      	movs	r3, #32
7010c0de:	f88d 3029 	strb.w	r3, [sp, #41]	@ 0x29
7010c0e2:	2330      	movs	r3, #48	@ 0x30
7010c0e4:	f88d 302a 	strb.w	r3, [sp, #42]	@ 0x2a
7010c0e8:	4623      	mov	r3, r4
7010c0ea:	4699      	mov	r9, r3
7010c0ec:	f813 2b01 	ldrb.w	r2, [r3], #1
7010c0f0:	b10a      	cbz	r2, 7010c0f6 <_vfiprintf_r+0x82>
7010c0f2:	2a25      	cmp	r2, #37	@ 0x25
7010c0f4:	d1f9      	bne.n	7010c0ea <_vfiprintf_r+0x76>
7010c0f6:	ebb9 0a04 	subs.w	sl, r9, r4
7010c0fa:	d00b      	beq.n	7010c114 <_vfiprintf_r+0xa0>
7010c0fc:	4653      	mov	r3, sl
7010c0fe:	4622      	mov	r2, r4
7010c100:	4629      	mov	r1, r5
7010c102:	4630      	mov	r0, r6
7010c104:	f7ff ffa3 	bl	7010c04e <__sfputs_r>
7010c108:	3001      	adds	r0, #1
7010c10a:	f000 80a4 	beq.w	7010c256 <_vfiprintf_r+0x1e2>
7010c10e:	9a09      	ldr	r2, [sp, #36]	@ 0x24
7010c110:	4452      	add	r2, sl
7010c112:	9209      	str	r2, [sp, #36]	@ 0x24
7010c114:	f899 3000 	ldrb.w	r3, [r9]
7010c118:	2b00      	cmp	r3, #0
7010c11a:	f000 809c 	beq.w	7010c256 <_vfiprintf_r+0x1e2>
7010c11e:	2300      	movs	r3, #0
7010c120:	f04f 32ff 	mov.w	r2, #4294967295
7010c124:	f109 0901 	add.w	r9, r9, #1
7010c128:	9304      	str	r3, [sp, #16]
7010c12a:	9307      	str	r3, [sp, #28]
7010c12c:	f88d 3053 	strb.w	r3, [sp, #83]	@ 0x53
7010c130:	931a      	str	r3, [sp, #104]	@ 0x68
7010c132:	e9cd 2305 	strd	r2, r3, [sp, #20]
7010c136:	464c      	mov	r4, r9
7010c138:	2205      	movs	r2, #5
7010c13a:	4853      	ldr	r0, [pc, #332]	@ (7010c288 <_vfiprintf_r+0x214>)
7010c13c:	f814 1b01 	ldrb.w	r1, [r4], #1
7010c140:	f000 fb08 	bl	7010c754 <memchr>
7010c144:	9b04      	ldr	r3, [sp, #16]
7010c146:	b9d0      	cbnz	r0, 7010c17e <_vfiprintf_r+0x10a>
7010c148:	06d9      	lsls	r1, r3, #27
7010c14a:	bf44      	itt	mi
7010c14c:	2220      	movmi	r2, #32
7010c14e:	f88d 2053 	strbmi.w	r2, [sp, #83]	@ 0x53
7010c152:	071a      	lsls	r2, r3, #28
7010c154:	bf44      	itt	mi
7010c156:	222b      	movmi	r2, #43	@ 0x2b
7010c158:	f88d 2053 	strbmi.w	r2, [sp, #83]	@ 0x53
7010c15c:	f899 2000 	ldrb.w	r2, [r9]
7010c160:	2a2a      	cmp	r2, #42	@ 0x2a
7010c162:	d013      	beq.n	7010c18c <_vfiprintf_r+0x118>
7010c164:	9a07      	ldr	r2, [sp, #28]
7010c166:	464c      	mov	r4, r9
7010c168:	2000      	movs	r0, #0
7010c16a:	f04f 0c0a 	mov.w	ip, #10
7010c16e:	4621      	mov	r1, r4
7010c170:	f811 3b01 	ldrb.w	r3, [r1], #1
7010c174:	3b30      	subs	r3, #48	@ 0x30
7010c176:	2b09      	cmp	r3, #9
7010c178:	d949      	bls.n	7010c20e <_vfiprintf_r+0x19a>
7010c17a:	b968      	cbnz	r0, 7010c198 <_vfiprintf_r+0x124>
7010c17c:	e013      	b.n	7010c1a6 <_vfiprintf_r+0x132>
7010c17e:	1bc0      	subs	r0, r0, r7
7010c180:	46a1      	mov	r9, r4
7010c182:	fa08 f000 	lsl.w	r0, r8, r0
7010c186:	4318      	orrs	r0, r3
7010c188:	9004      	str	r0, [sp, #16]
7010c18a:	e7d4      	b.n	7010c136 <_vfiprintf_r+0xc2>
7010c18c:	9a03      	ldr	r2, [sp, #12]
7010c18e:	1d11      	adds	r1, r2, #4
7010c190:	6812      	ldr	r2, [r2, #0]
7010c192:	2a00      	cmp	r2, #0
7010c194:	9103      	str	r1, [sp, #12]
7010c196:	db01      	blt.n	7010c19c <_vfiprintf_r+0x128>
7010c198:	9207      	str	r2, [sp, #28]
7010c19a:	e004      	b.n	7010c1a6 <_vfiprintf_r+0x132>
7010c19c:	4252      	negs	r2, r2
7010c19e:	f043 0302 	orr.w	r3, r3, #2
7010c1a2:	9207      	str	r2, [sp, #28]
7010c1a4:	9304      	str	r3, [sp, #16]
7010c1a6:	7823      	ldrb	r3, [r4, #0]
7010c1a8:	2b2e      	cmp	r3, #46	@ 0x2e
7010c1aa:	d10a      	bne.n	7010c1c2 <_vfiprintf_r+0x14e>
7010c1ac:	7863      	ldrb	r3, [r4, #1]
7010c1ae:	2b2a      	cmp	r3, #42	@ 0x2a
7010c1b0:	d132      	bne.n	7010c218 <_vfiprintf_r+0x1a4>
7010c1b2:	9b03      	ldr	r3, [sp, #12]
7010c1b4:	3402      	adds	r4, #2
7010c1b6:	1d1a      	adds	r2, r3, #4
7010c1b8:	681b      	ldr	r3, [r3, #0]
7010c1ba:	ea43 73e3 	orr.w	r3, r3, r3, asr #31
7010c1be:	9203      	str	r2, [sp, #12]
7010c1c0:	9305      	str	r3, [sp, #20]
7010c1c2:	f8df 90d4 	ldr.w	r9, [pc, #212]	@ 7010c298 <_vfiprintf_r+0x224>
7010c1c6:	2203      	movs	r2, #3
7010c1c8:	7821      	ldrb	r1, [r4, #0]
7010c1ca:	4648      	mov	r0, r9
7010c1cc:	f000 fac2 	bl	7010c754 <memchr>
7010c1d0:	b138      	cbz	r0, 7010c1e2 <_vfiprintf_r+0x16e>
7010c1d2:	eba0 0009 	sub.w	r0, r0, r9
7010c1d6:	2240      	movs	r2, #64	@ 0x40
7010c1d8:	9b04      	ldr	r3, [sp, #16]
7010c1da:	3401      	adds	r4, #1
7010c1dc:	4082      	lsls	r2, r0
7010c1de:	4313      	orrs	r3, r2
7010c1e0:	9304      	str	r3, [sp, #16]
7010c1e2:	f814 1b01 	ldrb.w	r1, [r4], #1
7010c1e6:	2206      	movs	r2, #6
7010c1e8:	4828      	ldr	r0, [pc, #160]	@ (7010c28c <_vfiprintf_r+0x218>)
7010c1ea:	f88d 1028 	strb.w	r1, [sp, #40]	@ 0x28
7010c1ee:	f000 fab1 	bl	7010c754 <memchr>
7010c1f2:	2800      	cmp	r0, #0
7010c1f4:	d03e      	beq.n	7010c274 <_vfiprintf_r+0x200>
7010c1f6:	4826      	ldr	r0, [pc, #152]	@ (7010c290 <_vfiprintf_r+0x21c>)
7010c1f8:	bb18      	cbnz	r0, 7010c242 <_vfiprintf_r+0x1ce>
7010c1fa:	9b03      	ldr	r3, [sp, #12]
7010c1fc:	3307      	adds	r3, #7
7010c1fe:	f023 0307 	bic.w	r3, r3, #7
7010c202:	3308      	adds	r3, #8
7010c204:	9303      	str	r3, [sp, #12]
7010c206:	9b09      	ldr	r3, [sp, #36]	@ 0x24
7010c208:	4403      	add	r3, r0
7010c20a:	9309      	str	r3, [sp, #36]	@ 0x24
7010c20c:	e76c      	b.n	7010c0e8 <_vfiprintf_r+0x74>
7010c20e:	fb0c 3202 	mla	r2, ip, r2, r3
7010c212:	460c      	mov	r4, r1
7010c214:	2001      	movs	r0, #1
7010c216:	e7aa      	b.n	7010c16e <_vfiprintf_r+0xfa>
7010c218:	2300      	movs	r3, #0
7010c21a:	3401      	adds	r4, #1
7010c21c:	f04f 0c0a 	mov.w	ip, #10
7010c220:	4619      	mov	r1, r3
7010c222:	9305      	str	r3, [sp, #20]
7010c224:	4620      	mov	r0, r4
7010c226:	f810 2b01 	ldrb.w	r2, [r0], #1
7010c22a:	3a30      	subs	r2, #48	@ 0x30
7010c22c:	2a09      	cmp	r2, #9
7010c22e:	d903      	bls.n	7010c238 <_vfiprintf_r+0x1c4>
7010c230:	2b00      	cmp	r3, #0
7010c232:	d0c6      	beq.n	7010c1c2 <_vfiprintf_r+0x14e>
7010c234:	9105      	str	r1, [sp, #20]
7010c236:	e7c4      	b.n	7010c1c2 <_vfiprintf_r+0x14e>
7010c238:	fb0c 2101 	mla	r1, ip, r1, r2
7010c23c:	4604      	mov	r4, r0
7010c23e:	2301      	movs	r3, #1
7010c240:	e7f0      	b.n	7010c224 <_vfiprintf_r+0x1b0>
7010c242:	ab03      	add	r3, sp, #12
7010c244:	462a      	mov	r2, r5
7010c246:	a904      	add	r1, sp, #16
7010c248:	4630      	mov	r0, r6
7010c24a:	9300      	str	r3, [sp, #0]
7010c24c:	4b11      	ldr	r3, [pc, #68]	@ (7010c294 <_vfiprintf_r+0x220>)
7010c24e:	f3af 8000 	nop.w
7010c252:	1c43      	adds	r3, r0, #1
7010c254:	d1d7      	bne.n	7010c206 <_vfiprintf_r+0x192>
7010c256:	6e6b      	ldr	r3, [r5, #100]	@ 0x64
7010c258:	07d9      	lsls	r1, r3, #31
7010c25a:	d405      	bmi.n	7010c268 <_vfiprintf_r+0x1f4>
7010c25c:	89ab      	ldrh	r3, [r5, #12]
7010c25e:	059a      	lsls	r2, r3, #22
7010c260:	d402      	bmi.n	7010c268 <_vfiprintf_r+0x1f4>
7010c262:	6da8      	ldr	r0, [r5, #88]	@ 0x58
7010c264:	f7ff fe7c 	bl	7010bf60 <__retarget_lock_release_recursive>
7010c268:	89ab      	ldrh	r3, [r5, #12]
7010c26a:	065b      	lsls	r3, r3, #25
7010c26c:	f53f af24 	bmi.w	7010c0b8 <_vfiprintf_r+0x44>
7010c270:	9809      	ldr	r0, [sp, #36]	@ 0x24
7010c272:	e723      	b.n	7010c0bc <_vfiprintf_r+0x48>
7010c274:	ab03      	add	r3, sp, #12
7010c276:	462a      	mov	r2, r5
7010c278:	a904      	add	r1, sp, #16
7010c27a:	4630      	mov	r0, r6
7010c27c:	9300      	str	r3, [sp, #0]
7010c27e:	4b05      	ldr	r3, [pc, #20]	@ (7010c294 <_vfiprintf_r+0x220>)
7010c280:	f000 f87e 	bl	7010c380 <_printf_i>
7010c284:	e7e5      	b.n	7010c252 <_vfiprintf_r+0x1de>
7010c286:	bf00      	nop
7010c288:	7010e6c7 	.word	0x7010e6c7
7010c28c:	7010e6d1 	.word	0x7010e6d1
7010c290:	00000000 	.word	0x00000000
7010c294:	7010c04f 	.word	0x7010c04f
7010c298:	7010e6cd 	.word	0x7010e6cd

7010c29c <_printf_common>:
7010c29c:	e92d 47f0 	stmdb	sp!, {r4, r5, r6, r7, r8, r9, sl, lr}
7010c2a0:	4616      	mov	r6, r2
7010c2a2:	4698      	mov	r8, r3
7010c2a4:	688a      	ldr	r2, [r1, #8]
7010c2a6:	4607      	mov	r7, r0
7010c2a8:	690b      	ldr	r3, [r1, #16]
7010c2aa:	460c      	mov	r4, r1
7010c2ac:	f8dd 9020 	ldr.w	r9, [sp, #32]
7010c2b0:	4293      	cmp	r3, r2
7010c2b2:	bfb8      	it	lt
7010c2b4:	4613      	movlt	r3, r2
7010c2b6:	6033      	str	r3, [r6, #0]
7010c2b8:	f891 2043 	ldrb.w	r2, [r1, #67]	@ 0x43
7010c2bc:	b10a      	cbz	r2, 7010c2c2 <_printf_common+0x26>
7010c2be:	3301      	adds	r3, #1
7010c2c0:	6033      	str	r3, [r6, #0]
7010c2c2:	6823      	ldr	r3, [r4, #0]
7010c2c4:	0699      	lsls	r1, r3, #26
7010c2c6:	bf42      	ittt	mi
7010c2c8:	6833      	ldrmi	r3, [r6, #0]
7010c2ca:	3302      	addmi	r3, #2
7010c2cc:	6033      	strmi	r3, [r6, #0]
7010c2ce:	6825      	ldr	r5, [r4, #0]
7010c2d0:	f015 0506 	ands.w	r5, r5, #6
7010c2d4:	d106      	bne.n	7010c2e4 <_printf_common+0x48>
7010c2d6:	f104 0a19 	add.w	sl, r4, #25
7010c2da:	68e3      	ldr	r3, [r4, #12]
7010c2dc:	6832      	ldr	r2, [r6, #0]
7010c2de:	1a9b      	subs	r3, r3, r2
7010c2e0:	42ab      	cmp	r3, r5
7010c2e2:	dc2b      	bgt.n	7010c33c <_printf_common+0xa0>
7010c2e4:	f894 3043 	ldrb.w	r3, [r4, #67]	@ 0x43
7010c2e8:	6822      	ldr	r2, [r4, #0]
7010c2ea:	3b00      	subs	r3, #0
7010c2ec:	bf18      	it	ne
7010c2ee:	2301      	movne	r3, #1
7010c2f0:	0692      	lsls	r2, r2, #26
7010c2f2:	d430      	bmi.n	7010c356 <_printf_common+0xba>
7010c2f4:	f104 0243 	add.w	r2, r4, #67	@ 0x43
7010c2f8:	4641      	mov	r1, r8
7010c2fa:	4638      	mov	r0, r7
7010c2fc:	47c8      	blx	r9
7010c2fe:	3001      	adds	r0, #1
7010c300:	d023      	beq.n	7010c34a <_printf_common+0xae>
7010c302:	6823      	ldr	r3, [r4, #0]
7010c304:	341a      	adds	r4, #26
7010c306:	f854 2c0a 	ldr.w	r2, [r4, #-10]
7010c30a:	f003 0306 	and.w	r3, r3, #6
7010c30e:	2b04      	cmp	r3, #4
7010c310:	bf0a      	itet	eq
7010c312:	f854 5c0e 	ldreq.w	r5, [r4, #-14]
7010c316:	2500      	movne	r5, #0
7010c318:	6833      	ldreq	r3, [r6, #0]
7010c31a:	f04f 0600 	mov.w	r6, #0
7010c31e:	bf08      	it	eq
7010c320:	1aed      	subeq	r5, r5, r3
7010c322:	f854 3c12 	ldr.w	r3, [r4, #-18]
7010c326:	bf08      	it	eq
7010c328:	ea25 75e5 	biceq.w	r5, r5, r5, asr #31
7010c32c:	4293      	cmp	r3, r2
7010c32e:	bfc4      	itt	gt
7010c330:	1a9b      	subgt	r3, r3, r2
7010c332:	18ed      	addgt	r5, r5, r3
7010c334:	42b5      	cmp	r5, r6
7010c336:	d11a      	bne.n	7010c36e <_printf_common+0xd2>
7010c338:	2000      	movs	r0, #0
7010c33a:	e008      	b.n	7010c34e <_printf_common+0xb2>
7010c33c:	2301      	movs	r3, #1
7010c33e:	4652      	mov	r2, sl
7010c340:	4641      	mov	r1, r8
7010c342:	4638      	mov	r0, r7
7010c344:	47c8      	blx	r9
7010c346:	3001      	adds	r0, #1
7010c348:	d103      	bne.n	7010c352 <_printf_common+0xb6>
7010c34a:	f04f 30ff 	mov.w	r0, #4294967295
7010c34e:	e8bd 87f0 	ldmia.w	sp!, {r4, r5, r6, r7, r8, r9, sl, pc}
7010c352:	3501      	adds	r5, #1
7010c354:	e7c1      	b.n	7010c2da <_printf_common+0x3e>
7010c356:	18e1      	adds	r1, r4, r3
7010c358:	1c5a      	adds	r2, r3, #1
7010c35a:	2030      	movs	r0, #48	@ 0x30
7010c35c:	3302      	adds	r3, #2
7010c35e:	4422      	add	r2, r4
7010c360:	f881 0043 	strb.w	r0, [r1, #67]	@ 0x43
7010c364:	f894 1045 	ldrb.w	r1, [r4, #69]	@ 0x45
7010c368:	f882 1043 	strb.w	r1, [r2, #67]	@ 0x43
7010c36c:	e7c2      	b.n	7010c2f4 <_printf_common+0x58>
7010c36e:	2301      	movs	r3, #1
7010c370:	4622      	mov	r2, r4
7010c372:	4641      	mov	r1, r8
7010c374:	4638      	mov	r0, r7
7010c376:	47c8      	blx	r9
7010c378:	3001      	adds	r0, #1
7010c37a:	d0e6      	beq.n	7010c34a <_printf_common+0xae>
7010c37c:	3601      	adds	r6, #1
7010c37e:	e7d9      	b.n	7010c334 <_printf_common+0x98>

7010c380 <_printf_i>:
7010c380:	e92d 43f0 	stmdb	sp!, {r4, r5, r6, r7, r8, r9, lr}
7010c384:	7e0d      	ldrb	r5, [r1, #24]
7010c386:	b085      	sub	sp, #20
7010c388:	4690      	mov	r8, r2
7010c38a:	4607      	mov	r7, r0
7010c38c:	2d78      	cmp	r5, #120	@ 0x78
7010c38e:	460c      	mov	r4, r1
7010c390:	4699      	mov	r9, r3
7010c392:	9e0c      	ldr	r6, [sp, #48]	@ 0x30
7010c394:	f101 0243 	add.w	r2, r1, #67	@ 0x43
7010c398:	d807      	bhi.n	7010c3aa <_printf_i+0x2a>
7010c39a:	2d62      	cmp	r5, #98	@ 0x62
7010c39c:	d80a      	bhi.n	7010c3b4 <_printf_i+0x34>
7010c39e:	2d00      	cmp	r5, #0
7010c3a0:	f000 80d7 	beq.w	7010c552 <_printf_i+0x1d2>
7010c3a4:	2d58      	cmp	r5, #88	@ 0x58
7010c3a6:	f000 80bc 	beq.w	7010c522 <_printf_i+0x1a2>
7010c3aa:	f104 0642 	add.w	r6, r4, #66	@ 0x42
7010c3ae:	f884 5042 	strb.w	r5, [r4, #66]	@ 0x42
7010c3b2:	e03b      	b.n	7010c42c <_printf_i+0xac>
7010c3b4:	f1a5 0363 	sub.w	r3, r5, #99	@ 0x63
7010c3b8:	2b15      	cmp	r3, #21
7010c3ba:	d8f6      	bhi.n	7010c3aa <_printf_i+0x2a>
7010c3bc:	a101      	add	r1, pc, #4	@ (adr r1, 7010c3c4 <_printf_i+0x44>)
7010c3be:	f851 f023 	ldr.w	pc, [r1, r3, lsl #2]
7010c3c2:	bf00      	nop
7010c3c4:	7010c41d 	.word	0x7010c41d
7010c3c8:	7010c431 	.word	0x7010c431
7010c3cc:	7010c3ab 	.word	0x7010c3ab
7010c3d0:	7010c3ab 	.word	0x7010c3ab
7010c3d4:	7010c3ab 	.word	0x7010c3ab
7010c3d8:	7010c3ab 	.word	0x7010c3ab
7010c3dc:	7010c431 	.word	0x7010c431
7010c3e0:	7010c3ab 	.word	0x7010c3ab
7010c3e4:	7010c3ab 	.word	0x7010c3ab
7010c3e8:	7010c3ab 	.word	0x7010c3ab
7010c3ec:	7010c3ab 	.word	0x7010c3ab
7010c3f0:	7010c539 	.word	0x7010c539
7010c3f4:	7010c45b 	.word	0x7010c45b
7010c3f8:	7010c4eb 	.word	0x7010c4eb
7010c3fc:	7010c3ab 	.word	0x7010c3ab
7010c400:	7010c3ab 	.word	0x7010c3ab
7010c404:	7010c55b 	.word	0x7010c55b
7010c408:	7010c3ab 	.word	0x7010c3ab
7010c40c:	7010c45b 	.word	0x7010c45b
7010c410:	7010c3ab 	.word	0x7010c3ab
7010c414:	7010c3ab 	.word	0x7010c3ab
7010c418:	7010c4f3 	.word	0x7010c4f3
7010c41c:	6833      	ldr	r3, [r6, #0]
7010c41e:	1d1a      	adds	r2, r3, #4
7010c420:	681b      	ldr	r3, [r3, #0]
7010c422:	6032      	str	r2, [r6, #0]
7010c424:	f104 0642 	add.w	r6, r4, #66	@ 0x42
7010c428:	f884 3042 	strb.w	r3, [r4, #66]	@ 0x42
7010c42c:	2301      	movs	r3, #1
7010c42e:	e0a1      	b.n	7010c574 <_printf_i+0x1f4>
7010c430:	6833      	ldr	r3, [r6, #0]
7010c432:	6820      	ldr	r0, [r4, #0]
7010c434:	1d19      	adds	r1, r3, #4
7010c436:	6031      	str	r1, [r6, #0]
7010c438:	0606      	lsls	r6, r0, #24
7010c43a:	d501      	bpl.n	7010c440 <_printf_i+0xc0>
7010c43c:	681d      	ldr	r5, [r3, #0]
7010c43e:	e003      	b.n	7010c448 <_printf_i+0xc8>
7010c440:	0645      	lsls	r5, r0, #25
7010c442:	d5fb      	bpl.n	7010c43c <_printf_i+0xbc>
7010c444:	f9b3 5000 	ldrsh.w	r5, [r3]
7010c448:	2d00      	cmp	r5, #0
7010c44a:	da03      	bge.n	7010c454 <_printf_i+0xd4>
7010c44c:	232d      	movs	r3, #45	@ 0x2d
7010c44e:	426d      	negs	r5, r5
7010c450:	f884 3043 	strb.w	r3, [r4, #67]	@ 0x43
7010c454:	485b      	ldr	r0, [pc, #364]	@ (7010c5c4 <_printf_i+0x244>)
7010c456:	230a      	movs	r3, #10
7010c458:	e011      	b.n	7010c47e <_printf_i+0xfe>
7010c45a:	6821      	ldr	r1, [r4, #0]
7010c45c:	6833      	ldr	r3, [r6, #0]
7010c45e:	0608      	lsls	r0, r1, #24
7010c460:	f853 5b04 	ldr.w	r5, [r3], #4
7010c464:	d402      	bmi.n	7010c46c <_printf_i+0xec>
7010c466:	0649      	lsls	r1, r1, #25
7010c468:	bf48      	it	mi
7010c46a:	b2ad      	uxthmi	r5, r5
7010c46c:	6033      	str	r3, [r6, #0]
7010c46e:	7e23      	ldrb	r3, [r4, #24]
7010c470:	4854      	ldr	r0, [pc, #336]	@ (7010c5c4 <_printf_i+0x244>)
7010c472:	2b6f      	cmp	r3, #111	@ 0x6f
7010c474:	d15c      	bne.n	7010c530 <_printf_i+0x1b0>
7010c476:	2308      	movs	r3, #8
7010c478:	2100      	movs	r1, #0
7010c47a:	f884 1043 	strb.w	r1, [r4, #67]	@ 0x43
7010c47e:	6866      	ldr	r6, [r4, #4]
7010c480:	2e00      	cmp	r6, #0
7010c482:	60a6      	str	r6, [r4, #8]
7010c484:	db05      	blt.n	7010c492 <_printf_i+0x112>
7010c486:	6821      	ldr	r1, [r4, #0]
7010c488:	432e      	orrs	r6, r5
7010c48a:	f021 0104 	bic.w	r1, r1, #4
7010c48e:	6021      	str	r1, [r4, #0]
7010c490:	d050      	beq.n	7010c534 <_printf_i+0x1b4>
7010c492:	4616      	mov	r6, r2
7010c494:	fbb5 f1f3 	udiv	r1, r5, r3
7010c498:	fb03 5c11 	mls	ip, r3, r1, r5
7010c49c:	f810 c00c 	ldrb.w	ip, [r0, ip]
7010c4a0:	f806 cd01 	strb.w	ip, [r6, #-1]!
7010c4a4:	46ac      	mov	ip, r5
7010c4a6:	460d      	mov	r5, r1
7010c4a8:	4563      	cmp	r3, ip
7010c4aa:	d9f3      	bls.n	7010c494 <_printf_i+0x114>
7010c4ac:	2b08      	cmp	r3, #8
7010c4ae:	d10b      	bne.n	7010c4c8 <_printf_i+0x148>
7010c4b0:	6823      	ldr	r3, [r4, #0]
7010c4b2:	07db      	lsls	r3, r3, #31
7010c4b4:	d508      	bpl.n	7010c4c8 <_printf_i+0x148>
7010c4b6:	6923      	ldr	r3, [r4, #16]
7010c4b8:	6861      	ldr	r1, [r4, #4]
7010c4ba:	4299      	cmp	r1, r3
7010c4bc:	bfde      	ittt	le
7010c4be:	2330      	movle	r3, #48	@ 0x30
7010c4c0:	f806 3c01 	strble.w	r3, [r6, #-1]
7010c4c4:	f106 36ff 	addle.w	r6, r6, #4294967295
7010c4c8:	1b92      	subs	r2, r2, r6
7010c4ca:	6122      	str	r2, [r4, #16]
7010c4cc:	4643      	mov	r3, r8
7010c4ce:	aa03      	add	r2, sp, #12
7010c4d0:	4621      	mov	r1, r4
7010c4d2:	4638      	mov	r0, r7
7010c4d4:	f8cd 9000 	str.w	r9, [sp]
7010c4d8:	f7ff fee0 	bl	7010c29c <_printf_common>
7010c4dc:	3001      	adds	r0, #1
7010c4de:	d14e      	bne.n	7010c57e <_printf_i+0x1fe>
7010c4e0:	f04f 30ff 	mov.w	r0, #4294967295
7010c4e4:	b005      	add	sp, #20
7010c4e6:	e8bd 83f0 	ldmia.w	sp!, {r4, r5, r6, r7, r8, r9, pc}
7010c4ea:	6823      	ldr	r3, [r4, #0]
7010c4ec:	f043 0320 	orr.w	r3, r3, #32
7010c4f0:	6023      	str	r3, [r4, #0]
7010c4f2:	2578      	movs	r5, #120	@ 0x78
7010c4f4:	4834      	ldr	r0, [pc, #208]	@ (7010c5c8 <_printf_i+0x248>)
7010c4f6:	6823      	ldr	r3, [r4, #0]
7010c4f8:	f884 5045 	strb.w	r5, [r4, #69]	@ 0x45
7010c4fc:	f013 0f80 	tst.w	r3, #128	@ 0x80
7010c500:	6831      	ldr	r1, [r6, #0]
7010c502:	f851 5b04 	ldr.w	r5, [r1], #4
7010c506:	d103      	bne.n	7010c510 <_printf_i+0x190>
7010c508:	f013 0f40 	tst.w	r3, #64	@ 0x40
7010c50c:	bf18      	it	ne
7010c50e:	b2ad      	uxthne	r5, r5
7010c510:	6031      	str	r1, [r6, #0]
7010c512:	07d9      	lsls	r1, r3, #31
7010c514:	bf44      	itt	mi
7010c516:	f043 0320 	orrmi.w	r3, r3, #32
7010c51a:	6023      	strmi	r3, [r4, #0]
7010c51c:	b11d      	cbz	r5, 7010c526 <_printf_i+0x1a6>
7010c51e:	2310      	movs	r3, #16
7010c520:	e7aa      	b.n	7010c478 <_printf_i+0xf8>
7010c522:	4828      	ldr	r0, [pc, #160]	@ (7010c5c4 <_printf_i+0x244>)
7010c524:	e7e7      	b.n	7010c4f6 <_printf_i+0x176>
7010c526:	6823      	ldr	r3, [r4, #0]
7010c528:	f023 0320 	bic.w	r3, r3, #32
7010c52c:	6023      	str	r3, [r4, #0]
7010c52e:	e7f6      	b.n	7010c51e <_printf_i+0x19e>
7010c530:	230a      	movs	r3, #10
7010c532:	e7a1      	b.n	7010c478 <_printf_i+0xf8>
7010c534:	4616      	mov	r6, r2
7010c536:	e7b9      	b.n	7010c4ac <_printf_i+0x12c>
7010c538:	6833      	ldr	r3, [r6, #0]
7010c53a:	6825      	ldr	r5, [r4, #0]
7010c53c:	1d18      	adds	r0, r3, #4
7010c53e:	6961      	ldr	r1, [r4, #20]
7010c540:	6030      	str	r0, [r6, #0]
7010c542:	062e      	lsls	r6, r5, #24
7010c544:	681b      	ldr	r3, [r3, #0]
7010c546:	d501      	bpl.n	7010c54c <_printf_i+0x1cc>
7010c548:	6019      	str	r1, [r3, #0]
7010c54a:	e002      	b.n	7010c552 <_printf_i+0x1d2>
7010c54c:	0668      	lsls	r0, r5, #25
7010c54e:	d5fb      	bpl.n	7010c548 <_printf_i+0x1c8>
7010c550:	8019      	strh	r1, [r3, #0]
7010c552:	2300      	movs	r3, #0
7010c554:	4616      	mov	r6, r2
7010c556:	6123      	str	r3, [r4, #16]
7010c558:	e7b8      	b.n	7010c4cc <_printf_i+0x14c>
7010c55a:	6833      	ldr	r3, [r6, #0]
7010c55c:	2100      	movs	r1, #0
7010c55e:	1d1a      	adds	r2, r3, #4
7010c560:	6032      	str	r2, [r6, #0]
7010c562:	681e      	ldr	r6, [r3, #0]
7010c564:	6862      	ldr	r2, [r4, #4]
7010c566:	4630      	mov	r0, r6
7010c568:	f000 f8f4 	bl	7010c754 <memchr>
7010c56c:	b108      	cbz	r0, 7010c572 <_printf_i+0x1f2>
7010c56e:	1b80      	subs	r0, r0, r6
7010c570:	6060      	str	r0, [r4, #4]
7010c572:	6863      	ldr	r3, [r4, #4]
7010c574:	6123      	str	r3, [r4, #16]
7010c576:	2300      	movs	r3, #0
7010c578:	f884 3043 	strb.w	r3, [r4, #67]	@ 0x43
7010c57c:	e7a6      	b.n	7010c4cc <_printf_i+0x14c>
7010c57e:	6923      	ldr	r3, [r4, #16]
7010c580:	4632      	mov	r2, r6
7010c582:	4641      	mov	r1, r8
7010c584:	4638      	mov	r0, r7
7010c586:	47c8      	blx	r9
7010c588:	3001      	adds	r0, #1
7010c58a:	d0a9      	beq.n	7010c4e0 <_printf_i+0x160>
7010c58c:	6823      	ldr	r3, [r4, #0]
7010c58e:	079b      	lsls	r3, r3, #30
7010c590:	d413      	bmi.n	7010c5ba <_printf_i+0x23a>
7010c592:	68e0      	ldr	r0, [r4, #12]
7010c594:	9b03      	ldr	r3, [sp, #12]
7010c596:	4298      	cmp	r0, r3
7010c598:	bfb8      	it	lt
7010c59a:	4618      	movlt	r0, r3
7010c59c:	e7a2      	b.n	7010c4e4 <_printf_i+0x164>
7010c59e:	2301      	movs	r3, #1
7010c5a0:	4632      	mov	r2, r6
7010c5a2:	4641      	mov	r1, r8
7010c5a4:	4638      	mov	r0, r7
7010c5a6:	47c8      	blx	r9
7010c5a8:	3001      	adds	r0, #1
7010c5aa:	d099      	beq.n	7010c4e0 <_printf_i+0x160>
7010c5ac:	3501      	adds	r5, #1
7010c5ae:	68e3      	ldr	r3, [r4, #12]
7010c5b0:	9903      	ldr	r1, [sp, #12]
7010c5b2:	1a5b      	subs	r3, r3, r1
7010c5b4:	42ab      	cmp	r3, r5
7010c5b6:	dcf2      	bgt.n	7010c59e <_printf_i+0x21e>
7010c5b8:	e7eb      	b.n	7010c592 <_printf_i+0x212>
7010c5ba:	2500      	movs	r5, #0
7010c5bc:	f104 0619 	add.w	r6, r4, #25
7010c5c0:	e7f5      	b.n	7010c5ae <_printf_i+0x22e>
7010c5c2:	bf00      	nop
7010c5c4:	7010e6d8 	.word	0x7010e6d8
7010c5c8:	7010e6e9 	.word	0x7010e6e9

7010c5cc <__swhatbuf_r>:
7010c5cc:	b570      	push	{r4, r5, r6, lr}
7010c5ce:	460c      	mov	r4, r1
7010c5d0:	f9b1 100e 	ldrsh.w	r1, [r1, #14]
7010c5d4:	b096      	sub	sp, #88	@ 0x58
7010c5d6:	4615      	mov	r5, r2
7010c5d8:	2900      	cmp	r1, #0
7010c5da:	461e      	mov	r6, r3
7010c5dc:	da0a      	bge.n	7010c5f4 <__swhatbuf_r+0x28>
7010c5de:	89a1      	ldrh	r1, [r4, #12]
7010c5e0:	f011 0180 	ands.w	r1, r1, #128	@ 0x80
7010c5e4:	d113      	bne.n	7010c60e <__swhatbuf_r+0x42>
7010c5e6:	f44f 6280 	mov.w	r2, #1024	@ 0x400
7010c5ea:	2000      	movs	r0, #0
7010c5ec:	6031      	str	r1, [r6, #0]
7010c5ee:	602a      	str	r2, [r5, #0]
7010c5f0:	b016      	add	sp, #88	@ 0x58
7010c5f2:	bd70      	pop	{r4, r5, r6, pc}
7010c5f4:	466a      	mov	r2, sp
7010c5f6:	f000 f877 	bl	7010c6e8 <_fstat_r>
7010c5fa:	2800      	cmp	r0, #0
7010c5fc:	dbef      	blt.n	7010c5de <__swhatbuf_r+0x12>
7010c5fe:	9901      	ldr	r1, [sp, #4]
7010c600:	f401 4170 	and.w	r1, r1, #61440	@ 0xf000
7010c604:	f5a1 5300 	sub.w	r3, r1, #8192	@ 0x2000
7010c608:	4259      	negs	r1, r3
7010c60a:	4159      	adcs	r1, r3
7010c60c:	e7eb      	b.n	7010c5e6 <__swhatbuf_r+0x1a>
7010c60e:	2100      	movs	r1, #0
7010c610:	2240      	movs	r2, #64	@ 0x40
7010c612:	e7ea      	b.n	7010c5ea <__swhatbuf_r+0x1e>

7010c614 <__smakebuf_r>:
7010c614:	898b      	ldrh	r3, [r1, #12]
7010c616:	b573      	push	{r0, r1, r4, r5, r6, lr}
7010c618:	079e      	lsls	r6, r3, #30
7010c61a:	4605      	mov	r5, r0
7010c61c:	460c      	mov	r4, r1
7010c61e:	d507      	bpl.n	7010c630 <__smakebuf_r+0x1c>
7010c620:	f104 0347 	add.w	r3, r4, #71	@ 0x47
7010c624:	6023      	str	r3, [r4, #0]
7010c626:	6123      	str	r3, [r4, #16]
7010c628:	2301      	movs	r3, #1
7010c62a:	6163      	str	r3, [r4, #20]
7010c62c:	b002      	add	sp, #8
7010c62e:	bd70      	pop	{r4, r5, r6, pc}
7010c630:	ab01      	add	r3, sp, #4
7010c632:	466a      	mov	r2, sp
7010c634:	f7ff ffca 	bl	7010c5cc <__swhatbuf_r>
7010c638:	9e00      	ldr	r6, [sp, #0]
7010c63a:	4628      	mov	r0, r5
7010c63c:	4631      	mov	r1, r6
7010c63e:	f7fe feb1 	bl	7010b3a4 <_malloc_r>
7010c642:	f9b4 300c 	ldrsh.w	r3, [r4, #12]
7010c646:	b938      	cbnz	r0, 7010c658 <__smakebuf_r+0x44>
7010c648:	059a      	lsls	r2, r3, #22
7010c64a:	d4ef      	bmi.n	7010c62c <__smakebuf_r+0x18>
7010c64c:	f023 0303 	bic.w	r3, r3, #3
7010c650:	f043 0302 	orr.w	r3, r3, #2
7010c654:	81a3      	strh	r3, [r4, #12]
7010c656:	e7e3      	b.n	7010c620 <__smakebuf_r+0xc>
7010c658:	f043 0380 	orr.w	r3, r3, #128	@ 0x80
7010c65c:	6020      	str	r0, [r4, #0]
7010c65e:	81a3      	strh	r3, [r4, #12]
7010c660:	9b01      	ldr	r3, [sp, #4]
7010c662:	e9c4 0604 	strd	r0, r6, [r4, #16]
7010c666:	2b00      	cmp	r3, #0
7010c668:	d0e0      	beq.n	7010c62c <__smakebuf_r+0x18>
7010c66a:	f9b4 100e 	ldrsh.w	r1, [r4, #14]
7010c66e:	4628      	mov	r0, r5
7010c670:	f000 f84c 	bl	7010c70c <_isatty_r>
7010c674:	2800      	cmp	r0, #0
7010c676:	d0d9      	beq.n	7010c62c <__smakebuf_r+0x18>
7010c678:	89a3      	ldrh	r3, [r4, #12]
7010c67a:	f023 0303 	bic.w	r3, r3, #3
7010c67e:	f043 0301 	orr.w	r3, r3, #1
7010c682:	81a3      	strh	r3, [r4, #12]
7010c684:	e7d2      	b.n	7010c62c <__smakebuf_r+0x18>

7010c686 <_raise_r>:
7010c686:	291f      	cmp	r1, #31
7010c688:	b538      	push	{r3, r4, r5, lr}
7010c68a:	4605      	mov	r5, r0
7010c68c:	460c      	mov	r4, r1
7010c68e:	d904      	bls.n	7010c69a <_raise_r+0x14>
7010c690:	2316      	movs	r3, #22
7010c692:	6003      	str	r3, [r0, #0]
7010c694:	f04f 30ff 	mov.w	r0, #4294967295
7010c698:	bd38      	pop	{r3, r4, r5, pc}
7010c69a:	6bc2      	ldr	r2, [r0, #60]	@ 0x3c
7010c69c:	b112      	cbz	r2, 7010c6a4 <_raise_r+0x1e>
7010c69e:	f852 3021 	ldr.w	r3, [r2, r1, lsl #2]
7010c6a2:	b94b      	cbnz	r3, 7010c6b8 <_raise_r+0x32>
7010c6a4:	4628      	mov	r0, r5
7010c6a6:	f000 f853 	bl	7010c750 <_getpid_r>
7010c6aa:	4622      	mov	r2, r4
7010c6ac:	4601      	mov	r1, r0
7010c6ae:	4628      	mov	r0, r5
7010c6b0:	e8bd 4038 	ldmia.w	sp!, {r3, r4, r5, lr}
7010c6b4:	f000 b83a 	b.w	7010c72c <_kill_r>
7010c6b8:	2b01      	cmp	r3, #1
7010c6ba:	d00a      	beq.n	7010c6d2 <_raise_r+0x4c>
7010c6bc:	1c59      	adds	r1, r3, #1
7010c6be:	d103      	bne.n	7010c6c8 <_raise_r+0x42>
7010c6c0:	2316      	movs	r3, #22
7010c6c2:	6003      	str	r3, [r0, #0]
7010c6c4:	2001      	movs	r0, #1
7010c6c6:	e7e7      	b.n	7010c698 <_raise_r+0x12>
7010c6c8:	2100      	movs	r1, #0
7010c6ca:	4620      	mov	r0, r4
7010c6cc:	f842 1024 	str.w	r1, [r2, r4, lsl #2]
7010c6d0:	4798      	blx	r3
7010c6d2:	2000      	movs	r0, #0
7010c6d4:	e7e0      	b.n	7010c698 <_raise_r+0x12>
	...

7010c6d8 <raise>:
7010c6d8:	4b02      	ldr	r3, [pc, #8]	@ (7010c6e4 <raise+0xc>)
7010c6da:	4601      	mov	r1, r0
7010c6dc:	6818      	ldr	r0, [r3, #0]
7010c6de:	f7ff bfd2 	b.w	7010c686 <_raise_r>
7010c6e2:	bf00      	nop
7010c6e4:	34000094 	.word	0x34000094

7010c6e8 <_fstat_r>:
7010c6e8:	b538      	push	{r3, r4, r5, lr}
7010c6ea:	2300      	movs	r3, #0
7010c6ec:	4d06      	ldr	r5, [pc, #24]	@ (7010c708 <_fstat_r+0x20>)
7010c6ee:	4604      	mov	r4, r0
7010c6f0:	4608      	mov	r0, r1
7010c6f2:	4611      	mov	r1, r2
7010c6f4:	602b      	str	r3, [r5, #0]
7010c6f6:	f7f5 f8f1 	bl	701018dc <_fstat>
7010c6fa:	1c43      	adds	r3, r0, #1
7010c6fc:	d102      	bne.n	7010c704 <_fstat_r+0x1c>
7010c6fe:	682b      	ldr	r3, [r5, #0]
7010c700:	b103      	cbz	r3, 7010c704 <_fstat_r+0x1c>
7010c702:	6023      	str	r3, [r4, #0]
7010c704:	bd38      	pop	{r3, r4, r5, pc}
7010c706:	bf00      	nop
7010c708:	34001984 	.word	0x34001984

7010c70c <_isatty_r>:
7010c70c:	b538      	push	{r3, r4, r5, lr}
7010c70e:	2300      	movs	r3, #0
7010c710:	4d05      	ldr	r5, [pc, #20]	@ (7010c728 <_isatty_r+0x1c>)
7010c712:	4604      	mov	r4, r0
7010c714:	4608      	mov	r0, r1
7010c716:	602b      	str	r3, [r5, #0]
7010c718:	f7f5 f8e5 	bl	701018e6 <_isatty>
7010c71c:	1c43      	adds	r3, r0, #1
7010c71e:	d102      	bne.n	7010c726 <_isatty_r+0x1a>
7010c720:	682b      	ldr	r3, [r5, #0]
7010c722:	b103      	cbz	r3, 7010c726 <_isatty_r+0x1a>
7010c724:	6023      	str	r3, [r4, #0]
7010c726:	bd38      	pop	{r3, r4, r5, pc}
7010c728:	34001984 	.word	0x34001984

7010c72c <_kill_r>:
7010c72c:	b538      	push	{r3, r4, r5, lr}
7010c72e:	2300      	movs	r3, #0
7010c730:	4d06      	ldr	r5, [pc, #24]	@ (7010c74c <_kill_r+0x20>)
7010c732:	4604      	mov	r4, r0
7010c734:	4608      	mov	r0, r1
7010c736:	4611      	mov	r1, r2
7010c738:	602b      	str	r3, [r5, #0]
7010c73a:	f7f5 f8b0 	bl	7010189e <_kill>
7010c73e:	1c43      	adds	r3, r0, #1
7010c740:	d102      	bne.n	7010c748 <_kill_r+0x1c>
7010c742:	682b      	ldr	r3, [r5, #0]
7010c744:	b103      	cbz	r3, 7010c748 <_kill_r+0x1c>
7010c746:	6023      	str	r3, [r4, #0]
7010c748:	bd38      	pop	{r3, r4, r5, pc}
7010c74a:	bf00      	nop
7010c74c:	34001984 	.word	0x34001984

7010c750 <_getpid_r>:
7010c750:	f7f5 b8a3 	b.w	7010189a <_getpid>

7010c754 <memchr>:
7010c754:	b2c9      	uxtb	r1, r1
7010c756:	4603      	mov	r3, r0
7010c758:	4402      	add	r2, r0
7010c75a:	b510      	push	{r4, lr}
7010c75c:	4293      	cmp	r3, r2
7010c75e:	4618      	mov	r0, r3
7010c760:	d101      	bne.n	7010c766 <memchr+0x12>
7010c762:	2000      	movs	r0, #0
7010c764:	e003      	b.n	7010c76e <memchr+0x1a>
7010c766:	7804      	ldrb	r4, [r0, #0]
7010c768:	3301      	adds	r3, #1
7010c76a:	428c      	cmp	r4, r1
7010c76c:	d1f6      	bne.n	7010c75c <memchr+0x8>
7010c76e:	bd10      	pop	{r4, pc}

7010c770 <_init>:
7010c770:	b5f8      	push	{r3, r4, r5, r6, r7, lr}
7010c772:	bf00      	nop
7010c774:	bcf8      	pop	{r3, r4, r5, r6, r7}
7010c776:	bc08      	pop	{r3}
7010c778:	469e      	mov	lr, r3
7010c77a:	4770      	bx	lr

7010c77c <_fini>:
7010c77c:	b5f8      	push	{r3, r4, r5, r6, r7, lr}
7010c77e:	bf00      	nop
7010c780:	bcf8      	pop	{r3, r4, r5, r6, r7}
7010c782:	bc08      	pop	{r3}
7010c784:	469e      	mov	lr, r3
7010c786:	4770      	bx	lr

Disassembly of section .gnu.sgstubs:

70110200 <SECURE_SystemCoreClockUpdate>:
70110200:	e97f e97f 	sg
70110204:	f7f1 bcfc 	b.w	70101c00 <__acle_se_SECURE_SystemCoreClockUpdate>

70110208 <SECURE_RegisterCallback>:
70110208:	e97f e97f 	sg
7011020c:	f7f1 bab4 	b.w	70101778 <__acle_se_SECURE_RegisterCallback>
	...
